
4b1459ae-feb4-49a9-a47a-e65b6b4d1f49.elf:     file format elf64-littleaarch64
4b1459ae-feb4-49a9-a47a-e65b6b4d1f49.elf
architecture: aarch64, flags 0x00000150:
HAS_SYMS, DYNAMIC, D_PAGED
start address 0x0000000000000020

Program Header:
    LOAD off    0x0000000000010000 vaddr 0x0000000000000000 paddr 0x0000000000000000 align 2**16
         filesz 0x000000000000b4c0 memsz 0x000000000000b4c0 flags r-x
    LOAD off    0x000000000001b4c0 vaddr 0x000000000000b4c0 paddr 0x000000000000b4c0 align 2**16
         filesz 0x0000000000002298 memsz 0x0000000000002298 flags r--
    LOAD off    0x000000000001e000 vaddr 0x000000000000e000 paddr 0x000000000000e000 align 2**16
         filesz 0x000000000000033c memsz 0x000000000000af58 flags rw-
 DYNAMIC off    0x000000000001d3f0 vaddr 0x000000000000d3f0 paddr 0x000000000000d3f0 align 2**3
         filesz 0x0000000000000100 memsz 0x0000000000000100 flags rw-

Dynamic Section:
  HASH                 0x000000000000d708
  STRTAB               0x000000000000d658
  SYMTAB               0x000000000000d4f0
  STRSZ                0x00000000000000af
  SYMENT               0x0000000000000018
  DEBUG                0x0000000000000000
  RELA                 0x000000000000d010
  RELASZ               0x0000000000000360
  RELAENT              0x0000000000000018
  FLAGS_1              0x0000000008000000
  RELACOUNT            0x0000000000000018
private flags = 0:

Sections:
Idx Name          Size      VMA               LMA               File off  Algn
  0 .ta_head      00000020  0000000000000000  0000000000000000  00010000  2**3
                  CONTENTS, ALLOC, LOAD, DATA
  1 .text         0000b4a0  0000000000000020  0000000000000020  00010020  2**2
                  CONTENTS, ALLOC, LOAD, READONLY, CODE
  2 .rodata       00001b4e  000000000000b4c0  000000000000b4c0  0001b4c0  2**3
                  CONTENTS, ALLOC, LOAD, READONLY, DATA
  3 .dynsym       00000168  000000000000d4f0  000000000000d4f0  0001d4f0  2**3
                  CONTENTS, ALLOC, LOAD, READONLY, DATA
  4 .rela.dyn     00000240  000000000000d010  000000000000d010  0001d010  2**3
                  CONTENTS, ALLOC, LOAD, READONLY, DATA
  5 .got          00000080  000000000000d250  000000000000d250  0001d250  2**3
                  CONTENTS, ALLOC, LOAD, DATA
  6 .rela.got     00000120  000000000000d2d0  000000000000d2d0  0001d2d0  2**3
                  CONTENTS, ALLOC, LOAD, READONLY, DATA
  7 .dynamic      00000100  000000000000d3f0  000000000000d3f0  0001d3f0  2**3
                  CONTENTS, ALLOC, LOAD, DATA
  8 .dynstr       000000af  000000000000d658  000000000000d658  0001d658  2**0
                  CONTENTS, ALLOC, LOAD, READONLY, DATA
  9 .hash         00000050  000000000000d708  000000000000d708  0001d708  2**3
                  CONTENTS, ALLOC, LOAD, READONLY, DATA
 10 .data         0000033c  000000000000e000  000000000000e000  0001e000  2**3
                  CONTENTS, ALLOC, LOAD, DATA
 11 .bss          0000ac18  000000000000e340  000000000000e340  0001e33c  2**3
                  ALLOC
 12 .debug_info   000158dc  0000000000000000  0000000000000000  0001e33c  2**0
                  CONTENTS, READONLY, DEBUGGING
 13 .debug_abbrev 0000477c  0000000000000000  0000000000000000  00033c18  2**0
                  CONTENTS, READONLY, DEBUGGING
 14 .debug_loc    0001d7ca  0000000000000000  0000000000000000  00038394  2**0
                  CONTENTS, READONLY, DEBUGGING
 15 .debug_aranges 00000c40  0000000000000000  0000000000000000  00055b60  2**4
                  CONTENTS, READONLY, DEBUGGING
 16 .debug_macro  000053b1  0000000000000000  0000000000000000  000567a0  2**0
                  CONTENTS, READONLY, DEBUGGING
 17 .debug_line   0000709c  0000000000000000  0000000000000000  0005bb51  2**0
                  CONTENTS, READONLY, DEBUGGING
 18 .debug_str    00010e62  0000000000000000  0000000000000000  00062bed  2**0
                  CONTENTS, READONLY, DEBUGGING
 19 .comment      0000002d  0000000000000000  0000000000000000  00073a4f  2**0
                  CONTENTS, READONLY
 20 .debug_frame  000032a0  0000000000000000  0000000000000000  00073a80  2**3
                  CONTENTS, READONLY, DEBUGGING
 21 .debug_ranges 00001250  0000000000000000  0000000000000000  00076d20  2**4
                  CONTENTS, READONLY, DEBUGGING
SYMBOL TABLE:
0000000000000000 l    d  .ta_head	0000000000000000 .ta_head
0000000000000020 l    d  .text	0000000000000000 .text
000000000000b4c0 l    d  .rodata	0000000000000000 .rodata
000000000000d010 l    d  .rela.dyn	0000000000000000 .rela.dyn
000000000000d250 l    d  .got	0000000000000000 .got
000000000000d2d0 l    d  .rela.got	0000000000000000 .rela.got
000000000000d3f0 l    d  .dynamic	0000000000000000 .dynamic
000000000000d4f0 l    d  .dynsym	0000000000000000 .dynsym
000000000000d658 l    d  .dynstr	0000000000000000 .dynstr
000000000000d708 l    d  .hash	0000000000000000 .hash
000000000000e000 l    d  .data	0000000000000000 .data
000000000000e340 l    d  .bss	0000000000000000 .bss
0000000000000000 l    d  .debug_info	0000000000000000 .debug_info
0000000000000000 l    d  .debug_abbrev	0000000000000000 .debug_abbrev
0000000000000000 l    d  .debug_loc	0000000000000000 .debug_loc
0000000000000000 l    d  .debug_aranges	0000000000000000 .debug_aranges
0000000000000000 l    d  .debug_macro	0000000000000000 .debug_macro
0000000000000000 l    d  .debug_line	0000000000000000 .debug_line
0000000000000000 l    d  .debug_str	0000000000000000 .debug_str
0000000000000000 l    d  .comment	0000000000000000 .comment
0000000000000000 l    d  .debug_frame	0000000000000000 .debug_frame
0000000000000000 l    d  .debug_ranges	0000000000000000 .debug_ranges
0000000000000000 l    df *ABS*	0000000000000000 user_ta_header.c
000000000000b598 l     O .rodata	0000000000000004 __compound_literal.5
000000000000b59c l     O .rodata	0000000000000004 __compound_literal.4
000000000000b5a0 l     O .rodata	0000000000000004 __compound_literal.3
000000000000b5a4 l     O .rodata	0000000000000001 __compound_literal.2
000000000000b5a5 l     O .rodata	0000000000000001 __compound_literal.1
000000000000b5a6 l     O .rodata	0000000000000001 __compound_literal.0
0000000000000000 l    df *ABS*	0000000000000000 dbstore_ta.c
0000000000000020 l     F .text	00000000000001b4 inv
00000000000008b4 l     F .text	0000000000000358 init
000000000000b4c0 l     O .rodata	0000000000000004 __func__.3935
000000000000b4c8 l     O .rodata	000000000000001a __func__.3841
000000000000b4e8 l     O .rodata	0000000000000019 __func__.3858
000000000000b508 l     O .rodata	0000000000000010 __func__.3875
000000000000b518 l     O .rodata	0000000000000005 __func__.3914
000000000000b520 l     O .rodata	0000000000000014 __func__.3879
000000000000b538 l     O .rodata	0000000000000015 __func__.3883
000000000000b550 l     O .rodata	0000000000000019 __func__.3890
000000000000b570 l     O .rodata	000000000000001a __func__.3894
0000000000000000 l    df *ABS*	0000000000000000 tee_api.c
0000000000016340 l     O .bss	0000000000000008 tee_api_instance_data
0000000000000000 l    df *ABS*	0000000000000000 tee_api_objects.c
0000000000000000 l    df *ABS*	0000000000000000 tee_api_operations.c
000000000000405c l     F .text	000000000000021c tee_buffer_update
0000000000000000 l    df *ABS*	0000000000000000 tee_api_panic.c
0000000000000000 l    df *ABS*	0000000000000000 user_ta_entry.c
0000000000004280 l     F .text	0000000000000028 ta_header_get_session
00000000000042a8 l     F .text	0000000000000088 ta_header_remove_session
0000000000018f52 l     O .bss	0000000000000001 init_done
000000000000e2f8 l     O .data	0000000000000010 ta_sessions
0000000000000000 l    df *ABS*	0000000000000000 utee_syscalls_a64.o
0000000000000000 l    df *ABS*	0000000000000000 gprof_a64.o
0000000000000000 l    df *ABS*	0000000000000000 tee_user_mem.c
000000000000489c l     F .text	0000000000000058 print_buf
00000000000048f4 l     F .text	0000000000000104 check_elem
000000000000b5b8 l     O .rodata	000000000000000b __func__.3881
000000000000b5c8 l     O .rodata	000000000000000f __func__.3876
000000000000b5d8 l     O .rodata	0000000000000013 __func__.3901
000000000000b5f0 l     O .rodata	0000000000000012 __func__.3918
000000000000b608 l     O .rodata	0000000000000018 __func__.3926
000000000000b620 l     O .rodata	0000000000000010 __func__.3886
000000000000b630 l     O .rodata	0000000000000014 __func__.3931
0000000000016390 l     O .bss	0000000000000008 heap_level
0000000000016398 l     O .bss	0000000000000010 global_stats
0000000000000000 l    df *ABS*	0000000000000000 assert.c
0000000000000000 l    df *ABS*	0000000000000000 tee_api_arith.c
0000000000005550 l     F .text	0000000000000028 TEE_BigInt_Panic
00000000000163a8 l     O .bss	0000000000001b40 mempool_u32
0000000000000000 l    df *ABS*	0000000000000000 utee_misc.c
0000000000000000 l    df *ABS*	0000000000000000 trace_ext.c
0000000000000000 l    df *ABS*	0000000000000000 bget_malloc.c
000000000000570c l     F .text	000000000000004c raw_malloc_return_hook
0000000000005758 l     F .text	0000000000000110 create_free_block
000000000000b648 l     O .rodata	0000000000000012 __func__.3429
000000000000b660 l     O .rodata	0000000000000005 __func__.3297
000000000000b668 l     O .rodata	0000000000000006 __func__.3311
000000000000b670 l     O .rodata	0000000000000005 __func__.3326
000000000000b678 l     O .rodata	0000000000000006 __func__.3319
000000000000b680 l     O .rodata	0000000000000006 __func__.3334
000000000000b688 l     O .rodata	0000000000000007 __func__.3343
000000000000b690 l     O .rodata	000000000000000d __func__.3462
000000000000b6a0 l     O .rodata	000000000000000c __func__.3438
000000000000b6b0 l     O .rodata	000000000000000b __func__.3448
000000000000b6c0 l     O .rodata	0000000000000010 __func__.3514
000000000000b6d0 l     O .rodata	000000000000000e __func__.3468
000000000000b6e0 l     O .rodata	0000000000000013 __func__.3382
0000000000017ee8 l     O .bss	0000000000000008 totalloc
0000000000017ef0 l     O .bss	0000000000000038 mstats
0000000000017f28 l     O .bss	0000000000000008 numget
0000000000017f30 l     O .bss	0000000000000008 numrel
0000000000017f38 l     O .bss	0000000000000008 malloc_pool_len
0000000000017f40 l     O .bss	0000000000000008 malloc_pool
000000000000e318 l     O .data	0000000000000020 freelist
0000000000000000 l    df *ABS*	0000000000000000 snprintf.c
0000000000000000 l    df *ABS*	0000000000000000 memcmp.c
0000000000000000 l    df *ABS*	0000000000000000 memcpy.c
0000000000000000 l    df *ABS*	0000000000000000 memmove.c
0000000000000000 l    df *ABS*	0000000000000000 memset.c
0000000000000000 l    df *ABS*	0000000000000000 strlen.c
0000000000000000 l    df *ABS*	0000000000000000 snprintk.c
000000000000b6f8 l     O .rodata	0000000000000011 HEXDIGITS
000000000000b710 l     O .rodata	0000000000000011 hexdigits
0000000000000000 l    df *ABS*	0000000000000000 buf_compare_ct.c
0000000000000000 l    df *ABS*	0000000000000000 trace.c
000000000000b728 l     O .rodata	0000000000000005 lvl_strs.3168
0000000000000000 l    df *ABS*	0000000000000000 memchr.c
0000000000000000 l    df *ABS*	0000000000000000 mpa_misc.c
0000000000000000 l    df *ABS*	0000000000000000 mpa_montgomery.c
0000000000000000 l    df *ABS*	0000000000000000 mpa_primetest.c
000000000000c398 l     O .rodata	0000000000000010 const_miller_rabin_proof_limit
000000000000c3a8 l     O .rodata	000000000000001c proof_a.3549
000000000000c3c8 l     O .rodata	000000000000000c const_two
000000000000c3d8 l     O .rodata	00000000000000b8 const_small_prime_factors
0000000000000000 l    df *ABS*	0000000000000000 mpa_conv.c
0000000000000000 l    df *ABS*	0000000000000000 mpa_div.c
0000000000000000 l    df *ABS*	0000000000000000 mpa_gcd.c
0000000000008b14 l     F .text	0000000000000080 __mpa_divby2
0000000000008b94 l     F .text	000000000000016c __mpa_gcd.part.0
0000000000008d00 l     F .text	0000000000000380 __mpa_egcd
0000000000000000 l    df *ABS*	0000000000000000 mpa_mem_static.c
0000000000000000 l    df *ABS*	0000000000000000 mpa_mul.c
0000000000000000 l    df *ABS*	0000000000000000 mpa_random.c
0000000000017f48 l     O .bss	0000000000000008 get_rng_array
0000000000000000 l    df *ABS*	0000000000000000 mpa_shift.c
0000000000000000 l    df *ABS*	0000000000000000 mpa_addsub.c
0000000000000000 l    df *ABS*	0000000000000000 mpa_cmp.c
0000000000000000 l    df *ABS*	0000000000000000 mpa_expmod.c
0000000000000000 l    df *ABS*	0000000000000000 mpa_init.c
0000000000000000 l    df *ABS*	0000000000000000 mpa_io.c
000000000000aacc l     F .text	0000000000000044 __mpa_word_to_hexstr
000000000000ab10 l     F .text	0000000000000114 __mpa_mpanum_to_hexstr
000000000000ac24 l     F .text	000000000000003c __mpa_isspace
000000000000c498 l     O .rodata	000000000000000c __func__.3623
000000000000c4a8 l     O .rodata	000000000000000c __func__.3637
0000000000017f50 l     O .bss	0000000000001002 buf.3609
0000000000000000 l    df *ABS*	0000000000000000 mpa_modulus.c
0000000000000000 l    df *ABS*	0000000000000000 
000000000000d3f0 l     O *ABS*	0000000000000000 _DYNAMIC
000000000000d268 l     O *ABS*	0000000000000000 _GLOBAL_OFFSET_TABLE_
0000000000004874 g     F .text	000000000000000c utee_se_channel_transmit
00000000000056d0 g     F .text	000000000000003c putchar
000000000000aa48 g     F .text	000000000000001c mpa_init_static
00000000000015d0 g     F .text	00000000000000c0 TEE_PopulateTransientObject
000000000000785c g     F .text	0000000000000054 mpa_copy
0000000000005490 g     F .text	000000000000001c TEE_BigIntConvertToFMM
0000000000005370 g     F .text	000000000000000c TEE_BigIntSquareMod
0000000000004ff0 g     F .text	0000000000000004 TEE_BigIntShiftRight
0000000000008164 g     F .text	0000000000000074 mpa_get_S32
00000000000078e0 g     F .text	0000000000000044 mpa_highest_bit_index
000000000000473c g     F .text	000000000000000c utee_storage_obj_create
0000000000004850 g     F .text	000000000000000c utee_se_session_close
0000000000004544 g     F .text	000000000000000c utee_return
0000000000002c7c g     F .text	0000000000000070 TEE_DigestUpdate
00000000000047f0 g     F .text	000000000000000c utee_se_service_get_readers
0000000000001194 g     F .text	0000000000000008 TEE_Realloc
0000000000008254 g     F .text	0000000000000148 __mpa_div_q_r_internal_word
0000000000004c88 g     F .text	00000000000000bc tee_user_mem_realloc
00000000000029cc g     F .text	0000000000000190 TEE_SetOperationKey2
000000000000a280 g     F .text	000000000000019c mpa_sub
00000000000055c4 g     F .text	00000000000000cc printf
0000000000004b44 g     F .text	0000000000000144 tee_user_mem_free
0000000000004550 g     F .text	000000000000000c utee_log
000000000000c490 g     O .rodata	0000000000000004 NR_STORED_PRIMES
0000000000001690 g     F .text	0000000000000054 TEE_InitRefAttribute
0000000000000ec4 g     F .text	00000000000000b4 TEE_InvokeTACommand
0000000000007968 g     F .text	000000000000001c mpa_can_hold
0000000000009538 g     F .text	0000000000000098 __mpa_abs_mul_word
00000000000036c0 g     F .text	00000000000001a8 TEE_AEEncryptFinal
000000000000e108 g     O .data	0000000000000004 public_key
0000000000007d04 g     F .text	0000000000000088 mpa_montgomery_mul
0000000000007470 g     F .text	0000000000000054 vsnprintk
0000000000007984 g     F .text	000000000000000c mpa_parity
0000000000006844 g     F .text	000000000000004c memmove
0000000000009e08 g     F .text	0000000000000020 __mpa_full_adder_ackum
0000000000006724 g     F .text	0000000000000078 snprintf
0000000000004fec g     F .text	0000000000000004 TEE_BigIntCmpS32
00000000000016e4 g     F .text	0000000000000050 TEE_InitValueAttribute
0000000000005028 g     F .text	000000000000000c TEE_BigIntAdd
0000000000004574 g     F .text	000000000000000c utee_get_property_name_to_index
0000000000000218 g     F .text	00000000000002ac decrypt_using_private_key
000000000000b5a8 g     O .rodata	0000000000000008 ta_heap_size
000000000000c494 g     O .rodata	0000000000000004 MAX_TABULATED_PRIME
000000000000157c g     F .text	0000000000000054 TEE_ResetTransientObject
0000000000005580 g     F .text	0000000000000004 utee_malloc
00000000000045f8 g     F .text	000000000000000c utee_cryp_state_alloc
0000000000004700 g     F .text	000000000000000c utee_authenc_enc_final
0000000000009518 g     F .text	0000000000000020 __mpa_mul_add_word_cum
0000000000002db0 g     F .text	00000000000000a4 TEE_CipherInit
0000000000005040 g     F .text	0000000000000004 TEE_BigIntNeg
0000000000008a24 g     F .text	00000000000000f0 mpa_div
0000000000000020 g       .text	0000000000000000 __text_start
0000000000001ba0 g     F .text	0000000000000050 TEE_StartPersistentObjectEnumerator
000000000000b730 g     O .rodata	000000000000000c const_one
00000000000066b8 g     F .text	000000000000006c malloc_buffer_overlaps_heap
000000000000a788 g     F .text	0000000000000018 __mpa_abs_less_than
0000000000005200 g     F .text	00000000000000a8 TEE_BigIntSubMod
0000000000003418 g     F .text	00000000000000c4 TEE_AEInit
0000000000009878 g     F .text	0000000000000114 mpa_get_random
0000000000005590 g     F .text	0000000000000004 get_rng_array
00000000000075ac g     F .text	000000000000022c trace_printf
00000000000047d8 g     F .text	000000000000000c utee_se_service_open
0000000000006824 g     F .text	0000000000000020 memcpy
0000000000004610 g     F .text	000000000000000c utee_cryp_state_free
000000000000782c g     F .text	0000000000000030 mpa_wipe
00000000000054ac g     F .text	0000000000000094 TEE_BigIntConvertFromFMM
0000000000004278 g     F .text	0000000000000008 TEE_Panic
0000000000004868 g     F .text	000000000000000c utee_se_channel_get_select_resp
0000000000002b5c g     F .text	0000000000000120 TEE_CopyOperation
0000000000005690 g     F .text	0000000000000040 puts
0000000000005540 g     F .text	0000000000000010 TEE_BigIntComputeFMM
00000000000081d8 g     F .text	0000000000000014 mpa_set_word
0000000000005fb0 g     F .text	0000000000000038 malloc_get_stats
0000000000009af4 g     F .text	0000000000000190 mpa_shift_left
0000000000004658 g     F .text	000000000000000c utee_cipher_final
00000000000096c4 g     F .text	00000000000000e4 mpa_mul
0000000000001164 g     F .text	0000000000000028 TEE_GetREETime
0000000000001af4 g     F .text	000000000000005c TEE_AllocatePersistentObjectEnumerator
000000000000e218 g     O .data	00000000000000d8 ta_props
0000000000003a00 g     F .text	0000000000000144 TEE_AsymmetricEncrypt
0000000000005fe8 g     F .text	0000000000000038 malloc
0000000000004694 g     F .text	000000000000000c utee_cryp_obj_close
0000000000004814 g     F .text	000000000000000c utee_se_reader_open_session
000000000000679c g     F .text	0000000000000054 vsnprintf
0000000000001834 g     F .text	0000000000000084 TEE_GenerateKey
000000000000e338 g     O .data	0000000000000004 trace_level
0000000000005578 g     F .text	0000000000000008 utee_get_ta_exec_id
0000000000004fe8 g     F .text	0000000000000004 TEE_BigIntCmp
0000000000005584 g     F .text	0000000000000004 utee_realloc
000000000000b590 g     O .rodata	0000000000000008 ta_num_props
0000000000005d78 g     F .text	000000000000009c bgetr
00000000000046f4 g     F .text	000000000000000c utee_authenc_update_payload
0000000000002e54 g     F .text	000000000000015c TEE_CipherUpdate
0000000000004f84 g     F .text	0000000000000040 TEE_BigIntConvertToOctetString
000000000000271c g     F .text	0000000000000148 TEE_GetOperationInfoMultiple
000000000000488c g     F .text	000000000000000c utee_cache_operation
00000000000046dc g     F .text	000000000000000c utee_authenc_init
0000000000004ff4 g     F .text	000000000000001c TEE_BigIntGetBit
000000000000b5b0 g     O .rodata	0000000000000003 trace_ext_prefix
0000000000009e28 g     F .text	00000000000000f4 __mpa_abs_add
0000000000005a44 g     F .text	0000000000000088 bgetz
000000000000101c g     F .text	000000000000000c TEE_GetInstanceData
0000000000001068 g     F .text	000000000000003c TEE_Wait
00000000000047a8 g     F .text	000000000000000c utee_storage_obj_write
00000000000094b4 g     F .text	000000000000004c mpa_free_static_temp_var
000000000000e110 g     O .data	0000000000000101 private_key_dbstore
0000000000007d8c g     F .text	00000000000003ac mpa_is_prob_prime
0000000000004880 g     F .text	000000000000000c utee_se_channel_close
00000000000097a8 g     F .text	00000000000000c4 mpa_mul_word
00000000000011a8 g     F .text	0000000000000008 TEE_CacheFlush
0000000000000c44 g     F .text	0000000000000024 TA_DestroyEntryPoint
0000000000004e64 g     F .text	0000000000000044 _assert_log
0000000000004f48 g     F .text	0000000000000014 TEE_BigIntFMMContextSizeInU32
0000000000003358 g     F .text	00000000000000c0 TEE_MACCompareFinal
0000000000001a88 g     F .text	000000000000006c TEE_RenamePersistentObject
0000000000002cec g     F .text	00000000000000c4 TEE_DigestDoFinal
000000000000839c g     F .text	0000000000000688 __mpa_div_q_r
0000000000004ebc g     F .text	000000000000002c _TEE_MathAPI_Init
0000000000004790 g     F .text	000000000000000c utee_storage_next_enum
000000000000e340 g     O .bss	0000000000008000 ta_heap
000000000000537c g     F .text	000000000000006c TEE_BigIntInvMod
0000000000000cd4 g     F .text	0000000000000024 TA_CloseSessionEntryPoint
0000000000003b44 g     F .text	0000000000000148 TEE_AsymmetricDecrypt
00000000000018b8 g     F .text	0000000000000098 TEE_OpenPersistentObject
000000000000455c g     F .text	000000000000000c __utee_panic
0000000000004604 g     F .text	000000000000000c utee_cryp_state_copy
0000000000000cf8 g     F .text	0000000000000028 TA_InvokeCommandEntryPoint
000000000000af84 g     F .text	0000000000000110 mpa_set_oct_str
0000000000004844 g     F .text	000000000000000c utee_se_session_open_channel
00000000000099f8 g     F .text	0000000000000098 __mpa_shift_words_left
0000000000004688 g     F .text	000000000000000c utee_cryp_obj_alloc
00000000000045ec g     F .text	000000000000000c utee_set_ta_time
000000000000467c g     F .text	000000000000000c utee_cryp_obj_get_attr
00000000000017e0 g     F .text	0000000000000054 TEE_CopyObjectAttributes
0000000000007a14 g     F .text	0000000000000090 __mpa_montgomery_sub_ack
000000000000602c g     F .text	000000000000004c calloc
000000000000118c g     F .text	0000000000000008 TEE_Malloc
00000000000045c8 g     F .text	000000000000000c utee_mask_cancellation
00000000000046a0 g     F .text	000000000000000c utee_cryp_obj_reset
0000000000000ffc g     F .text	0000000000000014 TEE_CheckMemoryAccessRights
0000000000018f58 g       .bss	0000000000000000 __gprof_buf_end
000000000000a41c g     F .text	000000000000002c mpa_neg
000000000000b760 g     O .rodata	0000000000000c38 PRIME_TABLE
0000000000001c74 g     F .text	0000000000000068 TEE_ReadObjectData
0000000000001320 g     F .text	00000000000000ac TEE_GetObjectBufferAttribute
0000000000000c68 g     F .text	000000000000006c TA_OpenSessionEntryPoint
0000000000009080 g     F .text	0000000000000120 mpa_gcd
00000000000078b0 g     F .text	0000000000000030 mpa_abs
0000000000004784 g     F .text	000000000000000c utee_storage_start_enum
0000000000001e6c g     F .text	0000000000000044 TEE_FreeOperation
000000000000ac68 g     F .text	0000000000000298 mpa_set_str
0000000000004754 g     F .text	000000000000000c utee_storage_obj_rename
0000000000016348 g     O .bss	0000000000000004 ta_param_types
00000000000011b8 g     F .text	000000000000004c __utee_from_attr
000000000000546c g     F .text	0000000000000024 TEE_BigIntIsProbablePrime
00000000000094a4 g     F .text	0000000000000010 mpa_alloc_static_temp_var
0000000000001a18 g     F .text	0000000000000044 TEE_CloseAndDeletePersistentObject1
000000000000986c g     F .text	000000000000000c mpa_set_random_generator
0000000000004568 g     F .text	000000000000000c utee_get_property
0000000000003868 g     F .text	0000000000000198 TEE_AEDecryptFinal
0000000000004ee8 g     F .text	0000000000000004 TEE_BigIntInit
0000000000001028 g     F .text	0000000000000008 TEE_MemMove
0000000000004f5c g     F .text	0000000000000028 TEE_BigIntConvertFromOctetString
000000000000e2f0 g     O .data	0000000000000008 _ref__utee_mcount
0000000000003158 g     F .text	00000000000000a4 TEE_MACInit
0000000000003c8c g     F .text	000000000000013c TEE_AsymmetricSignDigest
00000000000077dc g     F .text	000000000000002c memchr
0000000000000fa4 g     F .text	000000000000002c TEE_UnmaskCancellation
0000000000001204 g     F .text	0000000000000048 TEE_GetObjectInfo
000000000000b328 g     F .text	0000000000000084 mpa_mul_mod
0000000000004748 g     F .text	000000000000000c utee_storage_obj_del
0000000000003570 g     F .text	0000000000000150 TEE_AEUpdate
00000000000047c0 g     F .text	000000000000000c utee_storage_obj_seek
0000000000001528 g     F .text	0000000000000054 TEE_FreeTransientObject
0000000000007bc8 g     F .text	000000000000013c mpa_compute_fmm_context
0000000000004628 g     F .text	000000000000000c utee_hash_update
000000000000938c g     F .text	0000000000000018 mpa_init_scratch_mem_sync
0000000000004898  w    F .text	0000000000000004 __utee_mcount
00000000000026d4 g     F .text	0000000000000048 TEE_GetOperationInfo
00000000000050c4 g     F .text	0000000000000094 TEE_BigIntMod
000000000000485c g     F .text	000000000000000c utee_se_channel_select_next
000000000000458c g     F .text	000000000000000c utee_close_ta_session
0000000000005060 g     F .text	0000000000000064 TEE_BigIntDiv
0000000000005f98 g     F .text	0000000000000018 malloc_reset_stats
000000000000464c g     F .text	000000000000000c utee_cipher_update
000000000000128c g     F .text	0000000000000044 TEE_RestrictObjectUsage1
0000000000004838 g     F .text	000000000000000c utee_se_session_get_atr
0000000000006078 g     F .text	0000000000000038 realloc
0000000000009f1c g     F .text	00000000000000cc __mpa_abs_add_ackum
0000000000004724 g     F .text	000000000000000c utee_asymm_verify
0000000000005044 g     F .text	000000000000000c TEE_BigIntMul
0000000000002864 g     F .text	0000000000000078 TEE_ResetOperation
00000000000081ec g     F .text	0000000000000018 mpa_get_word
0000000000001038 g     F .text	0000000000000008 TEE_MemFill
00000000000067f0 g     F .text	0000000000000034 memcmp
0000000000006440 g     F .text	00000000000000f8 malloc_add_pool
00000000000031fc g     F .text	00000000000000a0 TEE_MACUpdate
000000000000759c g     F .text	0000000000000010 trace_get_level
00000000000046d0 g     F .text	000000000000000c utee_cryp_random_number_generate
00000000000012d0 g     F .text	0000000000000050 TEE_RestrictObjectUsage
0000000000004f38 g     F .text	0000000000000010 TEE_BigIntFMMSizeInU32
0000000000004eec g     F .text	0000000000000014 TEE_BigIntInitFMM
0000000000004718 g     F .text	000000000000000c utee_asymm_operate
000000000000149c g     F .text	0000000000000028 TEE_CloseObject
0000000000004330 g     F .text	0000000000000208 __utee_entry
000000000000b4c0 g       .text	0000000000000000 __text_end
00000000000053e8 g     F .text	0000000000000078 TEE_BigIntRelativePrime
000000000000998c g     F .text	000000000000006c mpa_get_random_digits
0000000000005e14 g     F .text	00000000000000dc bpool
0000000000008138 g     F .text	000000000000002c mpa_set_S32
000000000000aa64 g     F .text	0000000000000068 mpa_init_static_fmm_context
0000000000000f78 g     F .text	000000000000002c TEE_GetCancellationFlag
00000000000047e4 g     F .text	000000000000000c utee_se_service_close
00000000000049f8 g     F .text	000000000000014c tee_user_mem_alloc
000000000000e308 g     O .data	0000000000000010 user_mem_head
0000000000001124 g     F .text	0000000000000040 TEE_SetTAPersistentTime
000000000000a448 g     F .text	000000000000013c mpa_add_word
00000000000047fc g     F .text	000000000000000c utee_se_reader_get_prop
0000000000006890 g     F .text	000000000000001c memset
00000000000010a4 g     F .text	0000000000000080 TEE_GetTAPersistentTime
00000000000077d8 g     F .text	0000000000000004 dhex_dump
0000000000001950 g     F .text	00000000000000c8 TEE_CreatePersistentObject
0000000000000fd0 g     F .text	000000000000002c TEE_MaskCancellation
0000000000009de4 g     F .text	0000000000000024 __mpa_full_sub
00000000000034dc g     F .text	0000000000000094 TEE_AEUpdateAAD
000000000000479c g     F .text	000000000000000c utee_storage_obj_read
00000000000004c4 g     F .text	00000000000001f4 encrypt_using_public_key
0000000000001d40 g     F .text	000000000000005c TEE_TruncateObjectData
0000000000005588 g     F .text	0000000000000004 utee_calloc
00000000000046ac g     F .text	000000000000000c utee_cryp_obj_populate
000000000000a7a0 g     F .text	0000000000000068 mpa_cmp
000000000000b3ac g     F .text	0000000000000114 mpa_inv_mod
000000000000a584 g     F .text	0000000000000138 mpa_sub_word
0000000000009500 g     F .text	0000000000000018 __mpa_mul_add_word
000000000000a0ec g     F .text	0000000000000194 mpa_add
000000000000a88c g     F .text	00000000000001bc mpa_exp_mod
000000000000124c g     F .text	0000000000000040 TEE_GetObjectInfo1
0000000000009a90 g     F .text	0000000000000064 __mpa_shift_words_right
0000000000007578 g     F .text	0000000000000024 trace_set_level
000000000000e000 g     O .data	0000000000000101 modulus_dbstore
000000000000482c g     F .text	000000000000000c utee_se_session_is_closed
0000000000004664 g     F .text	000000000000000c utee_cryp_obj_get_info
00000000000013cc g     F .text	00000000000000d0 TEE_GetObjectValueAttribute
00000000000028dc g     F .text	00000000000000f0 TEE_SetOperationKey
0000000000004760 g     F .text	000000000000000c utee_storage_alloc_enum
0000000000004778 g     F .text	000000000000000c utee_storage_reset_enum
00000000000047b4 g     F .text	000000000000000c utee_storage_obj_trunc
000000000000b208 g     F .text	0000000000000018 mpa_mod
000000000000a76c g     F .text	000000000000001c __mpa_abs_greater_than
0000000000004fc8 g     F .text	0000000000000020 TEE_BigIntConvertToS32
0000000000005034 g     F .text	000000000000000c TEE_BigIntSub
00000000000045a4 g     F .text	000000000000000c utee_get_cancellation_flag
00000000000001d4 g     F .text	0000000000000044 transform_challenge
000000000000461c g     F .text	000000000000000c utee_hash_init
0000000000000d20 g     F .text	0000000000000008 tahead_get_trace_level
0000000000000d28 g     F .text	0000000000000078 __utee_from_param
0000000000001d9c g     F .text	00000000000000d0 TEE_SeekObjectData
000000000000b740 g     O .rodata	0000000000000010 Const_1_LShift_Base
0000000000000da0 g     F .text	000000000000006c __utee_to_param
00000000000060b0 g     F .text	0000000000000390 memalign
0000000000002fb0 g     F .text	00000000000001a8 TEE_CipherDoFinal
0000000000004fc4 g     F .text	0000000000000004 TEE_BigIntConvertFromS32
000000000000b2a4 g     F .text	0000000000000084 mpa_sub_mod
0000000000004670 g     F .text	000000000000000c utee_cryp_obj_restrict_usage
0000000000006538 g     F .text	0000000000000180 malloc_buffer_is_within_alloced
00000000000046b8 g     F .text	000000000000000c utee_cryp_obj_copy
0000000000009c84 g     F .text	0000000000000144 mpa_shift_right
0000000000004f00 g     F .text	0000000000000038 TEE_BigIntInitFMMContext
00000000000046c4 g     F .text	000000000000000c utee_cryp_derive_key
0000000000007aa4 g     F .text	0000000000000124 __mpa_montgomery_mul
000000000000b094 g     F .text	0000000000000174 mpa_get_oct_str
000000000000a808 g     F .text	0000000000000084 mpa_cmp_short
000000000000470c g     F .text	000000000000000c utee_authenc_dec_final
0000000000001cdc g     F .text	0000000000000064 TEE_WriteObjectData
0000000000001b78 g     F .text	0000000000000028 TEE_ResetPersistentObjectEnumerator
000000000000a6bc g     F .text	00000000000000b0 __mpa_abs_cmp
0000000000005050 g     F .text	0000000000000010 TEE_BigIntSquare
0000000000000c0c g     F .text	0000000000000038 TA_CreateEntryPoint
00000000000074c4 g     F .text	0000000000000074 snprintk
0000000000005010 g     F .text	0000000000000018 TEE_BigIntGetBitCount
00000000000052a8 g     F .text	00000000000000c8 TEE_BigIntMulMod
0000000000003ef4 g     F .text	0000000000000144 TEE_DeriveKey
0000000000016350 g     O .bss	0000000000000040 ta_params
00000000000095d0 g     F .text	00000000000000f4 __mpa_abs_mul
0000000000005868 g     F .text	00000000000001dc bget
00000000000014c4 g     F .text	0000000000000064 TEE_AllocateTransientObject
000000000000119c g     F .text	0000000000000004 TEE_Free
0000000000004808 g     F .text	000000000000000c utee_se_reader_get_name
00000000000011b0 g     F .text	0000000000000008 TEE_CacheInvalidate
0000000000004640 g     F .text	000000000000000c utee_cipher_init
0000000000004ea8 g     F .text	0000000000000014 _assert_break
0000000000005158 g     F .text	00000000000000a8 TEE_BigIntAddMod
000000000000476c g     F .text	000000000000000c utee_storage_free_enum
00000000000046e8 g     F .text	000000000000000c utee_authenc_update_aad
0000000000007924 g     F .text	0000000000000044 mpa_get_bit
0000000000001eb0 g     F .text	0000000000000824 TEE_AllocateOperation
00000000000093a4 g     F .text	0000000000000018 mpa_init_scratch_mem
0000000000004038 g     F .text	0000000000000024 TEE_GenerateRandom
0000000000001030 g     F .text	0000000000000008 TEE_MemCompare
00000000000068c8 g     F .text	0000000000000ba8 __vsnprintf
0000000000001b50 g     F .text	0000000000000028 TEE_FreePersistentObjectEnumerator
0000000000004538 g     F .text	000000000000000c utee_panic
0000000000000e0c g     F .text	0000000000000090 TEE_OpenTASession
00000000000006b8 g     F .text	00000000000001fc encrypt_aes_ctr
0000000000005594 g     F .text	0000000000000028 trace_ext_puts
0000000000004dec g     F .text	0000000000000078 tee_user_mem_garbage
00000000000055bc g     F .text	0000000000000008 trace_ext_get_thread_id
0000000000001a5c g     F .text	000000000000002c TEE_CloseAndDeletePersistentObject
00000000000011a0 g     F .text	0000000000000008 TEE_CacheClean
0000000000004580 g     F .text	000000000000000c utee_open_ta_session
0000000000007538 g     F .text	0000000000000040 buf_compare_ct
0000000000008204 g     F .text	0000000000000050 __mpa_div_dword
0000000000007808 g     F .text	0000000000000024 __mpa_set_unused_digits_to_zero
000000000000b750 g     O .rodata	000000000000000c const_largest_deci_base
000000000000ac60 g     F .text	0000000000000008 mpa_get_str_size
0000000000004d50 g     F .text	000000000000009c tee_user_mem_check_heap
0000000000001734 g     F .text	00000000000000ac TEE_CopyObjectAttributes1
0000000000004634 g     F .text	000000000000000c utee_hash_final
00000000000068ac g     F .text	000000000000001c strlen
0000000000005460 g     F .text	000000000000000c TEE_BigIntComputeExtendedGcd
00000000000091a0 g     F .text	00000000000001ec mpa_extended_gcd
000000000000b220 g     F .text	0000000000000084 mpa_add_mod
0000000000004730 g     F .text	000000000000000c utee_storage_obj_open
0000000000004598 g     F .text	000000000000000c utee_invoke_ta_command
000000000000af00 g     F .text	0000000000000084 mpa_get_str
00000000000045d4 g     F .text	000000000000000c utee_wait
000000000000558c g     F .text	0000000000000004 utee_free
0000000000004d44 g     F .text	000000000000000c tee_user_mem_mark_heap
0000000000001040 g     F .text	0000000000000028 TEE_GetSystemTime
0000000000000000 g     O .ta_head	0000000000000020 ta_head
0000000000005acc g     F .text	00000000000002ac brel
00000000000093bc g     F .text	00000000000000e8 mpa_alloc_static_temp_var_size
00000000000045e0 g     F .text	000000000000000c utee_get_time
000000000000799c g     F .text	0000000000000078 __mpa_montgomery_mul_add
0000000000001010 g     F .text	000000000000000c TEE_SetInstanceData
00000000000045bc g     F .text	000000000000000c utee_unmask_cancellation
00000000000045b0 g     F .text	000000000000000c utee_check_access_rights
0000000000004820 g     F .text	000000000000000c utee_se_reader_close_sessions
0000000000001bf0 g     F .text	0000000000000084 TEE_GetNextPersistentObject
00000000000047cc g     F .text	000000000000000c utee_cryp_obj_generate_key
0000000000007990 g     F .text	000000000000000c mpa_constant_one
0000000000000e9c g     F .text	0000000000000028 TEE_CloseTASession
0000000000003dc8 g     F .text	000000000000012c TEE_AsymmetricVerifyDigest
0000000000009dc8 g     F .text	000000000000001c __mpa_full_adder
0000000000009fe8 g     F .text	0000000000000104 __mpa_abs_sub
0000000000018f58 g       .bss	0000000000000000 __gprof_buf_start
0000000000006020 g     F .text	000000000000000c free
0000000000005ef0 g     F .text	00000000000000a8 bstats
000000000000329c g     F .text	00000000000000bc TEE_MACComputeFinal



Disassembly of section .text:

0000000000000020 <inv>:
inv():
/home/pedro/devel/optee/optee_examples/HCEMobile/ta/dbstore_ta.c:512
      20:	a9ac7bfd 	stp	x29, x30, [sp,#-320]!
/home/pedro/devel/optee/optee_examples/HCEMobile/ta/dbstore_ta.c:533
      24:	90000064 	adrp	x4, c000 <PRIME_TABLE+0x8a0>
      28:	52800023 	mov	w3, #0x1                   	// #1
      2c:	91130c84 	add	x4, x4, #0x4c3
/home/pedro/devel/optee/optee_examples/HCEMobile/ta/dbstore_ta.c:512
      30:	910003fd 	mov	x29, sp
      34:	a90153f3 	stp	x19, x20, [sp,#16]
/home/pedro/devel/optee/optee_examples/HCEMobile/ta/dbstore_ta.c:533
      38:	f0000054 	adrp	x20, b000 <mpa_set_oct_str+0x7c>
/home/pedro/devel/optee/optee_examples/HCEMobile/ta/dbstore_ta.c:512
      3c:	a9025bf5 	stp	x21, x22, [sp,#32]
/home/pedro/devel/optee/optee_examples/HCEMobile/ta/dbstore_ta.c:533
      40:	91130295 	add	x21, x20, #0x4c0
/home/pedro/devel/optee/optee_examples/HCEMobile/ta/dbstore_ta.c:512
      44:	2a0003f6 	mov	w22, w0
      48:	aa0103f3 	mov	x19, x1
/home/pedro/devel/optee/optee_examples/HCEMobile/ta/dbstore_ta.c:533
      4c:	52800062 	mov	w2, #0x3                   	// #3
      50:	528042a1 	mov	w1, #0x215                 	// #533
      54:	aa1503e0 	mov	x0, x21
/home/pedro/devel/optee/optee_examples/HCEMobile/ta/dbstore_ta.c:525
      58:	b90033bf 	str	wzr, [x29,#48]
/home/pedro/devel/optee/optee_examples/HCEMobile/ta/dbstore_ta.c:533
      5c:	94001d54 	bl	75ac <trace_printf>
/home/pedro/devel/optee/optee_examples/HCEMobile/ta/dbstore_ta.c:535
      60:	711556df 	cmp	w22, #0x555
      64:	54000160 	b.eq	90 <inv+0x70>
/home/pedro/devel/optee/optee_examples/HCEMobile/ta/dbstore_ta.c:538
      68:	f9400265 	ldr	x5, [x19]
      6c:	90000064 	adrp	x4, c000 <PRIME_TABLE+0x8a0>
      70:	f9400a66 	ldr	x6, [x19,#16]
      74:	91134c84 	add	x4, x4, #0x4d3
      78:	f9401267 	ldr	x7, [x19,#32]
      7c:	52800023 	mov	w3, #0x1                   	// #1
      80:	52800042 	mov	w2, #0x2                   	// #2
      84:	52804361 	mov	w1, #0x21b                 	// #539
      88:	aa1503e0 	mov	x0, x21
      8c:	94001d48 	bl	75ac <trace_printf>
/home/pedro/devel/optee/optee_examples/HCEMobile/ta/dbstore_ta.c:541
      90:	91130294 	add	x20, x20, #0x4c0
      94:	52800023 	mov	w3, #0x1                   	// #1
      98:	aa1403e0 	mov	x0, x20
      9c:	52800042 	mov	w2, #0x2                   	// #2
      a0:	528043a1 	mov	w1, #0x21d                 	// #541
      a4:	90000064 	adrp	x4, c000 <PRIME_TABLE+0x8a0>
      a8:	9113e884 	add	x4, x4, #0x4fa
      ac:	94001d40 	bl	75ac <trace_printf>
/home/pedro/devel/optee/optee_examples/HCEMobile/ta/dbstore_ta.c:543
      b0:	9100e3a4 	add	x4, x29, #0x38
      b4:	9100c3a1 	add	x1, x29, #0x30
      b8:	52800063 	mov	w3, #0x3                   	// #3
      bc:	52800082 	mov	w2, #0x4                   	// #4
      c0:	52800020 	mov	w0, #0x1                   	// #1
      c4:	940005fd 	bl	18b8 <TEE_OpenPersistentObject>
/home/pedro/devel/optee/optee_examples/HCEMobile/ta/dbstore_ta.c:549
      c8:	f9401fa0 	ldr	x0, [x29,#56]
      cc:	910103b5 	add	x21, x29, #0x40
      d0:	9100d3a3 	add	x3, x29, #0x34
      d4:	aa1503e1 	mov	x1, x21
      d8:	52801fe2 	mov	w2, #0xff                  	// #255
      dc:	940006e6 	bl	1c74 <TEE_ReadObjectData>
/home/pedro/devel/optee/optee_examples/HCEMobile/ta/dbstore_ta.c:551
      e0:	aa1503e5 	mov	x5, x21
      e4:	52800023 	mov	w3, #0x1                   	// #1
      e8:	52800042 	mov	w2, #0x2                   	// #2
      ec:	528044e1 	mov	w1, #0x227                 	// #551
      f0:	aa1403e0 	mov	x0, x20
      f4:	90000064 	adrp	x4, c000 <PRIME_TABLE+0x8a0>
      f8:	91147484 	add	x4, x4, #0x51d
      fc:	94001d2c 	bl	75ac <trace_printf>
/home/pedro/devel/optee/optee_examples/HCEMobile/ta/dbstore_ta.c:553
     100:	f9401fa0 	ldr	x0, [x29,#56]
     104:	940004e6 	bl	149c <TEE_CloseObject>
/home/pedro/devel/optee/optee_examples/HCEMobile/ta/dbstore_ta.c:557
     108:	52800001 	mov	w1, #0x0                   	// #0
     10c:	52800120 	mov	w0, #0x9                   	// #9
     110:	9400041f 	bl	118c <TEE_Malloc>
     114:	aa0003f5 	mov	x21, x0
/home/pedro/devel/optee/optee_examples/HCEMobile/ta/dbstore_ta.c:558
     118:	52800122 	mov	w2, #0x9                   	// #9
     11c:	90000061 	adrp	x1, c000 <PRIME_TABLE+0x8a0>
     120:	91151021 	add	x1, x1, #0x544
     124:	940003c1 	bl	1028 <TEE_MemMove>
/home/pedro/devel/optee/optee_examples/HCEMobile/ta/dbstore_ta.c:559
     128:	f9400260 	ldr	x0, [x19]
     12c:	52800122 	mov	w2, #0x9                   	// #9
     130:	aa1503e1 	mov	x1, x21
     134:	940003bd 	bl	1028 <TEE_MemMove>
/home/pedro/devel/optee/optee_examples/HCEMobile/ta/dbstore_ta.c:563
     138:	52800001 	mov	w1, #0x0                   	// #0
     13c:	528000e0 	mov	w0, #0x7                   	// #7
     140:	94000413 	bl	118c <TEE_Malloc>
     144:	aa0003f5 	mov	x21, x0
/home/pedro/devel/optee/optee_examples/HCEMobile/ta/dbstore_ta.c:564
     148:	528000e2 	mov	w2, #0x7                   	// #7
     14c:	90000061 	adrp	x1, c000 <PRIME_TABLE+0x8a0>
     150:	91153821 	add	x1, x1, #0x54e
     154:	940003b5 	bl	1028 <TEE_MemMove>
/home/pedro/devel/optee/optee_examples/HCEMobile/ta/dbstore_ta.c:565
     158:	f9400a60 	ldr	x0, [x19,#16]
     15c:	528000e2 	mov	w2, #0x7                   	// #7
     160:	aa1503e1 	mov	x1, x21
     164:	940003b1 	bl	1028 <TEE_MemMove>
/home/pedro/devel/optee/optee_examples/HCEMobile/ta/dbstore_ta.c:569
     168:	52800001 	mov	w1, #0x0                   	// #0
     16c:	52800100 	mov	w0, #0x8                   	// #8
     170:	94000407 	bl	118c <TEE_Malloc>
     174:	aa0003f5 	mov	x21, x0
/home/pedro/devel/optee/optee_examples/HCEMobile/ta/dbstore_ta.c:570
     178:	52800102 	mov	w2, #0x8                   	// #8
     17c:	90000061 	adrp	x1, c000 <PRIME_TABLE+0x8a0>
     180:	91155821 	add	x1, x1, #0x556
     184:	940003a9 	bl	1028 <TEE_MemMove>
/home/pedro/devel/optee/optee_examples/HCEMobile/ta/dbstore_ta.c:571
     188:	f9401260 	ldr	x0, [x19,#32]
     18c:	aa1503e1 	mov	x1, x21
     190:	52800102 	mov	w2, #0x8                   	// #8
     194:	940003a5 	bl	1028 <TEE_MemMove>
/home/pedro/devel/optee/optee_examples/HCEMobile/ta/dbstore_ta.c:573
     198:	f9400265 	ldr	x5, [x19]
     19c:	aa1403e0 	mov	x0, x20
     1a0:	f9400a66 	ldr	x6, [x19,#16]
     1a4:	52800023 	mov	w3, #0x1                   	// #1
     1a8:	f9401267 	ldr	x7, [x19,#32]
     1ac:	52800042 	mov	w2, #0x2                   	// #2
     1b0:	528047c1 	mov	w1, #0x23e                 	// #574
     1b4:	90000064 	adrp	x4, c000 <PRIME_TABLE+0x8a0>
     1b8:	91157c84 	add	x4, x4, #0x55f
     1bc:	94001cfc 	bl	75ac <trace_printf>
/home/pedro/devel/optee/optee_examples/HCEMobile/ta/dbstore_ta.c:577
     1c0:	52800000 	mov	w0, #0x0                   	// #0
     1c4:	a94153f3 	ldp	x19, x20, [sp,#16]
     1c8:	a9425bf5 	ldp	x21, x22, [sp,#32]
     1cc:	a8d47bfd 	ldp	x29, x30, [sp],#320
     1d0:	d65f03c0 	ret

00000000000001d4 <transform_challenge>:
transform_challenge():
/home/pedro/devel/optee/optee_examples/HCEMobile/ta/dbstore_ta.c:80
     1d4:	a9be7bfd 	stp	x29, x30, [sp,#-32]!
     1d8:	910003fd 	mov	x29, sp
     1dc:	a90153f3 	stp	x19, x20, [sp,#16]
     1e0:	aa0003f4 	mov	x20, x0
/home/pedro/devel/optee/optee_examples/HCEMobile/ta/dbstore_ta.c:83
     1e4:	d2800013 	mov	x19, #0x0                   	// #0
     1e8:	aa1403e0 	mov	x0, x20
     1ec:	940019b0 	bl	68ac <strlen>
     1f0:	6b13001f 	cmp	w0, w19
     1f4:	5400008c 	b.gt	204 <transform_challenge+0x30>
/home/pedro/devel/optee/optee_examples/HCEMobile/ta/dbstore_ta.c:87
     1f8:	a94153f3 	ldp	x19, x20, [sp,#16]
     1fc:	a8c27bfd 	ldp	x29, x30, [sp],#32
     200:	d65f03c0 	ret
/home/pedro/devel/optee/optee_examples/HCEMobile/ta/dbstore_ta.c:84
     204:	38736a80 	ldrb	w0, [x20,x19]
     208:	11000800 	add	w0, w0, #0x2
     20c:	38336a80 	strb	w0, [x20,x19]
     210:	91000a73 	add	x19, x19, #0x2
     214:	17fffff5 	b	1e8 <transform_challenge+0x14>

0000000000000218 <decrypt_using_private_key>:
decrypt_using_private_key():
/home/pedro/devel/optee/optee_examples/HCEMobile/ta/dbstore_ta.c:89
     218:	a9b37bfd 	stp	x29, x30, [sp,#-208]!
     21c:	910003fd 	mov	x29, sp
     220:	f90023f9 	str	x25, [sp,#64]
     224:	aa0003f9 	mov	x25, x0
/home/pedro/devel/optee/optee_examples/HCEMobile/ta/dbstore_ta.c:100
     228:	52804000 	mov	w0, #0x200                 	// #512
/home/pedro/devel/optee/optee_examples/HCEMobile/ta/dbstore_ta.c:89
     22c:	a90363f7 	stp	x23, x24, [sp,#48]
/home/pedro/devel/optee/optee_examples/HCEMobile/ta/dbstore_ta.c:100
     230:	b90057a0 	str	w0, [x29,#84]
/home/pedro/devel/optee/optee_examples/HCEMobile/ta/dbstore_ta.c:104
     234:	52802600 	mov	w0, #0x130                 	// #304
     238:	72ba0000 	movk	w0, #0xd000, lsl #16
/home/pedro/devel/optee/optee_examples/HCEMobile/ta/dbstore_ta.c:89
     23c:	2a0103f8 	mov	w24, w1
/home/pedro/devel/optee/optee_examples/HCEMobile/ta/dbstore_ta.c:109
     240:	52804601 	mov	w1, #0x230                 	// #560
/home/pedro/devel/optee/optee_examples/HCEMobile/ta/dbstore_ta.c:104
     244:	b9008ba0 	str	w0, [x29,#136]
/home/pedro/devel/optee/optee_examples/HCEMobile/ta/dbstore_ta.c:109
     248:	72ba0001 	movk	w1, #0xd000, lsl #16
/home/pedro/devel/optee/optee_examples/HCEMobile/ta/dbstore_ta.c:105
     24c:	d0000060 	adrp	x0, e000 <modulus_dbstore>
     250:	91000000 	add	x0, x0, #0x0
/home/pedro/devel/optee/optee_examples/HCEMobile/ta/dbstore_ta.c:109
     254:	b900a3a1 	str	w1, [x29,#160]
/home/pedro/devel/optee/optee_examples/HCEMobile/ta/dbstore_ta.c:110
     258:	91042001 	add	x1, x0, #0x108
/home/pedro/devel/optee/optee_examples/HCEMobile/ta/dbstore_ta.c:105
     25c:	f9004ba0 	str	x0, [x29,#144]
/home/pedro/devel/optee/optee_examples/HCEMobile/ta/dbstore_ta.c:110
     260:	f90057a1 	str	x1, [x29,#168]
/home/pedro/devel/optee/optee_examples/HCEMobile/ta/dbstore_ta.c:115
     264:	91044000 	add	x0, x0, #0x110
/home/pedro/devel/optee/optee_examples/HCEMobile/ta/dbstore_ta.c:114
     268:	52806601 	mov	w1, #0x330                 	// #816
/home/pedro/devel/optee/optee_examples/HCEMobile/ta/dbstore_ta.c:115
     26c:	f90063a0 	str	x0, [x29,#192]
/home/pedro/devel/optee/optee_examples/HCEMobile/ta/dbstore_ta.c:114
     270:	72b80001 	movk	w1, #0xc000, lsl #16
/home/pedro/devel/optee/optee_examples/HCEMobile/ta/dbstore_ta.c:119
     274:	52800600 	mov	w0, #0x30                  	// #48
/home/pedro/devel/optee/optee_examples/HCEMobile/ta/dbstore_ta.c:89
     278:	a90153f3 	stp	x19, x20, [sp,#16]
     27c:	aa0203f7 	mov	x23, x2
     280:	a9025bf5 	stp	x21, x22, [sp,#32]
/home/pedro/devel/optee/optee_examples/HCEMobile/ta/dbstore_ta.c:106
     284:	52802013 	mov	w19, #0x100                 	// #256
/home/pedro/devel/optee/optee_examples/HCEMobile/ta/dbstore_ta.c:111
     288:	52800074 	mov	w20, #0x3                   	// #3
/home/pedro/devel/optee/optee_examples/HCEMobile/ta/dbstore_ta.c:114
     28c:	b900bba1 	str	w1, [x29,#184]
/home/pedro/devel/optee/optee_examples/HCEMobile/ta/dbstore_ta.c:89
     290:	aa0303f6 	mov	x22, x3
/home/pedro/devel/optee/optee_examples/HCEMobile/ta/dbstore_ta.c:119
     294:	910163a2 	add	x2, x29, #0x58
/home/pedro/devel/optee/optee_examples/HCEMobile/ta/dbstore_ta.c:95
     298:	a905ffbf 	stp	xzr, xzr, [x29,#88]
/home/pedro/devel/optee/optee_examples/HCEMobile/ta/dbstore_ta.c:119
     29c:	52810001 	mov	w1, #0x800                 	// #2048
/home/pedro/devel/optee/optee_examples/HCEMobile/ta/dbstore_ta.c:106
     2a0:	b9009bb3 	str	w19, [x29,#152]
/home/pedro/devel/optee/optee_examples/HCEMobile/ta/dbstore_ta.c:119
     2a4:	72b42000 	movk	w0, #0xa100, lsl #16
/home/pedro/devel/optee/optee_examples/HCEMobile/ta/dbstore_ta.c:111
     2a8:	b900b3b4 	str	w20, [x29,#176]
/home/pedro/devel/optee/optee_examples/HCEMobile/ta/dbstore_ta.c:116
     2ac:	b900cbb3 	str	w19, [x29,#200]
/home/pedro/devel/optee/optee_examples/HCEMobile/ta/dbstore_ta.c:119
     2b0:	94000485 	bl	14c4 <TEE_AllocateTransientObject>
/home/pedro/devel/optee/optee_examples/HCEMobile/ta/dbstore_ta.c:120
     2b4:	34000180 	cbz	w0, 2e4 <decrypt_using_private_key+0xcc>
/home/pedro/devel/optee/optee_examples/HCEMobile/ta/dbstore_ta.c:121
     2b8:	90000064 	adrp	x4, c000 <PRIME_TABLE+0x8a0>
     2bc:	91162484 	add	x4, x4, #0x589
     2c0:	52800023 	mov	w3, #0x1                   	// #1
     2c4:	52800042 	mov	w2, #0x2                   	// #2
     2c8:	52800f21 	mov	w1, #0x79                  	// #121
/home/pedro/devel/optee/optee_examples/HCEMobile/ta/dbstore_ta.c:128
     2cc:	f0000040 	adrp	x0, b000 <mpa_set_oct_str+0x7c>
     2d0:	91130000 	add	x0, x0, #0x4c0
     2d4:	91002000 	add	x0, x0, #0x8
     2d8:	94001cb5 	bl	75ac <trace_printf>
/home/pedro/devel/optee/optee_examples/HCEMobile/ta/dbstore_ta.c:163
     2dc:	129fff20 	mov	w0, #0xffff0006            	// #-65530
     2e0:	14000035 	b	3b4 <decrypt_using_private_key+0x19c>
/home/pedro/devel/optee/optee_examples/HCEMobile/ta/dbstore_ta.c:126
     2e4:	f9402fa0 	ldr	x0, [x29,#88]
     2e8:	2a1403e2 	mov	w2, w20
     2ec:	910223a1 	add	x1, x29, #0x88
     2f0:	940004b8 	bl	15d0 <TEE_PopulateTransientObject>
/home/pedro/devel/optee/optee_examples/HCEMobile/ta/dbstore_ta.c:127
     2f4:	340000e0 	cbz	w0, 310 <decrypt_using_private_key+0xf8>
/home/pedro/devel/optee/optee_examples/HCEMobile/ta/dbstore_ta.c:128
     2f8:	90000064 	adrp	x4, c000 <PRIME_TABLE+0x8a0>
     2fc:	52800023 	mov	w3, #0x1                   	// #1
     300:	9116a484 	add	x4, x4, #0x5a9
     304:	52800042 	mov	w2, #0x2                   	// #2
     308:	52801001 	mov	w1, #0x80                  	// #128
     30c:	17fffff0 	b	2cc <decrypt_using_private_key+0xb4>
/home/pedro/devel/optee/optee_examples/HCEMobile/ta/dbstore_ta.c:132
     310:	52800001 	mov	w1, #0x0                   	// #0
     314:	2a1303e0 	mov	w0, w19
     318:	9400039d 	bl	118c <TEE_Malloc>
     31c:	aa0003f4 	mov	x20, x0
/home/pedro/devel/optee/optee_examples/HCEMobile/ta/dbstore_ta.c:133
     320:	b94057a0 	ldr	w0, [x29,#84]
     324:	52800001 	mov	w1, #0x0                   	// #0
     328:	94000399 	bl	118c <TEE_Malloc>
     32c:	aa0003f5 	mov	x21, x0
/home/pedro/devel/optee/optee_examples/HCEMobile/ta/dbstore_ta.c:134
     330:	f100029f 	cmp	x20, #0x0
     334:	fa401804 	ccmp	x0, #0x0, #0x4, ne
     338:	540000e1 	b.ne	354 <decrypt_using_private_key+0x13c>
/home/pedro/devel/optee/optee_examples/HCEMobile/ta/dbstore_ta.c:135
     33c:	90000064 	adrp	x4, c000 <PRIME_TABLE+0x8a0>
     340:	52800023 	mov	w3, #0x1                   	// #1
     344:	91172484 	add	x4, x4, #0x5c9
     348:	52800042 	mov	w2, #0x2                   	// #2
     34c:	528010e1 	mov	w1, #0x87                  	// #135
     350:	17ffffdf 	b	2cc <decrypt_using_private_key+0xb4>
/home/pedro/devel/optee/optee_examples/HCEMobile/ta/dbstore_ta.c:138
     354:	2a1803e2 	mov	w2, w24
     358:	aa1903e1 	mov	x1, x25
     35c:	aa1403e0 	mov	x0, x20
     360:	94000332 	bl	1028 <TEE_MemMove>
/home/pedro/devel/optee/optee_examples/HCEMobile/ta/dbstore_ta.c:142
     364:	f9402fa0 	ldr	x0, [x29,#88]
     368:	9101a3a1 	add	x1, x29, #0x68
     36c:	940003a6 	bl	1204 <TEE_GetObjectInfo>
/home/pedro/devel/optee/optee_examples/HCEMobile/ta/dbstore_ta.c:145
     370:	52802601 	mov	w1, #0x130                 	// #304
     374:	52810003 	mov	w3, #0x800                 	// #2048
     378:	52800022 	mov	w2, #0x1                   	// #1
     37c:	72ac0001 	movk	w1, #0x6000, lsl #16
     380:	910183a0 	add	x0, x29, #0x60
     384:	940006cb 	bl	1eb0 <TEE_AllocateOperation>
/home/pedro/devel/optee/optee_examples/HCEMobile/ta/dbstore_ta.c:146
     388:	34000220 	cbz	w0, 3cc <decrypt_using_private_key+0x1b4>
/home/pedro/devel/optee/optee_examples/HCEMobile/ta/dbstore_ta.c:147
     38c:	f0000040 	adrp	x0, b000 <mpa_set_oct_str+0x7c>
     390:	91130000 	add	x0, x0, #0x4c0
     394:	90000064 	adrp	x4, c000 <PRIME_TABLE+0x8a0>
     398:	52800023 	mov	w3, #0x1                   	// #1
     39c:	9117a484 	add	x4, x4, #0x5e9
     3a0:	52800042 	mov	w2, #0x2                   	// #2
     3a4:	52801261 	mov	w1, #0x93                  	// #147
     3a8:	91002000 	add	x0, x0, #0x8
     3ac:	94001c80 	bl	75ac <trace_printf>
/home/pedro/devel/optee/optee_examples/HCEMobile/ta/dbstore_ta.c:156
     3b0:	12800000 	mov	w0, #0xffffffff            	// #-1
/home/pedro/devel/optee/optee_examples/HCEMobile/ta/dbstore_ta.c:182
     3b4:	a94153f3 	ldp	x19, x20, [sp,#16]
     3b8:	a9425bf5 	ldp	x21, x22, [sp,#32]
     3bc:	a94363f7 	ldp	x23, x24, [sp,#48]
     3c0:	f94023f9 	ldr	x25, [sp,#64]
     3c4:	a8cd7bfd 	ldp	x29, x30, [sp],#208
     3c8:	d65f03c0 	ret
/home/pedro/devel/optee/optee_examples/HCEMobile/ta/dbstore_ta.c:152
     3cc:	a94583a1 	ldp	x1, x0, [x29,#88]
     3d0:	94000943 	bl	28dc <TEE_SetOperationKey>
/home/pedro/devel/optee/optee_examples/HCEMobile/ta/dbstore_ta.c:153
     3d4:	340001a0 	cbz	w0, 408 <decrypt_using_private_key+0x1f0>
/home/pedro/devel/optee/optee_examples/HCEMobile/ta/dbstore_ta.c:154
     3d8:	f0000040 	adrp	x0, b000 <mpa_set_oct_str+0x7c>
     3dc:	91130000 	add	x0, x0, #0x4c0
     3e0:	52800023 	mov	w3, #0x1                   	// #1
     3e4:	52800042 	mov	w2, #0x2                   	// #2
     3e8:	52801341 	mov	w1, #0x9a                  	// #154
     3ec:	91002000 	add	x0, x0, #0x8
     3f0:	90000064 	adrp	x4, c000 <PRIME_TABLE+0x8a0>
     3f4:	91180484 	add	x4, x4, #0x601
     3f8:	94001c6d 	bl	75ac <trace_printf>
/home/pedro/devel/optee/optee_examples/HCEMobile/ta/dbstore_ta.c:155
     3fc:	f94033a0 	ldr	x0, [x29,#96]
     400:	9400069b 	bl	1e6c <TEE_FreeOperation>
     404:	17ffffeb 	b	3b0 <decrypt_using_private_key+0x198>
/home/pedro/devel/optee/optee_examples/HCEMobile/ta/dbstore_ta.c:159
     408:	f94033a0 	ldr	x0, [x29,#96]
     40c:	910153a6 	add	x6, x29, #0x54
     410:	aa1503e5 	mov	x5, x21
     414:	2a1803e4 	mov	w4, w24
     418:	aa1403e3 	mov	x3, x20
     41c:	52800002 	mov	w2, #0x0                   	// #0
     420:	d2800001 	mov	x1, #0x0                   	// #0
     424:	94000dc8 	bl	3b44 <TEE_AsymmetricDecrypt>
     428:	2a0003f3 	mov	w19, w0
/home/pedro/devel/optee/optee_examples/HCEMobile/ta/dbstore_ta.c:160
     42c:	129ffde0 	mov	w0, #0xffff0010            	// #-65520
     430:	6b00027f 	cmp	w19, w0
     434:	540001a1 	b.ne	468 <decrypt_using_private_key+0x250>
/home/pedro/devel/optee/optee_examples/HCEMobile/ta/dbstore_ta.c:161
     438:	90000064 	adrp	x4, c000 <PRIME_TABLE+0x8a0>
     43c:	91186084 	add	x4, x4, #0x618
     440:	52800023 	mov	w3, #0x1                   	// #1
     444:	52800042 	mov	w2, #0x2                   	// #2
     448:	52801421 	mov	w1, #0xa1                  	// #161
     44c:	f0000040 	adrp	x0, b000 <mpa_set_oct_str+0x7c>
     450:	91130000 	add	x0, x0, #0x4c0
     454:	91002000 	add	x0, x0, #0x8
     458:	94001c55 	bl	75ac <trace_printf>
/home/pedro/devel/optee/optee_examples/HCEMobile/ta/dbstore_ta.c:162
     45c:	f94033a0 	ldr	x0, [x29,#96]
     460:	94000683 	bl	1e6c <TEE_FreeOperation>
     464:	17ffff9e 	b	2dc <decrypt_using_private_key+0xc4>
/home/pedro/devel/optee/optee_examples/HCEMobile/ta/dbstore_ta.c:165
     468:	129fff20 	mov	w0, #0xffff0006            	// #-65530
     46c:	6b00027f 	cmp	w19, w0
     470:	540000e1 	b.ne	48c <decrypt_using_private_key+0x274>
/home/pedro/devel/optee/optee_examples/HCEMobile/ta/dbstore_ta.c:166
     474:	90000064 	adrp	x4, c000 <PRIME_TABLE+0x8a0>
     478:	52800023 	mov	w3, #0x1                   	// #1
     47c:	91190884 	add	x4, x4, #0x642
     480:	52800042 	mov	w2, #0x2                   	// #2
     484:	528014c1 	mov	w1, #0xa6                  	// #166
     488:	17fffff1 	b	44c <decrypt_using_private_key+0x234>
/home/pedro/devel/optee/optee_examples/HCEMobile/ta/dbstore_ta.c:172
     48c:	b94057b3 	ldr	w19, [x29,#84]
     490:	aa1503e1 	mov	x1, x21
     494:	aa1703e0 	mov	x0, x23
     498:	2a1303e2 	mov	w2, w19
     49c:	940018e2 	bl	6824 <memcpy>
/home/pedro/devel/optee/optee_examples/HCEMobile/ta/dbstore_ta.c:176
     4a0:	f94033a0 	ldr	x0, [x29,#96]
/home/pedro/devel/optee/optee_examples/HCEMobile/ta/dbstore_ta.c:173
     4a4:	b90002d3 	str	w19, [x22]
/home/pedro/devel/optee/optee_examples/HCEMobile/ta/dbstore_ta.c:176
     4a8:	94000671 	bl	1e6c <TEE_FreeOperation>
/home/pedro/devel/optee/optee_examples/HCEMobile/ta/dbstore_ta.c:177
     4ac:	f9402fa0 	ldr	x0, [x29,#88]
     4b0:	9400041e 	bl	1528 <TEE_FreeTransientObject>
/home/pedro/devel/optee/optee_examples/HCEMobile/ta/dbstore_ta.c:178
     4b4:	aa1403e0 	mov	x0, x20
     4b8:	94000339 	bl	119c <TEE_Free>
/home/pedro/devel/optee/optee_examples/HCEMobile/ta/dbstore_ta.c:181
     4bc:	52800000 	mov	w0, #0x0                   	// #0
     4c0:	17ffffbd 	b	3b4 <decrypt_using_private_key+0x19c>

00000000000004c4 <encrypt_using_public_key>:
encrypt_using_public_key():
/home/pedro/devel/optee/optee_examples/HCEMobile/ta/dbstore_ta.c:184
     4c4:	a9b57bfd 	stp	x29, x30, [sp,#-176]!
     4c8:	910003fd 	mov	x29, sp
     4cc:	a90363f7 	stp	x23, x24, [sp,#48]
     4d0:	aa0103f8 	mov	x24, x1
/home/pedro/devel/optee/optee_examples/HCEMobile/ta/dbstore_ta.c:197
     4d4:	52802601 	mov	w1, #0x130                 	// #304
/home/pedro/devel/optee/optee_examples/HCEMobile/ta/dbstore_ta.c:184
     4d8:	a9025bf5 	stp	x21, x22, [sp,#32]
/home/pedro/devel/optee/optee_examples/HCEMobile/ta/dbstore_ta.c:198
     4dc:	f90047a0 	str	x0, [x29,#136]
/home/pedro/devel/optee/optee_examples/HCEMobile/ta/dbstore_ta.c:199
     4e0:	52802000 	mov	w0, #0x100                 	// #256
     4e4:	b90093a0 	str	w0, [x29,#144]
/home/pedro/devel/optee/optee_examples/HCEMobile/ta/dbstore_ta.c:201
     4e8:	52804600 	mov	w0, #0x230                 	// #560
     4ec:	72ba0000 	movk	w0, #0xd000, lsl #16
     4f0:	b9009ba0 	str	w0, [x29,#152]
/home/pedro/devel/optee/optee_examples/HCEMobile/ta/dbstore_ta.c:202
     4f4:	d0000060 	adrp	x0, e000 <modulus_dbstore>
     4f8:	91000000 	add	x0, x0, #0x0
     4fc:	91042000 	add	x0, x0, #0x108
     500:	f90053a0 	str	x0, [x29,#160]
/home/pedro/devel/optee/optee_examples/HCEMobile/ta/dbstore_ta.c:203
     504:	52800060 	mov	w0, #0x3                   	// #3
/home/pedro/devel/optee/optee_examples/HCEMobile/ta/dbstore_ta.c:197
     508:	72ba0001 	movk	w1, #0xd000, lsl #16
/home/pedro/devel/optee/optee_examples/HCEMobile/ta/dbstore_ta.c:203
     50c:	b900aba0 	str	w0, [x29,#168]
/home/pedro/devel/optee/optee_examples/HCEMobile/ta/dbstore_ta.c:206
     510:	52800600 	mov	w0, #0x30                  	// #48
/home/pedro/devel/optee/optee_examples/HCEMobile/ta/dbstore_ta.c:184
     514:	a90153f3 	stp	x19, x20, [sp,#16]
     518:	2a0203f7 	mov	w23, w2
/home/pedro/devel/optee/optee_examples/HCEMobile/ta/dbstore_ta.c:190
     51c:	52804013 	mov	w19, #0x200                 	// #512
/home/pedro/devel/optee/optee_examples/HCEMobile/ta/dbstore_ta.c:197
     520:	b90083a1 	str	w1, [x29,#128]
/home/pedro/devel/optee/optee_examples/HCEMobile/ta/dbstore_ta.c:184
     524:	aa0303f6 	mov	x22, x3
     528:	aa0403f5 	mov	x21, x4
/home/pedro/devel/optee/optee_examples/HCEMobile/ta/dbstore_ta.c:206
     52c:	910143a2 	add	x2, x29, #0x50
/home/pedro/devel/optee/optee_examples/HCEMobile/ta/dbstore_ta.c:190
     530:	b9004fb3 	str	w19, [x29,#76]
/home/pedro/devel/optee/optee_examples/HCEMobile/ta/dbstore_ta.c:193
     534:	a9057fbf 	stp	xzr, xzr, [x29,#80]
/home/pedro/devel/optee/optee_examples/HCEMobile/ta/dbstore_ta.c:206
     538:	52810001 	mov	w1, #0x800                 	// #2048
     53c:	72b40000 	movk	w0, #0xa000, lsl #16
     540:	940003e1 	bl	14c4 <TEE_AllocateTransientObject>
/home/pedro/devel/optee/optee_examples/HCEMobile/ta/dbstore_ta.c:207
     544:	34000060 	cbz	w0, 550 <encrypt_using_public_key+0x8c>
/home/pedro/devel/optee/optee_examples/HCEMobile/ta/dbstore_ta.c:246
     548:	129fff21 	mov	w1, #0xffff0006            	// #-65530
     54c:	14000026 	b	5e4 <encrypt_using_public_key+0x120>
/home/pedro/devel/optee/optee_examples/HCEMobile/ta/dbstore_ta.c:212
     550:	f9402ba0 	ldr	x0, [x29,#80]
     554:	52800042 	mov	w2, #0x2                   	// #2
     558:	910203a1 	add	x1, x29, #0x80
     55c:	9400041d 	bl	15d0 <TEE_PopulateTransientObject>
/home/pedro/devel/optee/optee_examples/HCEMobile/ta/dbstore_ta.c:213
     560:	35ffff40 	cbnz	w0, 548 <encrypt_using_public_key+0x84>
/home/pedro/devel/optee/optee_examples/HCEMobile/ta/dbstore_ta.c:218
     564:	52800001 	mov	w1, #0x0                   	// #0
     568:	2a1303e0 	mov	w0, w19
     56c:	94000308 	bl	118c <TEE_Malloc>
     570:	aa0003f3 	mov	x19, x0
/home/pedro/devel/optee/optee_examples/HCEMobile/ta/dbstore_ta.c:219
     574:	b9404fa0 	ldr	w0, [x29,#76]
     578:	52800001 	mov	w1, #0x0                   	// #0
     57c:	94000304 	bl	118c <TEE_Malloc>
     580:	aa0003f4 	mov	x20, x0
/home/pedro/devel/optee/optee_examples/HCEMobile/ta/dbstore_ta.c:220
     584:	f100027f 	cmp	x19, #0x0
     588:	fa401804 	ccmp	x0, #0x0, #0x4, ne
     58c:	54fffde0 	b.eq	548 <encrypt_using_public_key+0x84>
/home/pedro/devel/optee/optee_examples/HCEMobile/ta/dbstore_ta.c:223
     590:	2a1703e2 	mov	w2, w23
     594:	aa1803e1 	mov	x1, x24
     598:	aa1303e0 	mov	x0, x19
     59c:	940002a3 	bl	1028 <TEE_MemMove>
/home/pedro/devel/optee/optee_examples/HCEMobile/ta/dbstore_ta.c:226
     5a0:	f9402ba0 	ldr	x0, [x29,#80]
     5a4:	910183a1 	add	x1, x29, #0x60
     5a8:	94000317 	bl	1204 <TEE_GetObjectInfo>
/home/pedro/devel/optee/optee_examples/HCEMobile/ta/dbstore_ta.c:229
     5ac:	52802601 	mov	w1, #0x130                 	// #304
     5b0:	52810003 	mov	w3, #0x800                 	// #2048
     5b4:	72ac0001 	movk	w1, #0x6000, lsl #16
     5b8:	52800002 	mov	w2, #0x0                   	// #0
     5bc:	910163a0 	add	x0, x29, #0x58
     5c0:	9400063c 	bl	1eb0 <TEE_AllocateOperation>
/home/pedro/devel/optee/optee_examples/HCEMobile/ta/dbstore_ta.c:231
     5c4:	12800001 	mov	w1, #0xffffffff            	// #-1
/home/pedro/devel/optee/optee_examples/HCEMobile/ta/dbstore_ta.c:230
     5c8:	350000e0 	cbnz	w0, 5e4 <encrypt_using_public_key+0x120>
/home/pedro/devel/optee/optee_examples/HCEMobile/ta/dbstore_ta.c:235
     5cc:	a94503a1 	ldp	x1, x0, [x29,#80]
     5d0:	940008c3 	bl	28dc <TEE_SetOperationKey>
/home/pedro/devel/optee/optee_examples/HCEMobile/ta/dbstore_ta.c:236
     5d4:	34000140 	cbz	w0, 5fc <encrypt_using_public_key+0x138>
/home/pedro/devel/optee/optee_examples/HCEMobile/ta/dbstore_ta.c:237
     5d8:	f9402fa0 	ldr	x0, [x29,#88]
     5dc:	94000624 	bl	1e6c <TEE_FreeOperation>
/home/pedro/devel/optee/optee_examples/HCEMobile/ta/dbstore_ta.c:238
     5e0:	12800001 	mov	w1, #0xffffffff            	// #-1
/home/pedro/devel/optee/optee_examples/HCEMobile/ta/dbstore_ta.c:267
     5e4:	a94153f3 	ldp	x19, x20, [sp,#16]
     5e8:	2a0103e0 	mov	w0, w1
     5ec:	a9425bf5 	ldp	x21, x22, [sp,#32]
     5f0:	a94363f7 	ldp	x23, x24, [sp,#48]
     5f4:	a8cb7bfd 	ldp	x29, x30, [sp],#176
     5f8:	d65f03c0 	ret
/home/pedro/devel/optee/optee_examples/HCEMobile/ta/dbstore_ta.c:242
     5fc:	f9402fa0 	ldr	x0, [x29,#88]
     600:	aa1303e3 	mov	x3, x19
     604:	910133a6 	add	x6, x29, #0x4c
     608:	aa1403e5 	mov	x5, x20
     60c:	2a1703e4 	mov	w4, w23
     610:	52800002 	mov	w2, #0x0                   	// #0
     614:	d2800001 	mov	x1, #0x0                   	// #0
     618:	94000cfa 	bl	3a00 <TEE_AsymmetricEncrypt>
     61c:	2a0003f3 	mov	w19, w0
/home/pedro/devel/optee/optee_examples/HCEMobile/ta/dbstore_ta.c:243
     620:	129ffde0 	mov	w0, #0xffff0010            	// #-65520
     624:	6b00027f 	cmp	w19, w0
     628:	540001a1 	b.ne	65c <encrypt_using_public_key+0x198>
/home/pedro/devel/optee/optee_examples/HCEMobile/ta/dbstore_ta.c:244
     62c:	90000064 	adrp	x4, c000 <PRIME_TABLE+0x8a0>
     630:	9119a084 	add	x4, x4, #0x668
     634:	52800023 	mov	w3, #0x1                   	// #1
     638:	52800042 	mov	w2, #0x2                   	// #2
     63c:	52801e81 	mov	w1, #0xf4                  	// #244
     640:	f0000040 	adrp	x0, b000 <mpa_set_oct_str+0x7c>
     644:	91130000 	add	x0, x0, #0x4c0
     648:	9100a000 	add	x0, x0, #0x28
     64c:	94001bd8 	bl	75ac <trace_printf>
/home/pedro/devel/optee/optee_examples/HCEMobile/ta/dbstore_ta.c:245
     650:	f9402fa0 	ldr	x0, [x29,#88]
     654:	94000606 	bl	1e6c <TEE_FreeOperation>
     658:	17ffffbc 	b	548 <encrypt_using_public_key+0x84>
/home/pedro/devel/optee/optee_examples/HCEMobile/ta/dbstore_ta.c:248
     65c:	129fff20 	mov	w0, #0xffff0006            	// #-65530
     660:	6b00027f 	cmp	w19, w0
     664:	540000e1 	b.ne	680 <encrypt_using_public_key+0x1bc>
/home/pedro/devel/optee/optee_examples/HCEMobile/ta/dbstore_ta.c:249
     668:	90000064 	adrp	x4, c000 <PRIME_TABLE+0x8a0>
     66c:	52800023 	mov	w3, #0x1                   	// #1
     670:	911a4884 	add	x4, x4, #0x692
     674:	52800042 	mov	w2, #0x2                   	// #2
     678:	52801f21 	mov	w1, #0xf9                  	// #249
     67c:	17fffff1 	b	640 <encrypt_using_public_key+0x17c>
/home/pedro/devel/optee/optee_examples/HCEMobile/ta/dbstore_ta.c:255
     680:	b9404fb3 	ldr	w19, [x29,#76]
     684:	aa1403e1 	mov	x1, x20
     688:	aa1603e0 	mov	x0, x22
     68c:	2a1303e2 	mov	w2, w19
     690:	94001865 	bl	6824 <memcpy>
/home/pedro/devel/optee/optee_examples/HCEMobile/ta/dbstore_ta.c:260
     694:	f9402fa0 	ldr	x0, [x29,#88]
/home/pedro/devel/optee/optee_examples/HCEMobile/ta/dbstore_ta.c:256
     698:	b90002b3 	str	w19, [x21]
/home/pedro/devel/optee/optee_examples/HCEMobile/ta/dbstore_ta.c:260
     69c:	940005f4 	bl	1e6c <TEE_FreeOperation>
/home/pedro/devel/optee/optee_examples/HCEMobile/ta/dbstore_ta.c:261
     6a0:	f9402ba0 	ldr	x0, [x29,#80]
     6a4:	940003a1 	bl	1528 <TEE_FreeTransientObject>
/home/pedro/devel/optee/optee_examples/HCEMobile/ta/dbstore_ta.c:262
     6a8:	aa1403e0 	mov	x0, x20
     6ac:	940002bc 	bl	119c <TEE_Free>
/home/pedro/devel/optee/optee_examples/HCEMobile/ta/dbstore_ta.c:266
     6b0:	52800001 	mov	w1, #0x0                   	// #0
     6b4:	17ffffcc 	b	5e4 <encrypt_using_public_key+0x120>

00000000000006b8 <encrypt_aes_ctr>:
encrypt_aes_ctr():
/home/pedro/devel/optee/optee_examples/HCEMobile/ta/dbstore_ta.c:269
     6b8:	a9b67bfd 	stp	x29, x30, [sp,#-160]!
     6bc:	910003fd 	mov	x29, sp
     6c0:	a9025bf5 	stp	x21, x22, [sp,#32]
/home/pedro/devel/optee/optee_examples/HCEMobile/ta/dbstore_ta.c:277
     6c4:	52800215 	mov	w21, #0x10                  	// #16
/home/pedro/devel/optee/optee_examples/HCEMobile/ta/dbstore_ta.c:269
     6c8:	a9046bf9 	stp	x25, x26, [sp,#64]
     6cc:	aa0003f9 	mov	x25, x0
/home/pedro/devel/optee/optee_examples/HCEMobile/ta/dbstore_ta.c:277
     6d0:	1ad50c20 	sdiv	w0, w1, w21
/home/pedro/devel/optee/optee_examples/HCEMobile/ta/dbstore_ta.c:269
     6d4:	a90363f7 	stp	x23, x24, [sp,#48]
     6d8:	a90153f3 	stp	x19, x20, [sp,#16]
     6dc:	aa0203f7 	mov	x23, x2
     6e0:	2a0103f4 	mov	w20, w1
     6e4:	aa0303f6 	mov	x22, x3
     6e8:	aa0503f8 	mov	x24, x5
/home/pedro/devel/optee/optee_examples/HCEMobile/ta/dbstore_ta.c:285
     6ec:	910163a2 	add	x2, x29, #0x58
/home/pedro/devel/optee/optee_examples/HCEMobile/ta/dbstore_ta.c:277
     6f0:	11000400 	add	w0, w0, #0x1
/home/pedro/devel/optee/optee_examples/HCEMobile/ta/dbstore_ta.c:285
     6f4:	52801001 	mov	w1, #0x80                  	// #128
/home/pedro/devel/optee/optee_examples/HCEMobile/ta/dbstore_ta.c:277
     6f8:	531b6800 	lsl	w0, w0, #5
     6fc:	b90057a0 	str	w0, [x29,#84]
/home/pedro/devel/optee/optee_examples/HCEMobile/ta/dbstore_ta.c:280
     700:	52b80000 	mov	w0, #0xc0000000            	// #-1073741824
     704:	b9006ba0 	str	w0, [x29,#104]
/home/pedro/devel/optee/optee_examples/HCEMobile/ta/dbstore_ta.c:285
     708:	2a1503e0 	mov	w0, w21
/home/pedro/devel/optee/optee_examples/HCEMobile/ta/dbstore_ta.c:276
     70c:	a905ffbf 	stp	xzr, xzr, [x29,#88]
/home/pedro/devel/optee/optee_examples/HCEMobile/ta/dbstore_ta.c:281
     710:	f9003ba4 	str	x4, [x29,#112]
/home/pedro/devel/optee/optee_examples/HCEMobile/ta/dbstore_ta.c:282
     714:	b9007bb5 	str	w21, [x29,#120]
/home/pedro/devel/optee/optee_examples/HCEMobile/ta/dbstore_ta.c:285
     718:	72b40000 	movk	w0, #0xa000, lsl #16
     71c:	9400036a 	bl	14c4 <TEE_AllocateTransientObject>
/home/pedro/devel/optee/optee_examples/HCEMobile/ta/dbstore_ta.c:286
     720:	34000060 	cbz	w0, 72c <encrypt_aes_ctr+0x74>
/home/pedro/devel/optee/optee_examples/HCEMobile/ta/dbstore_ta.c:327
     724:	129fff21 	mov	w1, #0xffff0006            	// #-65530
     728:	14000026 	b	7c0 <encrypt_aes_ctr+0x108>
/home/pedro/devel/optee/optee_examples/HCEMobile/ta/dbstore_ta.c:291
     72c:	f9402fa0 	ldr	x0, [x29,#88]
     730:	52800022 	mov	w2, #0x1                   	// #1
     734:	9101a3a1 	add	x1, x29, #0x68
     738:	940003a6 	bl	15d0 <TEE_PopulateTransientObject>
/home/pedro/devel/optee/optee_examples/HCEMobile/ta/dbstore_ta.c:292
     73c:	35ffff40 	cbnz	w0, 724 <encrypt_aes_ctr+0x6c>
/home/pedro/devel/optee/optee_examples/HCEMobile/ta/dbstore_ta.c:297
     740:	52800001 	mov	w1, #0x0                   	// #0
     744:	2a1403e0 	mov	w0, w20
     748:	94000291 	bl	118c <TEE_Malloc>
     74c:	aa0003fa 	mov	x26, x0
/home/pedro/devel/optee/optee_examples/HCEMobile/ta/dbstore_ta.c:298
     750:	b94057a0 	ldr	w0, [x29,#84]
     754:	52800001 	mov	w1, #0x0                   	// #0
     758:	9400028d 	bl	118c <TEE_Malloc>
     75c:	aa0003f3 	mov	x19, x0
/home/pedro/devel/optee/optee_examples/HCEMobile/ta/dbstore_ta.c:299
     760:	f100035f 	cmp	x26, #0x0
     764:	fa401804 	ccmp	x0, #0x0, #0x4, ne
     768:	54fffde0 	b.eq	724 <encrypt_aes_ctr+0x6c>
/home/pedro/devel/optee/optee_examples/HCEMobile/ta/dbstore_ta.c:302
     76c:	2a1403e2 	mov	w2, w20
     770:	aa1903e1 	mov	x1, x25
     774:	aa1a03e0 	mov	x0, x26
     778:	9400022c 	bl	1028 <TEE_MemMove>
/home/pedro/devel/optee/optee_examples/HCEMobile/ta/dbstore_ta.c:305
     77c:	f9402fa0 	ldr	x0, [x29,#88]
     780:	910203a1 	add	x1, x29, #0x80
     784:	940002a0 	bl	1204 <TEE_GetObjectInfo>
/home/pedro/devel/optee/optee_examples/HCEMobile/ta/dbstore_ta.c:308
     788:	52804201 	mov	w1, #0x210                 	// #528
     78c:	52801003 	mov	w3, #0x80                  	// #128
     790:	72a20001 	movk	w1, #0x1000, lsl #16
     794:	52800002 	mov	w2, #0x0                   	// #0
     798:	910183a0 	add	x0, x29, #0x60
     79c:	940005c5 	bl	1eb0 <TEE_AllocateOperation>
/home/pedro/devel/optee/optee_examples/HCEMobile/ta/dbstore_ta.c:310
     7a0:	12800001 	mov	w1, #0xffffffff            	// #-1
/home/pedro/devel/optee/optee_examples/HCEMobile/ta/dbstore_ta.c:309
     7a4:	350000e0 	cbnz	w0, 7c0 <encrypt_aes_ctr+0x108>
/home/pedro/devel/optee/optee_examples/HCEMobile/ta/dbstore_ta.c:314
     7a8:	a94583a1 	ldp	x1, x0, [x29,#88]
     7ac:	9400084c 	bl	28dc <TEE_SetOperationKey>
/home/pedro/devel/optee/optee_examples/HCEMobile/ta/dbstore_ta.c:315
     7b0:	34000160 	cbz	w0, 7dc <encrypt_aes_ctr+0x124>
/home/pedro/devel/optee/optee_examples/HCEMobile/ta/dbstore_ta.c:316
     7b4:	f94033a0 	ldr	x0, [x29,#96]
     7b8:	940005ad 	bl	1e6c <TEE_FreeOperation>
/home/pedro/devel/optee/optee_examples/HCEMobile/ta/dbstore_ta.c:317
     7bc:	12800001 	mov	w1, #0xffffffff            	// #-1
/home/pedro/devel/optee/optee_examples/HCEMobile/ta/dbstore_ta.c:351
     7c0:	a94153f3 	ldp	x19, x20, [sp,#16]
     7c4:	2a0103e0 	mov	w0, w1
     7c8:	a9425bf5 	ldp	x21, x22, [sp,#32]
     7cc:	a94363f7 	ldp	x23, x24, [sp,#48]
     7d0:	a9446bf9 	ldp	x25, x26, [sp,#64]
     7d4:	a8ca7bfd 	ldp	x29, x30, [sp],#160
     7d8:	d65f03c0 	ret
/home/pedro/devel/optee/optee_examples/HCEMobile/ta/dbstore_ta.c:321
     7dc:	f94033a0 	ldr	x0, [x29,#96]
     7e0:	2a1503e2 	mov	w2, w21
     7e4:	aa1803e1 	mov	x1, x24
/home/pedro/devel/optee/optee_examples/HCEMobile/ta/dbstore_ta.c:323
     7e8:	910153b8 	add	x24, x29, #0x54
/home/pedro/devel/optee/optee_examples/HCEMobile/ta/dbstore_ta.c:324
     7ec:	129ffdf5 	mov	w21, #0xffff0010            	// #-65520
/home/pedro/devel/optee/optee_examples/HCEMobile/ta/dbstore_ta.c:321
     7f0:	94000970 	bl	2db0 <TEE_CipherInit>
/home/pedro/devel/optee/optee_examples/HCEMobile/ta/dbstore_ta.c:323
     7f4:	f94033a0 	ldr	x0, [x29,#96]
     7f8:	aa1803e4 	mov	x4, x24
     7fc:	aa1303e3 	mov	x3, x19
     800:	2a1403e2 	mov	w2, w20
     804:	aa1a03e1 	mov	x1, x26
     808:	94000993 	bl	2e54 <TEE_CipherUpdate>
/home/pedro/devel/optee/optee_examples/HCEMobile/ta/dbstore_ta.c:324
     80c:	6b15001f 	cmp	w0, w21
     810:	540001a1 	b.ne	844 <encrypt_aes_ctr+0x18c>
/home/pedro/devel/optee/optee_examples/HCEMobile/ta/dbstore_ta.c:325
     814:	90000064 	adrp	x4, c000 <PRIME_TABLE+0x8a0>
     818:	911ae084 	add	x4, x4, #0x6b8
     81c:	52800023 	mov	w3, #0x1                   	// #1
     820:	52800042 	mov	w2, #0x2                   	// #2
     824:	528028a1 	mov	w1, #0x145                 	// #325
     828:	f0000040 	adrp	x0, b000 <mpa_set_oct_str+0x7c>
     82c:	91130000 	add	x0, x0, #0x4c0
     830:	91012000 	add	x0, x0, #0x48
     834:	94001b5e 	bl	75ac <trace_printf>
/home/pedro/devel/optee/optee_examples/HCEMobile/ta/dbstore_ta.c:326
     838:	f94033a0 	ldr	x0, [x29,#96]
     83c:	9400058c 	bl	1e6c <TEE_FreeOperation>
     840:	17ffffb9 	b	724 <encrypt_aes_ctr+0x6c>
/home/pedro/devel/optee/optee_examples/HCEMobile/ta/dbstore_ta.c:330
     844:	b94057b9 	ldr	w25, [x29,#84]
     848:	aa1303e1 	mov	x1, x19
     84c:	aa1703e0 	mov	x0, x23
     850:	2a1903e2 	mov	w2, w25
     854:	940017f4 	bl	6824 <memcpy>
/home/pedro/devel/optee/optee_examples/HCEMobile/ta/dbstore_ta.c:333
     858:	f94033a0 	ldr	x0, [x29,#96]
     85c:	aa1803e4 	mov	x4, x24
/home/pedro/devel/optee/optee_examples/HCEMobile/ta/dbstore_ta.c:331
     860:	b90002d9 	str	w25, [x22]
/home/pedro/devel/optee/optee_examples/HCEMobile/ta/dbstore_ta.c:333
     864:	aa1303e3 	mov	x3, x19
     868:	2a1403e2 	mov	w2, w20
     86c:	aa1a03e1 	mov	x1, x26
     870:	940009d0 	bl	2fb0 <TEE_CipherDoFinal>
/home/pedro/devel/optee/optee_examples/HCEMobile/ta/dbstore_ta.c:334
     874:	6b15001f 	cmp	w0, w21
     878:	540000e1 	b.ne	894 <encrypt_aes_ctr+0x1dc>
/home/pedro/devel/optee/optee_examples/HCEMobile/ta/dbstore_ta.c:335
     87c:	90000064 	adrp	x4, c000 <PRIME_TABLE+0x8a0>
     880:	52800023 	mov	w3, #0x1                   	// #1
     884:	911b5084 	add	x4, x4, #0x6d4
     888:	52800042 	mov	w2, #0x2                   	// #2
     88c:	528029e1 	mov	w1, #0x14f                 	// #335
     890:	17ffffe6 	b	828 <encrypt_aes_ctr+0x170>
/home/pedro/devel/optee/optee_examples/HCEMobile/ta/dbstore_ta.c:346
     894:	f94033a0 	ldr	x0, [x29,#96]
     898:	94000575 	bl	1e6c <TEE_FreeOperation>
/home/pedro/devel/optee/optee_examples/HCEMobile/ta/dbstore_ta.c:347
     89c:	f9402fa0 	ldr	x0, [x29,#88]
     8a0:	94000322 	bl	1528 <TEE_FreeTransientObject>
/home/pedro/devel/optee/optee_examples/HCEMobile/ta/dbstore_ta.c:348
     8a4:	aa1303e0 	mov	x0, x19
     8a8:	9400023d 	bl	119c <TEE_Free>
/home/pedro/devel/optee/optee_examples/HCEMobile/ta/dbstore_ta.c:350
     8ac:	52800001 	mov	w1, #0x0                   	// #0
     8b0:	17ffffc4 	b	7c0 <encrypt_aes_ctr+0x108>

00000000000008b4 <init>:
init():
/home/pedro/devel/optee/optee_examples/HCEMobile/ta/dbstore_ta.c:432
     8b4:	d10e43ff 	sub	sp, sp, #0x390
/home/pedro/devel/optee/optee_examples/HCEMobile/ta/dbstore_ta.c:441
     8b8:	d2802002 	mov	x2, #0x100                 	// #256
/home/pedro/devel/optee/optee_examples/HCEMobile/ta/dbstore_ta.c:432
     8bc:	a9007bfd 	stp	x29, x30, [sp]
     8c0:	910003fd 	mov	x29, sp
     8c4:	a9025bf5 	stp	x21, x22, [sp,#32]
/home/pedro/devel/optee/optee_examples/HCEMobile/ta/dbstore_ta.c:441
     8c8:	910243b5 	add	x21, x29, #0x90
/home/pedro/devel/optee/optee_examples/HCEMobile/ta/dbstore_ta.c:432
     8cc:	a90153f3 	stp	x19, x20, [sp,#16]
     8d0:	aa0103f4 	mov	x20, x1
     8d4:	a90363f7 	stp	x23, x24, [sp,#48]
/home/pedro/devel/optee/optee_examples/HCEMobile/ta/dbstore_ta.c:441
     8d8:	52800001 	mov	w1, #0x0                   	// #0
/home/pedro/devel/optee/optee_examples/HCEMobile/ta/dbstore_ta.c:432
     8dc:	a9046bf9 	stp	x25, x26, [sp,#64]
/home/pedro/devel/optee/optee_examples/HCEMobile/ta/dbstore_ta.c:443
     8e0:	910643b7 	add	x23, x29, #0x190
/home/pedro/devel/optee/optee_examples/HCEMobile/ta/dbstore_ta.c:432
     8e4:	a90573fb 	stp	x27, x28, [sp,#80]
/home/pedro/devel/optee/optee_examples/HCEMobile/ta/dbstore_ta.c:445
     8e8:	910a43b8 	add	x24, x29, #0x290
/home/pedro/devel/optee/optee_examples/HCEMobile/ta/dbstore_ta.c:432
     8ec:	b9006fa0 	str	w0, [x29,#108]
/home/pedro/devel/optee/optee_examples/HCEMobile/ta/dbstore_ta.c:441
     8f0:	aa1503e0 	mov	x0, x21
     8f4:	940017e7 	bl	6890 <memset>
/home/pedro/devel/optee/optee_examples/HCEMobile/ta/dbstore_ta.c:456
     8f8:	f0000053 	adrp	x19, b000 <mpa_set_oct_str+0x7c>
/home/pedro/devel/optee/optee_examples/HCEMobile/ta/dbstore_ta.c:443
     8fc:	d2802002 	mov	x2, #0x100                 	// #256
     900:	52800001 	mov	w1, #0x0                   	// #0
     904:	aa1703e0 	mov	x0, x23
     908:	940017e2 	bl	6890 <memset>
/home/pedro/devel/optee/optee_examples/HCEMobile/ta/dbstore_ta.c:445
     90c:	d2802002 	mov	x2, #0x100                 	// #256
     910:	52800001 	mov	w1, #0x0                   	// #0
     914:	aa1803e0 	mov	x0, x24
     918:	940017de 	bl	6890 <memset>
/home/pedro/devel/optee/optee_examples/HCEMobile/ta/dbstore_ta.c:449
     91c:	52800001 	mov	w1, #0x0                   	// #0
/home/pedro/devel/optee/optee_examples/HCEMobile/ta/dbstore_ta.c:456
     920:	9113027c 	add	x28, x19, #0x4c0
/home/pedro/devel/optee/optee_examples/HCEMobile/ta/dbstore_ta.c:449
     924:	52800200 	mov	w0, #0x10                  	// #16
     928:	94000219 	bl	118c <TEE_Malloc>
/home/pedro/devel/optee/optee_examples/HCEMobile/ta/dbstore_ta.c:450
     92c:	52800001 	mov	w1, #0x0                   	// #0
/home/pedro/devel/optee/optee_examples/HCEMobile/ta/dbstore_ta.c:456
     930:	9101639c 	add	x28, x28, #0x58
/home/pedro/devel/optee/optee_examples/HCEMobile/ta/dbstore_ta.c:449
     934:	aa0003f9 	mov	x25, x0
/home/pedro/devel/optee/optee_examples/HCEMobile/ta/dbstore_ta.c:450
     938:	52800200 	mov	w0, #0x10                  	// #16
     93c:	94000214 	bl	118c <TEE_Malloc>
/home/pedro/devel/optee/optee_examples/HCEMobile/ta/dbstore_ta.c:454
     940:	b90087bf 	str	wzr, [x29,#132]
/home/pedro/devel/optee/optee_examples/HCEMobile/ta/dbstore_ta.c:450
     944:	aa0003f6 	mov	x22, x0
/home/pedro/devel/optee/optee_examples/HCEMobile/ta/dbstore_ta.c:456
     948:	90000064 	adrp	x4, c000 <PRIME_TABLE+0x8a0>
     94c:	52800023 	mov	w3, #0x1                   	// #1
     950:	91130c84 	add	x4, x4, #0x4c3
     954:	52800062 	mov	w2, #0x3                   	// #3
     958:	52803901 	mov	w1, #0x1c8                 	// #456
     95c:	aa1c03e0 	mov	x0, x28
     960:	94001b13 	bl	75ac <trace_printf>
/home/pedro/devel/optee/optee_examples/HCEMobile/ta/dbstore_ta.c:461
     964:	b9406fa5 	ldr	w5, [x29,#108]
/home/pedro/devel/optee/optee_examples/HCEMobile/ta/dbstore_ta.c:458
     968:	f9400a9a 	ldr	x26, [x20,#16]
/home/pedro/devel/optee/optee_examples/HCEMobile/ta/dbstore_ta.c:461
     96c:	710154bf 	cmp	w5, #0x55
/home/pedro/devel/optee/optee_examples/HCEMobile/ta/dbstore_ta.c:459
     970:	f940129b 	ldr	x27, [x20,#32]
/home/pedro/devel/optee/optee_examples/HCEMobile/ta/dbstore_ta.c:461
     974:	54000120 	b.eq	998 <init+0xe4>
/home/pedro/devel/optee/optee_examples/HCEMobile/ta/dbstore_ta.c:464
     978:	f9400285 	ldr	x5, [x20]
     97c:	90000064 	adrp	x4, c000 <PRIME_TABLE+0x8a0>
     980:	52800023 	mov	w3, #0x1                   	// #1
     984:	911bbc84 	add	x4, x4, #0x6ef
     988:	52800042 	mov	w2, #0x2                   	// #2
     98c:	52803a01 	mov	w1, #0x1d0                 	// #464
     990:	aa1c03e0 	mov	x0, x28
     994:	94001b06 	bl	75ac <trace_printf>
/home/pedro/devel/optee/optee_examples/HCEMobile/ta/dbstore_ta.c:466
     998:	9113027c 	add	x28, x19, #0x4c0
     99c:	52800023 	mov	w3, #0x1                   	// #1
     9a0:	9101639c 	add	x28, x28, #0x58
     9a4:	52800042 	mov	w2, #0x2                   	// #2
     9a8:	52803a41 	mov	w1, #0x1d2                 	// #466
     9ac:	aa1c03e0 	mov	x0, x28
     9b0:	90000064 	adrp	x4, c000 <PRIME_TABLE+0x8a0>
     9b4:	911c2c84 	add	x4, x4, #0x70b
     9b8:	94001afd 	bl	75ac <trace_printf>
/home/pedro/devel/optee/optee_examples/HCEMobile/ta/dbstore_ta.c:468
     9bc:	90000065 	adrp	x5, c000 <PRIME_TABLE+0x8a0>
     9c0:	910223a7 	add	x7, x29, #0x88
     9c4:	528000c6 	mov	w6, #0x6                   	// #6
     9c8:	911cd0a5 	add	x5, x5, #0x734
     9cc:	d2800004 	mov	x4, #0x0                   	// #0
     9d0:	52800043 	mov	w3, #0x2                   	// #2
     9d4:	52800082 	mov	w2, #0x4                   	// #4
     9d8:	910213a1 	add	x1, x29, #0x84
     9dc:	52800020 	mov	w0, #0x1                   	// #1
     9e0:	940003dc 	bl	1950 <TEE_CreatePersistentObject>
/home/pedro/devel/optee/optee_examples/HCEMobile/ta/dbstore_ta.c:470
     9e4:	34000100 	cbz	w0, a04 <init+0x150>
/home/pedro/devel/optee/optee_examples/HCEMobile/ta/dbstore_ta.c:472
     9e8:	90000064 	adrp	x4, c000 <PRIME_TABLE+0x8a0>
     9ec:	52800023 	mov	w3, #0x1                   	// #1
     9f0:	911ce884 	add	x4, x4, #0x73a
     9f4:	52800042 	mov	w2, #0x2                   	// #2
     9f8:	52803b01 	mov	w1, #0x1d8                 	// #472
     9fc:	aa1c03e0 	mov	x0, x28
     a00:	94001aeb 	bl	75ac <trace_printf>
/home/pedro/devel/optee/optee_examples/HCEMobile/ta/dbstore_ta.c:474
     a04:	f94047a0 	ldr	x0, [x29,#136]
/home/pedro/devel/optee/optee_examples/HCEMobile/ta/dbstore_ta.c:477
     a08:	91130273 	add	x19, x19, #0x4c0
     a0c:	91016273 	add	x19, x19, #0x58
/home/pedro/devel/optee/optee_examples/HCEMobile/ta/dbstore_ta.c:474
     a10:	940002a3 	bl	149c <TEE_CloseObject>
/home/pedro/devel/optee/optee_examples/HCEMobile/ta/dbstore_ta.c:477
     a14:	aa1303e0 	mov	x0, x19
     a18:	52800023 	mov	w3, #0x1                   	// #1
     a1c:	52800042 	mov	w2, #0x2                   	// #2
     a20:	52803ba1 	mov	w1, #0x1dd                 	// #477
     a24:	90000064 	adrp	x4, c000 <PRIME_TABLE+0x8a0>
     a28:	911d5084 	add	x4, x4, #0x754
     a2c:	94001ae0 	bl	75ac <trace_printf>
/home/pedro/devel/optee/optee_examples/HCEMobile/ta/dbstore_ta.c:478
     a30:	b9402a81 	ldr	w1, [x20,#40]
     a34:	9101e3a3 	add	x3, x29, #0x78
     a38:	aa1503e2 	mov	x2, x21
     a3c:	aa1b03e0 	mov	x0, x27
     a40:	97fffdf6 	bl	218 <decrypt_using_private_key>
/home/pedro/devel/optee/optee_examples/HCEMobile/ta/dbstore_ta.c:479
     a44:	aa1503e5 	mov	x5, x21
     a48:	aa1303e0 	mov	x0, x19
     a4c:	52800023 	mov	w3, #0x1                   	// #1
     a50:	52800042 	mov	w2, #0x2                   	// #2
     a54:	52803be1 	mov	w1, #0x1df                 	// #479
     a58:	90000064 	adrp	x4, c000 <PRIME_TABLE+0x8a0>
     a5c:	911e2c84 	add	x4, x4, #0x78b
     a60:	94001ad3 	bl	75ac <trace_printf>
/home/pedro/devel/optee/optee_examples/HCEMobile/ta/dbstore_ta.c:482
     a64:	90000064 	adrp	x4, c000 <PRIME_TABLE+0x8a0>
     a68:	911ea084 	add	x4, x4, #0x7a8
     a6c:	52800023 	mov	w3, #0x1                   	// #1
     a70:	52800042 	mov	w2, #0x2                   	// #2
     a74:	52803c41 	mov	w1, #0x1e2                 	// #482
     a78:	aa1303e0 	mov	x0, x19
     a7c:	94001acc 	bl	75ac <trace_printf>
/home/pedro/devel/optee/optee_examples/HCEMobile/ta/dbstore_ta.c:483
     a80:	aa1503e0 	mov	x0, x21
     a84:	97fffdd4 	bl	1d4 <transform_challenge>
/home/pedro/devel/optee/optee_examples/HCEMobile/ta/dbstore_ta.c:484
     a88:	aa1503e5 	mov	x5, x21
     a8c:	aa1303e0 	mov	x0, x19
     a90:	52800023 	mov	w3, #0x1                   	// #1
     a94:	52800042 	mov	w2, #0x2                   	// #2
     a98:	52803c81 	mov	w1, #0x1e4                 	// #484
     a9c:	90000064 	adrp	x4, c000 <PRIME_TABLE+0x8a0>
     aa0:	911f8484 	add	x4, x4, #0x7e1
     aa4:	94001ac2 	bl	75ac <trace_printf>
/home/pedro/devel/optee/optee_examples/HCEMobile/ta/dbstore_ta.c:487
     aa8:	90000064 	adrp	x4, c000 <PRIME_TABLE+0x8a0>
     aac:	91200884 	add	x4, x4, #0x802
     ab0:	52800023 	mov	w3, #0x1                   	// #1
     ab4:	52800042 	mov	w2, #0x2                   	// #2
     ab8:	aa1303e0 	mov	x0, x19
     abc:	52803ce1 	mov	w1, #0x1e7                 	// #487
     ac0:	94001abb 	bl	75ac <trace_printf>
/home/pedro/devel/optee/optee_examples/HCEMobile/ta/dbstore_ta.c:488
     ac4:	aa1903e0 	mov	x0, x25
     ac8:	52800201 	mov	w1, #0x10                  	// #16
     acc:	94000d5b 	bl	4038 <TEE_GenerateRandom>
/home/pedro/devel/optee/optee_examples/HCEMobile/ta/dbstore_ta.c:489
     ad0:	aa1603e0 	mov	x0, x22
     ad4:	52800201 	mov	w1, #0x10                  	// #16
     ad8:	94000d58 	bl	4038 <TEE_GenerateRandom>
/home/pedro/devel/optee/optee_examples/HCEMobile/ta/dbstore_ta.c:490
     adc:	aa1303e0 	mov	x0, x19
     ae0:	52800023 	mov	w3, #0x1                   	// #1
     ae4:	52800042 	mov	w2, #0x2                   	// #2
     ae8:	52803d41 	mov	w1, #0x1ea                 	// #490
     aec:	90000064 	adrp	x4, c000 <PRIME_TABLE+0x8a0>
     af0:	9120a884 	add	x4, x4, #0x82a
     af4:	94001aae 	bl	75ac <trace_printf>
/home/pedro/devel/optee/optee_examples/HCEMobile/ta/dbstore_ta.c:492
     af8:	aa1303e0 	mov	x0, x19
     afc:	52800023 	mov	w3, #0x1                   	// #1
     b00:	52800042 	mov	w2, #0x2                   	// #2
     b04:	52803d81 	mov	w1, #0x1ec                 	// #492
     b08:	90000064 	adrp	x4, c000 <PRIME_TABLE+0x8a0>
     b0c:	91213884 	add	x4, x4, #0x84e
     b10:	94001aa7 	bl	75ac <trace_printf>
/home/pedro/devel/optee/optee_examples/HCEMobile/ta/dbstore_ta.c:493
     b14:	b9407ba1 	ldr	w1, [x29,#120]
     b18:	aa1603e5 	mov	x5, x22
     b1c:	aa1903e4 	mov	x4, x25
     b20:	910203a3 	add	x3, x29, #0x80
     b24:	aa1803e2 	mov	x2, x24
     b28:	aa1503e0 	mov	x0, x21
     b2c:	97fffee3 	bl	6b8 <encrypt_aes_ctr>
/home/pedro/devel/optee/optee_examples/HCEMobile/ta/dbstore_ta.c:494
     b30:	aa1303e0 	mov	x0, x19
     b34:	52800023 	mov	w3, #0x1                   	// #1
     b38:	52800042 	mov	w2, #0x2                   	// #2
     b3c:	52803dc1 	mov	w1, #0x1ee                 	// #494
     b40:	90000064 	adrp	x4, c000 <PRIME_TABLE+0x8a0>
     b44:	91221884 	add	x4, x4, #0x886
     b48:	94001a99 	bl	75ac <trace_printf>
/home/pedro/devel/optee/optee_examples/HCEMobile/ta/dbstore_ta.c:497
     b4c:	aa1303e0 	mov	x0, x19
     b50:	52800023 	mov	w3, #0x1                   	// #1
     b54:	52800042 	mov	w2, #0x2                   	// #2
     b58:	52803e21 	mov	w1, #0x1f1                 	// #497
     b5c:	90000064 	adrp	x4, c000 <PRIME_TABLE+0x8a0>
     b60:	9122bc84 	add	x4, x4, #0x8af
     b64:	94001a92 	bl	75ac <trace_printf>
/home/pedro/devel/optee/optee_examples/HCEMobile/ta/dbstore_ta.c:498
     b68:	9101f3a4 	add	x4, x29, #0x7c
     b6c:	aa1703e3 	mov	x3, x23
     b70:	aa1903e1 	mov	x1, x25
     b74:	52800202 	mov	w2, #0x10                  	// #16
     b78:	aa1a03e0 	mov	x0, x26
     b7c:	97fffe52 	bl	4c4 <encrypt_using_public_key>
/home/pedro/devel/optee/optee_examples/HCEMobile/ta/dbstore_ta.c:499
     b80:	52800023 	mov	w3, #0x1                   	// #1
     b84:	aa1303e0 	mov	x0, x19
     b88:	52800042 	mov	w2, #0x2                   	// #2
     b8c:	52803e61 	mov	w1, #0x1f3                 	// #499
     b90:	90000064 	adrp	x4, c000 <PRIME_TABLE+0x8a0>
     b94:	91236884 	add	x4, x4, #0x8da
     b98:	94001a85 	bl	75ac <trace_printf>
/home/pedro/devel/optee/optee_examples/HCEMobile/ta/dbstore_ta.c:501
     b9c:	b94083a2 	ldr	w2, [x29,#128]
     ba0:	aa1803e1 	mov	x1, x24
     ba4:	f9400280 	ldr	x0, [x20]
     ba8:	94000120 	bl	1028 <TEE_MemMove>
/home/pedro/devel/optee/optee_examples/HCEMobile/ta/dbstore_ta.c:502
     bac:	f9400a80 	ldr	x0, [x20,#16]
     bb0:	aa1703e1 	mov	x1, x23
     bb4:	52802002 	mov	w2, #0x100                 	// #256
     bb8:	9400011c 	bl	1028 <TEE_MemMove>
/home/pedro/devel/optee/optee_examples/HCEMobile/ta/dbstore_ta.c:503
     bbc:	f9401280 	ldr	x0, [x20,#32]
     bc0:	aa1603e1 	mov	x1, x22
     bc4:	52800202 	mov	w2, #0x10                  	// #16
     bc8:	94000118 	bl	1028 <TEE_MemMove>
/home/pedro/devel/optee/optee_examples/HCEMobile/ta/dbstore_ta.c:505
     bcc:	aa1303e0 	mov	x0, x19
     bd0:	52800023 	mov	w3, #0x1                   	// #1
     bd4:	52800042 	mov	w2, #0x2                   	// #2
     bd8:	52803f21 	mov	w1, #0x1f9                 	// #505
     bdc:	90000064 	adrp	x4, c000 <PRIME_TABLE+0x8a0>
     be0:	91240484 	add	x4, x4, #0x901
     be4:	94001a72 	bl	75ac <trace_printf>
/home/pedro/devel/optee/optee_examples/HCEMobile/ta/dbstore_ta.c:508
     be8:	a9407bfd 	ldp	x29, x30, [sp]
     bec:	52800000 	mov	w0, #0x0                   	// #0
     bf0:	a94153f3 	ldp	x19, x20, [sp,#16]
     bf4:	a9425bf5 	ldp	x21, x22, [sp,#32]
     bf8:	a94363f7 	ldp	x23, x24, [sp,#48]
     bfc:	a9446bf9 	ldp	x25, x26, [sp,#64]
     c00:	a94573fb 	ldp	x27, x28, [sp,#80]
     c04:	910e43ff 	add	sp, sp, #0x390
     c08:	d65f03c0 	ret

0000000000000c0c <TA_CreateEntryPoint>:
TA_CreateEntryPoint():
/home/pedro/devel/optee/optee_examples/HCEMobile/ta/dbstore_ta.c:358
     c0c:	a9bf7bfd 	stp	x29, x30, [sp,#-16]!
/home/pedro/devel/optee/optee_examples/HCEMobile/ta/dbstore_ta.c:359
     c10:	f0000040 	adrp	x0, b000 <mpa_set_oct_str+0x7c>
     c14:	91130000 	add	x0, x0, #0x4c0
     c18:	52800023 	mov	w3, #0x1                   	// #1
/home/pedro/devel/optee/optee_examples/HCEMobile/ta/dbstore_ta.c:358
     c1c:	910003fd 	mov	x29, sp
/home/pedro/devel/optee/optee_examples/HCEMobile/ta/dbstore_ta.c:359
     c20:	52800062 	mov	w2, #0x3                   	// #3
     c24:	52802ce1 	mov	w1, #0x167                 	// #359
     c28:	91018000 	add	x0, x0, #0x60
     c2c:	90000064 	adrp	x4, c000 <PRIME_TABLE+0x8a0>
     c30:	91130c84 	add	x4, x4, #0x4c3
     c34:	94001a5e 	bl	75ac <trace_printf>
/home/pedro/devel/optee/optee_examples/HCEMobile/ta/dbstore_ta.c:362
     c38:	52800000 	mov	w0, #0x0                   	// #0
     c3c:	a8c17bfd 	ldp	x29, x30, [sp],#16
     c40:	d65f03c0 	ret

0000000000000c44 <TA_DestroyEntryPoint>:
TA_DestroyEntryPoint():
/home/pedro/devel/optee/optee_examples/HCEMobile/ta/dbstore_ta.c:370
     c44:	f0000040 	adrp	x0, b000 <mpa_set_oct_str+0x7c>
     c48:	91130000 	add	x0, x0, #0x4c0
     c4c:	90000064 	adrp	x4, c000 <PRIME_TABLE+0x8a0>
     c50:	52800023 	mov	w3, #0x1                   	// #1
     c54:	91130c84 	add	x4, x4, #0x4c3
     c58:	52800062 	mov	w2, #0x3                   	// #3
     c5c:	52802e41 	mov	w1, #0x172                 	// #370
     c60:	9101e000 	add	x0, x0, #0x78
     c64:	14001a52 	b	75ac <trace_printf>

0000000000000c68 <TA_OpenSessionEntryPoint>:
TA_OpenSessionEntryPoint():
/home/pedro/devel/optee/optee_examples/HCEMobile/ta/dbstore_ta.c:382
     c68:	a9be7bfd 	stp	x29, x30, [sp,#-32]!
/home/pedro/devel/optee/optee_examples/HCEMobile/ta/dbstore_ta.c:388
     c6c:	90000064 	adrp	x4, c000 <PRIME_TABLE+0x8a0>
     c70:	52800023 	mov	w3, #0x1                   	// #1
     c74:	91130c84 	add	x4, x4, #0x4c3
/home/pedro/devel/optee/optee_examples/HCEMobile/ta/dbstore_ta.c:382
     c78:	910003fd 	mov	x29, sp
     c7c:	a90153f3 	stp	x19, x20, [sp,#16]
/home/pedro/devel/optee/optee_examples/HCEMobile/ta/dbstore_ta.c:388
     c80:	f0000053 	adrp	x19, b000 <mpa_set_oct_str+0x7c>
     c84:	91130273 	add	x19, x19, #0x4c0
/home/pedro/devel/optee/optee_examples/HCEMobile/ta/dbstore_ta.c:382
     c88:	2a0003f4 	mov	w20, w0
/home/pedro/devel/optee/optee_examples/HCEMobile/ta/dbstore_ta.c:388
     c8c:	91024273 	add	x19, x19, #0x90
     c90:	52800062 	mov	w2, #0x3                   	// #3
     c94:	aa1303e0 	mov	x0, x19
     c98:	52803081 	mov	w1, #0x184                 	// #388
     c9c:	94001a44 	bl	75ac <trace_printf>
/home/pedro/devel/optee/optee_examples/HCEMobile/ta/dbstore_ta.c:391
     ca0:	129fff20 	mov	w0, #0xffff0006            	// #-65530
/home/pedro/devel/optee/optee_examples/HCEMobile/ta/dbstore_ta.c:390
     ca4:	35000134 	cbnz	w20, cc8 <TA_OpenSessionEntryPoint+0x60>
/home/pedro/devel/optee/optee_examples/HCEMobile/ta/dbstore_ta.c:401
     ca8:	aa1303e0 	mov	x0, x19
     cac:	90000064 	adrp	x4, c000 <PRIME_TABLE+0x8a0>
     cb0:	52800023 	mov	w3, #0x1                   	// #1
     cb4:	91246084 	add	x4, x4, #0x918
     cb8:	52800042 	mov	w2, #0x2                   	// #2
     cbc:	52803221 	mov	w1, #0x191                 	// #401
     cc0:	94001a3b 	bl	75ac <trace_printf>
/home/pedro/devel/optee/optee_examples/HCEMobile/ta/dbstore_ta.c:404
     cc4:	52800000 	mov	w0, #0x0                   	// #0
/home/pedro/devel/optee/optee_examples/HCEMobile/ta/dbstore_ta.c:405
     cc8:	a94153f3 	ldp	x19, x20, [sp,#16]
     ccc:	a8c27bfd 	ldp	x29, x30, [sp],#32
     cd0:	d65f03c0 	ret

0000000000000cd4 <TA_CloseSessionEntryPoint>:
TA_CloseSessionEntryPoint():
/home/pedro/devel/optee/optee_examples/HCEMobile/ta/dbstore_ta.c:414
     cd4:	f0000040 	adrp	x0, b000 <mpa_set_oct_str+0x7c>
     cd8:	91130000 	add	x0, x0, #0x4c0
     cdc:	90000064 	adrp	x4, c000 <PRIME_TABLE+0x8a0>
     ce0:	52800023 	mov	w3, #0x1                   	// #1
     ce4:	9124ec84 	add	x4, x4, #0x93b
     ce8:	52800042 	mov	w2, #0x2                   	// #2
     cec:	528033c1 	mov	w1, #0x19e                 	// #414
     cf0:	9102c000 	add	x0, x0, #0xb0
     cf4:	14001a2e 	b	75ac <trace_printf>

0000000000000cf8 <TA_InvokeCommandEntryPoint>:
TA_InvokeCommandEntryPoint():
/home/pedro/devel/optee/optee_examples/HCEMobile/ta/dbstore_ta.c:588
     cf8:	2a0103e4 	mov	w4, w1
     cfc:	2a0203e0 	mov	w0, w2
     d00:	aa0303e1 	mov	x1, x3
/home/pedro/devel/optee/optee_examples/HCEMobile/ta/dbstore_ta.c:591
     d04:	340000a4 	cbz	w4, d18 <TA_InvokeCommandEntryPoint+0x20>
     d08:	7100049f 	cmp	w4, #0x1
     d0c:	54000080 	b.eq	d1c <TA_InvokeCommandEntryPoint+0x24>
/home/pedro/devel/optee/optee_examples/HCEMobile/ta/dbstore_ta.c:599
     d10:	129fff20 	mov	w0, #0xffff0006            	// #-65530
     d14:	d65f03c0 	ret
/home/pedro/devel/optee/optee_examples/HCEMobile/ta/dbstore_ta.c:593
     d18:	17fffee7 	b	8b4 <init>
/home/pedro/devel/optee/optee_examples/HCEMobile/ta/dbstore_ta.c:595
     d1c:	17fffcc1 	b	20 <inv>

0000000000000d20 <tahead_get_trace_level>:
tahead_get_trace_level():
/home/pedro/devel/optee/optee_os/out/arm/export-ta_arm64/src/user_ta_header.c:130
     d20:	52800080 	mov	w0, #0x4                   	// #4
     d24:	d65f03c0 	ret

0000000000000d28 <__utee_from_param>:
__utee_from_param():
/home/pedro/devel/optee/optee_os/lib/libutee/tee_api.c:48
     d28:	90000065 	adrp	x5, c000 <PRIME_TABLE+0x8a0>
     d2c:	9112d0a5 	add	x5, x5, #0x4b4
/home/pedro/devel/optee/optee_os/lib/libutee/tee_api.c:46
     d30:	2a0103e3 	mov	w3, w1
     d34:	52800004 	mov	w4, #0x0                   	// #0
     d38:	f8008403 	str	x3, [x0],#8
/home/pedro/devel/optee/optee_os/lib/libutee/tee_api.c:48
     d3c:	1ac42423 	lsr	w3, w1, w4
     d40:	12000c63 	and	w3, w3, #0xf
     d44:	51000463 	sub	w3, w3, #0x1
     d48:	7100187f 	cmp	w3, #0x6
     d4c:	54000268 	b.hi	d98 <__utee_from_param+0x70>
     d50:	386348a3 	ldrb	w3, [x5,w3,uxtw]
     d54:	10000066 	adr	x6, d60 <__utee_from_param+0x38>
     d58:	8b2388c3 	add	x3, x6, w3, sxtb #2
     d5c:	d61f0060 	br	x3
/home/pedro/devel/optee/optee_os/lib/libutee/tee_api.c:52
     d60:	b9400043 	ldr	w3, [x2]
     d64:	f9000003 	str	x3, [x0]
/home/pedro/devel/optee/optee_os/lib/libutee/tee_api.c:53
     d68:	b9400443 	ldr	w3, [x2,#4]
/home/pedro/devel/optee/optee_os/lib/libutee/tee_api.c:59
     d6c:	f9000403 	str	x3, [x0,#8]
     d70:	11001084 	add	w4, w4, #0x4
     d74:	91004042 	add	x2, x2, #0x10
     d78:	91004000 	add	x0, x0, #0x10
/home/pedro/devel/optee/optee_os/lib/libutee/tee_api.c:47 (discriminator 2)
     d7c:	7100409f 	cmp	w4, #0x10
     d80:	54fffde1 	b.ne	d3c <__utee_from_param+0x14>
/home/pedro/devel/optee/optee_os/lib/libutee/tee_api.c:67
     d84:	d65f03c0 	ret
/home/pedro/devel/optee/optee_os/lib/libutee/tee_api.c:58
     d88:	f9400043 	ldr	x3, [x2]
     d8c:	f9000003 	str	x3, [x0]
/home/pedro/devel/optee/optee_os/lib/libutee/tee_api.c:59
     d90:	b9400843 	ldr	w3, [x2,#8]
     d94:	17fffff6 	b	d6c <__utee_from_param+0x44>
/home/pedro/devel/optee/optee_os/lib/libutee/tee_api.c:63
     d98:	a9007c1f 	stp	xzr, xzr, [x0]
/home/pedro/devel/optee/optee_os/lib/libutee/tee_api.c:64
     d9c:	17fffff5 	b	d70 <__utee_from_param+0x48>

0000000000000da0 <__utee_to_param>:
__utee_to_param():
/home/pedro/devel/optee/optee_os/lib/libutee/tee_api.c:73
     da0:	f8408446 	ldr	x6, [x2],#8
/home/pedro/devel/optee/optee_os/lib/libutee/tee_api.c:79
     da4:	90000065 	adrp	x5, c000 <PRIME_TABLE+0x8a0>
     da8:	9112f0a5 	add	x5, x5, #0x4bc
/home/pedro/devel/optee/optee_os/lib/libutee/tee_api.c:73
     dac:	52800004 	mov	w4, #0x0                   	// #0
     db0:	2a0603e9 	mov	w9, w6
/home/pedro/devel/optee/optee_os/lib/libutee/tee_api.c:79
     db4:	1ac42523 	lsr	w3, w9, w4
     db8:	12000c63 	and	w3, w3, #0xf
     dbc:	51000463 	sub	w3, w3, #0x1
     dc0:	7100187f 	cmp	w3, #0x6
/home/pedro/devel/optee/optee_os/lib/libutee/tee_api.c:77
     dc4:	a9401c48 	ldp	x8, x7, [x2]
/home/pedro/devel/optee/optee_os/lib/libutee/tee_api.c:79
     dc8:	540000c8 	b.hi	de0 <__utee_to_param+0x40>
     dcc:	386348a3 	ldrb	w3, [x5,w3,uxtw]
     dd0:	1000006a 	adr	x10, ddc <__utee_to_param+0x3c>
     dd4:	8b238943 	add	x3, x10, w3, sxtb #2
     dd8:	d61f0060 	br	x3
/home/pedro/devel/optee/optee_os/lib/libutee/tee_api.c:84
     ddc:	29001c08 	stp	w8, w7, [x0]
     de0:	11001084 	add	w4, w4, #0x4
     de4:	91004042 	add	x2, x2, #0x10
     de8:	91004000 	add	x0, x0, #0x10
/home/pedro/devel/optee/optee_os/lib/libutee/tee_api.c:75 (discriminator 2)
     dec:	7100409f 	cmp	w4, #0x10
     df0:	54fffe21 	b.ne	db4 <__utee_to_param+0x14>
/home/pedro/devel/optee/optee_os/lib/libutee/tee_api.c:97
     df4:	b4000041 	cbz	x1, dfc <__utee_to_param+0x5c>
/home/pedro/devel/optee/optee_os/lib/libutee/tee_api.c:98
     df8:	b9000026 	str	w6, [x1]
     dfc:	d65f03c0 	ret
/home/pedro/devel/optee/optee_os/lib/libutee/tee_api.c:89
     e00:	f9000008 	str	x8, [x0]
/home/pedro/devel/optee/optee_os/lib/libutee/tee_api.c:90
     e04:	b9000807 	str	w7, [x0,#8]
/home/pedro/devel/optee/optee_os/lib/libutee/tee_api.c:91
     e08:	17fffff6 	b	de0 <__utee_to_param+0x40>

0000000000000e0c <TEE_OpenTASession>:
TEE_OpenTASession():
/home/pedro/devel/optee/optee_os/lib/libutee/tee_api.c:107
     e0c:	a9b77bfd 	stp	x29, x30, [sp,#-144]!
     e10:	910003fd 	mov	x29, sp
     e14:	a90153f3 	stp	x19, x20, [sp,#16]
/home/pedro/devel/optee/optee_os/lib/libutee/tee_api.c:112
     e18:	910123b3 	add	x19, x29, #0x48
/home/pedro/devel/optee/optee_os/lib/libutee/tee_api.c:107
     e1c:	a9025bf5 	stp	x21, x22, [sp,#32]
     e20:	aa0303f4 	mov	x20, x3
     e24:	a90363f7 	stp	x23, x24, [sp,#48]
     e28:	aa0003f6 	mov	x22, x0
     e2c:	aa0503f8 	mov	x24, x5
     e30:	2a0103f7 	mov	w23, w1
     e34:	aa0403f5 	mov	x21, x4
     e38:	2a0203e1 	mov	w1, w2
/home/pedro/devel/optee/optee_os/lib/libutee/tee_api.c:112
     e3c:	aa1303e0 	mov	x0, x19
     e40:	aa0303e2 	mov	x2, x3
     e44:	97ffffb9 	bl	d28 <__utee_from_param>
/home/pedro/devel/optee/optee_os/lib/libutee/tee_api.c:113
     e48:	aa1803e4 	mov	x4, x24
     e4c:	910113a3 	add	x3, x29, #0x44
     e50:	aa1303e2 	mov	x2, x19
     e54:	2a1703e1 	mov	w1, w23
     e58:	aa1603e0 	mov	x0, x22
     e5c:	94000dc9 	bl	4580 <utee_open_ta_session>
/home/pedro/devel/optee/optee_os/lib/libutee/tee_api.c:115
     e60:	aa1303e2 	mov	x2, x19
/home/pedro/devel/optee/optee_os/lib/libutee/tee_api.c:113
     e64:	2a0003f6 	mov	w22, w0
/home/pedro/devel/optee/optee_os/lib/libutee/tee_api.c:115
     e68:	d2800001 	mov	x1, #0x0                   	// #0
     e6c:	aa1403e0 	mov	x0, x20
     e70:	97ffffcc 	bl	da0 <__utee_to_param>
/home/pedro/devel/optee/optee_os/lib/libutee/tee_api.c:121
     e74:	34000056 	cbz	w22, e7c <TEE_OpenTASession+0x70>
/home/pedro/devel/optee/optee_os/lib/libutee/tee_api.c:122
     e78:	b90047bf 	str	wzr, [x29,#68]
/home/pedro/devel/optee/optee_os/lib/libutee/tee_api.c:124
     e7c:	b94047a0 	ldr	w0, [x29,#68]
/home/pedro/devel/optee/optee_os/lib/libutee/tee_api.c:126
     e80:	a94153f3 	ldp	x19, x20, [sp,#16]
     e84:	a94363f7 	ldp	x23, x24, [sp,#48]
/home/pedro/devel/optee/optee_os/lib/libutee/tee_api.c:124
     e88:	f90002a0 	str	x0, [x21]
/home/pedro/devel/optee/optee_os/lib/libutee/tee_api.c:126
     e8c:	2a1603e0 	mov	w0, w22
     e90:	a9425bf5 	ldp	x21, x22, [sp,#32]
     e94:	a8c97bfd 	ldp	x29, x30, [sp],#144
     e98:	d65f03c0 	ret

0000000000000e9c <TEE_CloseTASession>:
TEE_CloseTASession():
/home/pedro/devel/optee/optee_os/lib/libutee/tee_api.c:130
     e9c:	b4000120 	cbz	x0, ec0 <TEE_CloseTASession+0x24>
/home/pedro/devel/optee/optee_os/lib/libutee/tee_api.c:129
     ea0:	a9bf7bfd 	stp	x29, x30, [sp,#-16]!
     ea4:	910003fd 	mov	x29, sp
/home/pedro/devel/optee/optee_os/lib/libutee/tee_api.c:131
     ea8:	94000db9 	bl	458c <utee_close_ta_session>
/home/pedro/devel/optee/optee_os/lib/libutee/tee_api.c:133
     eac:	34000060 	cbz	w0, eb8 <TEE_CloseTASession+0x1c>
/home/pedro/devel/optee/optee_os/lib/libutee/tee_api.c:136
     eb0:	a8c17bfd 	ldp	x29, x30, [sp],#16
/home/pedro/devel/optee/optee_os/lib/libutee/tee_api.c:134
     eb4:	14000cf1 	b	4278 <TEE_Panic>
/home/pedro/devel/optee/optee_os/lib/libutee/tee_api.c:136
     eb8:	a8c17bfd 	ldp	x29, x30, [sp],#16
     ebc:	d65f03c0 	ret
     ec0:	d65f03c0 	ret

0000000000000ec4 <TEE_InvokeTACommand>:
TEE_InvokeTACommand():
/home/pedro/devel/optee/optee_os/lib/libutee/tee_api.c:143
     ec4:	a9b77bfd 	stp	x29, x30, [sp,#-144]!
     ec8:	910003fd 	mov	x29, sp
     ecc:	a90153f3 	stp	x19, x20, [sp,#16]
/home/pedro/devel/optee/optee_os/lib/libutee/tee_api.c:148
     ed0:	910123b4 	add	x20, x29, #0x48
/home/pedro/devel/optee/optee_os/lib/libutee/tee_api.c:143
     ed4:	a9025bf5 	stp	x21, x22, [sp,#32]
     ed8:	aa0003f3 	mov	x19, x0
     edc:	a90363f7 	stp	x23, x24, [sp,#48]
     ee0:	aa0403f6 	mov	x22, x4
     ee4:	aa0503f5 	mov	x21, x5
     ee8:	2a0103f7 	mov	w23, w1
     eec:	2a0203f8 	mov	w24, w2
/home/pedro/devel/optee/optee_os/lib/libutee/tee_api.c:148
     ef0:	2a0303e1 	mov	w1, w3
     ef4:	aa0403e2 	mov	x2, x4
     ef8:	aa1403e0 	mov	x0, x20
     efc:	97ffff8b 	bl	d28 <__utee_from_param>
/home/pedro/devel/optee/optee_os/lib/libutee/tee_api.c:149
     f00:	910113a4 	add	x4, x29, #0x44
     f04:	aa1403e3 	mov	x3, x20
     f08:	2a1803e2 	mov	w2, w24
     f0c:	2a1703e1 	mov	w1, w23
     f10:	aa1303e0 	mov	x0, x19
     f14:	94000da1 	bl	4598 <utee_invoke_ta_command>
/home/pedro/devel/optee/optee_os/lib/libutee/tee_api.c:152
     f18:	aa1403e2 	mov	x2, x20
/home/pedro/devel/optee/optee_os/lib/libutee/tee_api.c:149
     f1c:	2a0003f3 	mov	w19, w0
/home/pedro/devel/optee/optee_os/lib/libutee/tee_api.c:152
     f20:	d2800001 	mov	x1, #0x0                   	// #0
     f24:	aa1603e0 	mov	x0, x22
     f28:	97ffff9e 	bl	da0 <__utee_to_param>
     f2c:	b94047a0 	ldr	w0, [x29,#68]
/home/pedro/devel/optee/optee_os/lib/libutee/tee_api.c:154
     f30:	b4000055 	cbz	x21, f38 <TEE_InvokeTACommand+0x74>
/home/pedro/devel/optee/optee_os/lib/libutee/tee_api.c:155
     f34:	b90002a0 	str	w0, [x21]
/home/pedro/devel/optee/optee_os/lib/libutee/tee_api.c:157
     f38:	7100101f 	cmp	w0, #0x4
     f3c:	54000120 	b.eq	f60 <TEE_InvokeTACommand+0x9c>
/home/pedro/devel/optee/optee_os/lib/libutee/tee_api.c:161
     f40:	7100027f 	cmp	w19, #0x0
     f44:	129ffe60 	mov	w0, #0xffff000c            	// #-65524
     f48:	7a401264 	ccmp	w19, w0, #0x4, ne
     f4c:	1299fb60 	mov	w0, #0xffff3024            	// #-53212
     f50:	7a401264 	ccmp	w19, w0, #0x4, ne
     f54:	54000060 	b.eq	f60 <TEE_InvokeTACommand+0x9c>
/home/pedro/devel/optee/optee_os/lib/libutee/tee_api.c:163
     f58:	2a1303e0 	mov	w0, w19
     f5c:	94000cc7 	bl	4278 <TEE_Panic>
/home/pedro/devel/optee/optee_os/lib/libutee/tee_api.c:166
     f60:	2a1303e0 	mov	w0, w19
     f64:	a94153f3 	ldp	x19, x20, [sp,#16]
     f68:	a9425bf5 	ldp	x21, x22, [sp,#32]
     f6c:	a94363f7 	ldp	x23, x24, [sp,#48]
     f70:	a8c97bfd 	ldp	x29, x30, [sp],#144
     f74:	d65f03c0 	ret

0000000000000f78 <TEE_GetCancellationFlag>:
TEE_GetCancellationFlag():
/home/pedro/devel/optee/optee_os/lib/libutee/tee_api.c:171
     f78:	a9be7bfd 	stp	x29, x30, [sp,#-32]!
     f7c:	910003fd 	mov	x29, sp
/home/pedro/devel/optee/optee_os/lib/libutee/tee_api.c:173
     f80:	910073a0 	add	x0, x29, #0x1c
     f84:	94000d88 	bl	45a4 <utee_get_cancellation_flag>
/home/pedro/devel/optee/optee_os/lib/libutee/tee_api.c:175
     f88:	34000040 	cbz	w0, f90 <TEE_GetCancellationFlag+0x18>
/home/pedro/devel/optee/optee_os/lib/libutee/tee_api.c:176
     f8c:	b9001fbf 	str	wzr, [x29,#28]
/home/pedro/devel/optee/optee_os/lib/libutee/tee_api.c:177
     f90:	b9401fa0 	ldr	w0, [x29,#28]
/home/pedro/devel/optee/optee_os/lib/libutee/tee_api.c:178
     f94:	a8c27bfd 	ldp	x29, x30, [sp],#32
/home/pedro/devel/optee/optee_os/lib/libutee/tee_api.c:177
     f98:	7100001f 	cmp	w0, #0x0
/home/pedro/devel/optee/optee_os/lib/libutee/tee_api.c:178
     f9c:	1a9f07e0 	cset	w0, ne
     fa0:	d65f03c0 	ret

0000000000000fa4 <TEE_UnmaskCancellation>:
TEE_UnmaskCancellation():
/home/pedro/devel/optee/optee_os/lib/libutee/tee_api.c:181
     fa4:	a9be7bfd 	stp	x29, x30, [sp,#-32]!
     fa8:	910003fd 	mov	x29, sp
/home/pedro/devel/optee/optee_os/lib/libutee/tee_api.c:183
     fac:	910073a0 	add	x0, x29, #0x1c
     fb0:	94000d83 	bl	45bc <utee_unmask_cancellation>
/home/pedro/devel/optee/optee_os/lib/libutee/tee_api.c:185
     fb4:	34000040 	cbz	w0, fbc <TEE_UnmaskCancellation+0x18>
/home/pedro/devel/optee/optee_os/lib/libutee/tee_api.c:186
     fb8:	94000cb0 	bl	4278 <TEE_Panic>
/home/pedro/devel/optee/optee_os/lib/libutee/tee_api.c:187
     fbc:	b9401fa0 	ldr	w0, [x29,#28]
/home/pedro/devel/optee/optee_os/lib/libutee/tee_api.c:188
     fc0:	a8c27bfd 	ldp	x29, x30, [sp],#32
/home/pedro/devel/optee/optee_os/lib/libutee/tee_api.c:187
     fc4:	7100001f 	cmp	w0, #0x0
/home/pedro/devel/optee/optee_os/lib/libutee/tee_api.c:188
     fc8:	1a9f07e0 	cset	w0, ne
     fcc:	d65f03c0 	ret

0000000000000fd0 <TEE_MaskCancellation>:
TEE_MaskCancellation():
/home/pedro/devel/optee/optee_os/lib/libutee/tee_api.c:191
     fd0:	a9be7bfd 	stp	x29, x30, [sp,#-32]!
     fd4:	910003fd 	mov	x29, sp
/home/pedro/devel/optee/optee_os/lib/libutee/tee_api.c:193
     fd8:	910073a0 	add	x0, x29, #0x1c
     fdc:	94000d7b 	bl	45c8 <utee_mask_cancellation>
/home/pedro/devel/optee/optee_os/lib/libutee/tee_api.c:195
     fe0:	34000040 	cbz	w0, fe8 <TEE_MaskCancellation+0x18>
/home/pedro/devel/optee/optee_os/lib/libutee/tee_api.c:196
     fe4:	94000ca5 	bl	4278 <TEE_Panic>
/home/pedro/devel/optee/optee_os/lib/libutee/tee_api.c:197
     fe8:	b9401fa0 	ldr	w0, [x29,#28]
/home/pedro/devel/optee/optee_os/lib/libutee/tee_api.c:198
     fec:	a8c27bfd 	ldp	x29, x30, [sp],#32
/home/pedro/devel/optee/optee_os/lib/libutee/tee_api.c:197
     ff0:	7100001f 	cmp	w0, #0x0
/home/pedro/devel/optee/optee_os/lib/libutee/tee_api.c:198
     ff4:	1a9f07e0 	cset	w0, ne
     ff8:	d65f03c0 	ret

0000000000000ffc <TEE_CheckMemoryAccessRights>:
TEE_CheckMemoryAccessRights():
/home/pedro/devel/optee/optee_os/lib/libutee/tee_api.c:207
     ffc:	34000062 	cbz	w2, 1008 <TEE_CheckMemoryAccessRights+0xc>
/home/pedro/devel/optee/optee_os/lib/libutee/tee_api.c:211
    1000:	2a0203e2 	mov	w2, w2
    1004:	14000d6b 	b	45b0 <utee_check_access_rights>
/home/pedro/devel/optee/optee_os/lib/libutee/tee_api.c:223
    1008:	52800000 	mov	w0, #0x0                   	// #0
    100c:	d65f03c0 	ret

0000000000001010 <TEE_SetInstanceData>:
TEE_SetInstanceData():
/home/pedro/devel/optee/optee_os/lib/libutee/tee_api.c:227
    1010:	b00000a1 	adrp	x1, 16000 <ta_heap+0x7cc0>
    1014:	f901a020 	str	x0, [x1,#832]
    1018:	d65f03c0 	ret

000000000000101c <TEE_GetInstanceData>:
TEE_GetInstanceData():
/home/pedro/devel/optee/optee_os/lib/libutee/tee_api.c:233
    101c:	b00000a0 	adrp	x0, 16000 <ta_heap+0x7cc0>
    1020:	f941a000 	ldr	x0, [x0,#832]
    1024:	d65f03c0 	ret

0000000000001028 <TEE_MemMove>:
TEE_MemMove():
/home/pedro/devel/optee/optee_os/lib/libutee/tee_api.c:237
    1028:	2a0203e2 	mov	w2, w2
    102c:	14001606 	b	6844 <memmove>

0000000000001030 <TEE_MemCompare>:
TEE_MemCompare():
/home/pedro/devel/optee/optee_os/lib/libutee/tee_api.c:242
    1030:	2a0203e2 	mov	w2, w2
    1034:	140015ef 	b	67f0 <memcmp>

0000000000001038 <TEE_MemFill>:
TEE_MemFill():
/home/pedro/devel/optee/optee_os/lib/libutee/tee_api.c:247
    1038:	2a0203e2 	mov	w2, w2
    103c:	14001615 	b	6890 <memset>

0000000000001040 <TEE_GetSystemTime>:
TEE_GetSystemTime():
/home/pedro/devel/optee/optee_os/lib/libutee/tee_api.c:253
    1040:	a9bf7bfd 	stp	x29, x30, [sp,#-16]!
/home/pedro/devel/optee/optee_os/lib/libutee/tee_api.c:254
    1044:	aa0003e1 	mov	x1, x0
    1048:	d2800000 	mov	x0, #0x0                   	// #0
/home/pedro/devel/optee/optee_os/lib/libutee/tee_api.c:253
    104c:	910003fd 	mov	x29, sp
/home/pedro/devel/optee/optee_os/lib/libutee/tee_api.c:254
    1050:	94000d64 	bl	45e0 <utee_get_time>
/home/pedro/devel/optee/optee_os/lib/libutee/tee_api.c:256
    1054:	34000060 	cbz	w0, 1060 <TEE_GetSystemTime+0x20>
/home/pedro/devel/optee/optee_os/lib/libutee/tee_api.c:258
    1058:	a8c17bfd 	ldp	x29, x30, [sp],#16
/home/pedro/devel/optee/optee_os/lib/libutee/tee_api.c:257
    105c:	14000c87 	b	4278 <TEE_Panic>
/home/pedro/devel/optee/optee_os/lib/libutee/tee_api.c:258
    1060:	a8c17bfd 	ldp	x29, x30, [sp],#16
    1064:	d65f03c0 	ret

0000000000001068 <TEE_Wait>:
TEE_Wait():
/home/pedro/devel/optee/optee_os/lib/libutee/tee_api.c:261
    1068:	a9be7bfd 	stp	x29, x30, [sp,#-32]!
/home/pedro/devel/optee/optee_os/lib/libutee/tee_api.c:262
    106c:	2a0003e0 	mov	w0, w0
/home/pedro/devel/optee/optee_os/lib/libutee/tee_api.c:261
    1070:	910003fd 	mov	x29, sp
    1074:	f9000bf3 	str	x19, [sp,#16]
/home/pedro/devel/optee/optee_os/lib/libutee/tee_api.c:262
    1078:	94000d57 	bl	45d4 <utee_wait>
/home/pedro/devel/optee/optee_os/lib/libutee/tee_api.c:264
    107c:	7100001f 	cmp	w0, #0x0
    1080:	129fffa1 	mov	w1, #0xffff0002            	// #-65534
/home/pedro/devel/optee/optee_os/lib/libutee/tee_api.c:262
    1084:	2a0003f3 	mov	w19, w0
/home/pedro/devel/optee/optee_os/lib/libutee/tee_api.c:264
    1088:	7a411004 	ccmp	w0, w1, #0x4, ne
    108c:	54000040 	b.eq	1094 <TEE_Wait+0x2c>
/home/pedro/devel/optee/optee_os/lib/libutee/tee_api.c:265
    1090:	94000c7a 	bl	4278 <TEE_Panic>
/home/pedro/devel/optee/optee_os/lib/libutee/tee_api.c:268
    1094:	2a1303e0 	mov	w0, w19
    1098:	f9400bf3 	ldr	x19, [sp,#16]
    109c:	a8c27bfd 	ldp	x29, x30, [sp],#32
    10a0:	d65f03c0 	ret

00000000000010a4 <TEE_GetTAPersistentTime>:
TEE_GetTAPersistentTime():
/home/pedro/devel/optee/optee_os/lib/libutee/tee_api.c:271
    10a4:	a9be7bfd 	stp	x29, x30, [sp,#-32]!
/home/pedro/devel/optee/optee_os/lib/libutee/tee_api.c:274
    10a8:	aa0003e1 	mov	x1, x0
/home/pedro/devel/optee/optee_os/lib/libutee/tee_api.c:271
    10ac:	910003fd 	mov	x29, sp
    10b0:	a90153f3 	stp	x19, x20, [sp,#16]
    10b4:	aa0003f4 	mov	x20, x0
/home/pedro/devel/optee/optee_os/lib/libutee/tee_api.c:274
    10b8:	d2800020 	mov	x0, #0x1                   	// #1
    10bc:	94000d49 	bl	45e0 <utee_get_time>
/home/pedro/devel/optee/optee_os/lib/libutee/tee_api.c:276
    10c0:	7100001f 	cmp	w0, #0x0
/home/pedro/devel/optee/optee_os/lib/libutee/tee_api.c:274
    10c4:	2a0003f3 	mov	w19, w0
/home/pedro/devel/optee/optee_os/lib/libutee/tee_api.c:276
    10c8:	1a9f07e1 	cset	w1, ne
    10cc:	1299fe00 	mov	w0, #0xffff300f            	// #-53233
    10d0:	6b00027f 	cmp	w19, w0
    10d4:	1a9f07e0 	cset	w0, ne
    10d8:	6a00003f 	tst	w1, w0
    10dc:	54000040 	b.eq	10e4 <TEE_GetTAPersistentTime+0x40>
/home/pedro/devel/optee/optee_os/lib/libutee/tee_api.c:278
    10e0:	29007e9f 	stp	wzr, wzr, [x20]
/home/pedro/devel/optee/optee_os/lib/libutee/tee_api.c:282
    10e4:	11402e62 	add	w2, w19, #0xb, lsl #12
    10e8:	7100045f 	cmp	w2, #0x1
    10ec:	1a9f97e2 	cset	w2, hi
/home/pedro/devel/optee/optee_os/lib/libutee/tee_api.c:281
    10f0:	6a02003f 	tst	w1, w2
    10f4:	54000100 	b.eq	1114 <TEE_GetTAPersistentTime+0x70>
/home/pedro/devel/optee/optee_os/lib/libutee/tee_api.c:284
    10f8:	129ffe61 	mov	w1, #0xffff000c            	// #-65524
    10fc:	6b01027f 	cmp	w19, w1
    1100:	1a9f07e1 	cset	w1, ne
    1104:	6a01001f 	tst	w0, w1
    1108:	54000060 	b.eq	1114 <TEE_GetTAPersistentTime+0x70>
/home/pedro/devel/optee/optee_os/lib/libutee/tee_api.c:286
    110c:	2a1303e0 	mov	w0, w19
    1110:	94000c5a 	bl	4278 <TEE_Panic>
/home/pedro/devel/optee/optee_os/lib/libutee/tee_api.c:289
    1114:	2a1303e0 	mov	w0, w19
    1118:	a94153f3 	ldp	x19, x20, [sp,#16]
    111c:	a8c27bfd 	ldp	x29, x30, [sp],#32
    1120:	d65f03c0 	ret

0000000000001124 <TEE_SetTAPersistentTime>:
TEE_SetTAPersistentTime():
/home/pedro/devel/optee/optee_os/lib/libutee/tee_api.c:292
    1124:	a9be7bfd 	stp	x29, x30, [sp,#-32]!
    1128:	910003fd 	mov	x29, sp
    112c:	f9000bf3 	str	x19, [sp,#16]
/home/pedro/devel/optee/optee_os/lib/libutee/tee_api.c:295
    1130:	94000d2f 	bl	45ec <utee_set_ta_time>
/home/pedro/devel/optee/optee_os/lib/libutee/tee_api.c:298
    1134:	7100001f 	cmp	w0, #0x0
    1138:	129ffe61 	mov	w1, #0xffff000c            	// #-65524
    113c:	7a411004 	ccmp	w0, w1, #0x4, ne
/home/pedro/devel/optee/optee_os/lib/libutee/tee_api.c:295
    1140:	2a0003f3 	mov	w19, w0
/home/pedro/devel/optee/optee_os/lib/libutee/tee_api.c:298
    1144:	1299f7c1 	mov	w1, #0xffff3041            	// #-53183
    1148:	7a411004 	ccmp	w0, w1, #0x4, ne
    114c:	54000040 	b.eq	1154 <TEE_SetTAPersistentTime+0x30>
/home/pedro/devel/optee/optee_os/lib/libutee/tee_api.c:300
    1150:	94000c4a 	bl	4278 <TEE_Panic>
/home/pedro/devel/optee/optee_os/lib/libutee/tee_api.c:303
    1154:	2a1303e0 	mov	w0, w19
    1158:	f9400bf3 	ldr	x19, [sp,#16]
    115c:	a8c27bfd 	ldp	x29, x30, [sp],#32
    1160:	d65f03c0 	ret

0000000000001164 <TEE_GetREETime>:
TEE_GetREETime():
/home/pedro/devel/optee/optee_os/lib/libutee/tee_api.c:306
    1164:	a9bf7bfd 	stp	x29, x30, [sp,#-16]!
/home/pedro/devel/optee/optee_os/lib/libutee/tee_api.c:307
    1168:	aa0003e1 	mov	x1, x0
    116c:	d2800040 	mov	x0, #0x2                   	// #2
/home/pedro/devel/optee/optee_os/lib/libutee/tee_api.c:306
    1170:	910003fd 	mov	x29, sp
/home/pedro/devel/optee/optee_os/lib/libutee/tee_api.c:307
    1174:	94000d1b 	bl	45e0 <utee_get_time>
/home/pedro/devel/optee/optee_os/lib/libutee/tee_api.c:309
    1178:	34000060 	cbz	w0, 1184 <TEE_GetREETime+0x20>
/home/pedro/devel/optee/optee_os/lib/libutee/tee_api.c:311
    117c:	a8c17bfd 	ldp	x29, x30, [sp],#16
/home/pedro/devel/optee/optee_os/lib/libutee/tee_api.c:310
    1180:	14000c3e 	b	4278 <TEE_Panic>
/home/pedro/devel/optee/optee_os/lib/libutee/tee_api.c:311
    1184:	a8c17bfd 	ldp	x29, x30, [sp],#16
    1188:	d65f03c0 	ret

000000000000118c <TEE_Malloc>:
TEE_Malloc():
/home/pedro/devel/optee/optee_os/lib/libutee/tee_api.c:315
    118c:	2a0003e0 	mov	w0, w0
    1190:	14000e1a 	b	49f8 <tee_user_mem_alloc>

0000000000001194 <TEE_Realloc>:
TEE_Realloc():
/home/pedro/devel/optee/optee_os/lib/libutee/tee_api.c:324
    1194:	2a0103e1 	mov	w1, w1
    1198:	14000ebc 	b	4c88 <tee_user_mem_realloc>

000000000000119c <TEE_Free>:
TEE_Free():
/home/pedro/devel/optee/optee_os/lib/libutee/tee_api.c:329
    119c:	14000e6a 	b	4b44 <tee_user_mem_free>

00000000000011a0 <TEE_CacheClean>:
TEE_CacheClean():
/home/pedro/devel/optee/optee_os/lib/libutee/tee_api.c:335
    11a0:	d2800002 	mov	x2, #0x0                   	// #0
    11a4:	14000dba 	b	488c <utee_cache_operation>

00000000000011a8 <TEE_CacheFlush>:
TEE_CacheFlush():
/home/pedro/devel/optee/optee_os/lib/libutee/tee_api.c:339
    11a8:	d2800022 	mov	x2, #0x1                   	// #1
    11ac:	14000db8 	b	488c <utee_cache_operation>

00000000000011b0 <TEE_CacheInvalidate>:
TEE_CacheInvalidate():
/home/pedro/devel/optee/optee_os/lib/libutee/tee_api.c:344
    11b0:	d2800042 	mov	x2, #0x2                   	// #2
    11b4:	14000db6 	b	488c <utee_cache_operation>

00000000000011b8 <__utee_from_attr>:
__utee_from_attr():
/home/pedro/devel/optee/optee_os/lib/libutee/tee_api_objects.c:42
    11b8:	52800303 	mov	w3, #0x18                  	// #24
    11bc:	9ba30442 	umaddl	x2, w2, w3, x1
/home/pedro/devel/optee/optee_os/lib/libutee/tee_api_objects.c:45 (discriminator 1)
    11c0:	eb02003f 	cmp	x1, x2
    11c4:	54000041 	b.ne	11cc <__utee_from_attr+0x14>
/home/pedro/devel/optee/optee_os/lib/libutee/tee_api_objects.c:55
    11c8:	d65f03c0 	ret
/home/pedro/devel/optee/optee_os/lib/libutee/tee_api_objects.c:46
    11cc:	b9400023 	ldr	w3, [x1]
    11d0:	b9001003 	str	w3, [x0,#16]
/home/pedro/devel/optee/optee_os/lib/libutee/tee_api_objects.c:47
    11d4:	36e80103 	tbz	w3, #29, 11f4 <__utee_from_attr+0x3c>
/home/pedro/devel/optee/optee_os/lib/libutee/tee_api_objects.c:48
    11d8:	b9400823 	ldr	w3, [x1,#8]
    11dc:	f9000003 	str	x3, [x0]
/home/pedro/devel/optee/optee_os/lib/libutee/tee_api_objects.c:49
    11e0:	b9400c23 	ldr	w3, [x1,#12]
/home/pedro/devel/optee/optee_os/lib/libutee/tee_api_objects.c:52
    11e4:	f9000403 	str	x3, [x0,#8]
    11e8:	91006021 	add	x1, x1, #0x18
    11ec:	91006000 	add	x0, x0, #0x18
    11f0:	17fffff4 	b	11c0 <__utee_from_attr+0x8>
/home/pedro/devel/optee/optee_os/lib/libutee/tee_api_objects.c:51
    11f4:	f9400423 	ldr	x3, [x1,#8]
    11f8:	f9000003 	str	x3, [x0]
/home/pedro/devel/optee/optee_os/lib/libutee/tee_api_objects.c:52
    11fc:	b9401023 	ldr	w3, [x1,#16]
    1200:	17fffff9 	b	11e4 <__utee_from_attr+0x2c>

0000000000001204 <TEE_GetObjectInfo>:
TEE_GetObjectInfo():
/home/pedro/devel/optee/optee_os/lib/libutee/tee_api_objects.c:65
    1204:	a9be7bfd 	stp	x29, x30, [sp,#-32]!
    1208:	910003fd 	mov	x29, sp
    120c:	f9000bf3 	str	x19, [sp,#16]
    1210:	aa0103f3 	mov	x19, x1
/home/pedro/devel/optee/optee_os/lib/libutee/tee_api_objects.c:68
    1214:	94000d14 	bl	4664 <utee_cryp_obj_get_info>
/home/pedro/devel/optee/optee_os/lib/libutee/tee_api_objects.c:70
    1218:	34000040 	cbz	w0, 1220 <TEE_GetObjectInfo+0x1c>
/home/pedro/devel/optee/optee_os/lib/libutee/tee_api_objects.c:71
    121c:	94000c17 	bl	4278 <TEE_Panic>
/home/pedro/devel/optee/optee_os/lib/libutee/tee_api_objects.c:73
    1220:	b9400261 	ldr	w1, [x19]
    1224:	528017c0 	mov	w0, #0xbe                  	// #190
    1228:	72b40000 	movk	w0, #0xa000, lsl #16
    122c:	6b00003f 	cmp	w1, w0
    1230:	54000081 	b.ne	1240 <TEE_GetObjectInfo+0x3c>
/home/pedro/devel/optee/optee_os/lib/libutee/tee_api_objects.c:75
    1234:	2900fe7f 	stp	wzr, wzr, [x19,#4]
/home/pedro/devel/optee/optee_os/lib/libutee/tee_api_objects.c:77
    1238:	2901fe7f 	stp	wzr, wzr, [x19,#12]
/home/pedro/devel/optee/optee_os/lib/libutee/tee_api_objects.c:79
    123c:	2902fe7f 	stp	wzr, wzr, [x19,#20]
/home/pedro/devel/optee/optee_os/lib/libutee/tee_api_objects.c:81
    1240:	f9400bf3 	ldr	x19, [sp,#16]
    1244:	a8c27bfd 	ldp	x29, x30, [sp],#32
    1248:	d65f03c0 	ret

000000000000124c <TEE_GetObjectInfo1>:
TEE_GetObjectInfo1():
/home/pedro/devel/optee/optee_os/lib/libutee/tee_api_objects.c:84
    124c:	a9be7bfd 	stp	x29, x30, [sp,#-32]!
    1250:	910003fd 	mov	x29, sp
    1254:	f9000bf3 	str	x19, [sp,#16]
/home/pedro/devel/optee/optee_os/lib/libutee/tee_api_objects.c:87
    1258:	94000d03 	bl	4664 <utee_cryp_obj_get_info>
/home/pedro/devel/optee/optee_os/lib/libutee/tee_api_objects.c:90
    125c:	52800021 	mov	w1, #0x1                   	// #1
    1260:	121e7802 	and	w2, w0, #0xfffffffd
    1264:	7100001f 	cmp	w0, #0x0
    1268:	72be0201 	movk	w1, #0xf010, lsl #16
/home/pedro/devel/optee/optee_os/lib/libutee/tee_api_objects.c:87
    126c:	2a0003f3 	mov	w19, w0
/home/pedro/devel/optee/optee_os/lib/libutee/tee_api_objects.c:90
    1270:	7a411044 	ccmp	w2, w1, #0x4, ne
    1274:	54000040 	b.eq	127c <TEE_GetObjectInfo1+0x30>
/home/pedro/devel/optee/optee_os/lib/libutee/tee_api_objects.c:92
    1278:	94000c00 	bl	4278 <TEE_Panic>
/home/pedro/devel/optee/optee_os/lib/libutee/tee_api_objects.c:95
    127c:	2a1303e0 	mov	w0, w19
    1280:	f9400bf3 	ldr	x19, [sp,#16]
    1284:	a8c27bfd 	ldp	x29, x30, [sp],#32
    1288:	d65f03c0 	ret

000000000000128c <TEE_RestrictObjectUsage1>:
TEE_RestrictObjectUsage1():
/home/pedro/devel/optee/optee_os/lib/libutee/tee_api_objects.c:119
    128c:	a9be7bfd 	stp	x29, x30, [sp,#-32]!
/home/pedro/devel/optee/optee_os/lib/libutee/tee_api_objects.c:122
    1290:	2a0103e1 	mov	w1, w1
/home/pedro/devel/optee/optee_os/lib/libutee/tee_api_objects.c:119
    1294:	910003fd 	mov	x29, sp
    1298:	f9000bf3 	str	x19, [sp,#16]
/home/pedro/devel/optee/optee_os/lib/libutee/tee_api_objects.c:122
    129c:	94000cf5 	bl	4670 <utee_cryp_obj_restrict_usage>
/home/pedro/devel/optee/optee_os/lib/libutee/tee_api_objects.c:125
    12a0:	52800021 	mov	w1, #0x1                   	// #1
    12a4:	121e7802 	and	w2, w0, #0xfffffffd
    12a8:	7100001f 	cmp	w0, #0x0
    12ac:	72be0201 	movk	w1, #0xf010, lsl #16
/home/pedro/devel/optee/optee_os/lib/libutee/tee_api_objects.c:122
    12b0:	2a0003f3 	mov	w19, w0
/home/pedro/devel/optee/optee_os/lib/libutee/tee_api_objects.c:125
    12b4:	7a411044 	ccmp	w2, w1, #0x4, ne
    12b8:	54000040 	b.eq	12c0 <TEE_RestrictObjectUsage1+0x34>
/home/pedro/devel/optee/optee_os/lib/libutee/tee_api_objects.c:127
    12bc:	94000bef 	bl	4278 <TEE_Panic>
/home/pedro/devel/optee/optee_os/lib/libutee/tee_api_objects.c:130
    12c0:	2a1303e0 	mov	w0, w19
    12c4:	f9400bf3 	ldr	x19, [sp,#16]
    12c8:	a8c27bfd 	ldp	x29, x30, [sp],#32
    12cc:	d65f03c0 	ret

00000000000012d0 <TEE_RestrictObjectUsage>:
TEE_RestrictObjectUsage():
/home/pedro/devel/optee/optee_os/lib/libutee/tee_api_objects.c:104
    12d0:	a9bc7bfd 	stp	x29, x30, [sp,#-64]!
    12d4:	910003fd 	mov	x29, sp
    12d8:	a90153f3 	stp	x19, x20, [sp,#16]
    12dc:	aa0003f3 	mov	x19, x0
    12e0:	2a0103f4 	mov	w20, w1
/home/pedro/devel/optee/optee_os/lib/libutee/tee_api_objects.c:108
    12e4:	910083a1 	add	x1, x29, #0x20
    12e8:	94000cdf 	bl	4664 <utee_cryp_obj_get_info>
/home/pedro/devel/optee/optee_os/lib/libutee/tee_api_objects.c:109
    12ec:	b94023a1 	ldr	w1, [x29,#32]
    12f0:	528017c0 	mov	w0, #0xbe                  	// #190
    12f4:	72b40000 	movk	w0, #0xa000, lsl #16
    12f8:	6b00003f 	cmp	w1, w0
    12fc:	540000c0 	b.eq	1314 <TEE_RestrictObjectUsage+0x44>
/home/pedro/devel/optee/optee_os/lib/libutee/tee_api_objects.c:112
    1300:	2a1403e1 	mov	w1, w20
    1304:	aa1303e0 	mov	x0, x19
    1308:	97ffffe1 	bl	128c <TEE_RestrictObjectUsage1>
/home/pedro/devel/optee/optee_os/lib/libutee/tee_api_objects.c:114
    130c:	34000040 	cbz	w0, 1314 <TEE_RestrictObjectUsage+0x44>
/home/pedro/devel/optee/optee_os/lib/libutee/tee_api_objects.c:115
    1310:	94000bda 	bl	4278 <TEE_Panic>
/home/pedro/devel/optee/optee_os/lib/libutee/tee_api_objects.c:116
    1314:	a94153f3 	ldp	x19, x20, [sp,#16]
    1318:	a8c47bfd 	ldp	x29, x30, [sp],#64
    131c:	d65f03c0 	ret

0000000000001320 <TEE_GetObjectBufferAttribute>:
TEE_GetObjectBufferAttribute():
/home/pedro/devel/optee/optee_os/lib/libutee/tee_api_objects.c:135
    1320:	a9b97bfd 	stp	x29, x30, [sp,#-112]!
    1324:	910003fd 	mov	x29, sp
    1328:	a90153f3 	stp	x19, x20, [sp,#16]
    132c:	aa0303f4 	mov	x20, x3
    1330:	a9025bf5 	stp	x21, x22, [sp,#32]
    1334:	aa0003f6 	mov	x22, x0
    1338:	f9001bf7 	str	x23, [sp,#48]
    133c:	2a0103f5 	mov	w21, w1
    1340:	aa0203f7 	mov	x23, x2
/home/pedro/devel/optee/optee_os/lib/libutee/tee_api_objects.c:140
    1344:	910143a1 	add	x1, x29, #0x50
    1348:	94000cc7 	bl	4664 <utee_cryp_obj_get_info>
    134c:	2a0003f3 	mov	w19, w0
/home/pedro/devel/optee/optee_os/lib/libutee/tee_api_objects.c:141
    1350:	350001a0 	cbnz	w0, 1384 <TEE_GetObjectBufferAttribute+0x64>
/home/pedro/devel/optee/optee_os/lib/libutee/tee_api_objects.c:146
    1354:	129fff33 	mov	w19, #0xffff0006            	// #-65530
/home/pedro/devel/optee/optee_os/lib/libutee/tee_api_objects.c:145
    1358:	37e80175 	tbnz	w21, #29, 1384 <TEE_GetObjectBufferAttribute+0x64>
/home/pedro/devel/optee/optee_os/lib/libutee/tee_api_objects.c:150
    135c:	9101c3a3 	add	x3, x29, #0x70
    1360:	b9400280 	ldr	w0, [x20]
/home/pedro/devel/optee/optee_os/lib/libutee/tee_api_objects.c:151
    1364:	aa1703e2 	mov	x2, x23
    1368:	2a1503e1 	mov	w1, w21
/home/pedro/devel/optee/optee_os/lib/libutee/tee_api_objects.c:150
    136c:	f81d8c60 	str	x0, [x3,#-40]!
/home/pedro/devel/optee/optee_os/lib/libutee/tee_api_objects.c:151
    1370:	aa1603e0 	mov	x0, x22
    1374:	94000cc2 	bl	467c <utee_cryp_obj_get_attr>
    1378:	2a0003f3 	mov	w19, w0
/home/pedro/devel/optee/optee_os/lib/libutee/tee_api_objects.c:153
    137c:	f94027a0 	ldr	x0, [x29,#72]
    1380:	b9000280 	str	w0, [x20]
/home/pedro/devel/optee/optee_os/lib/libutee/tee_api_objects.c:157
    1384:	529fff00 	mov	w0, #0xfff8                	// #65528
    1388:	0b000260 	add	w0, w19, w0
/home/pedro/devel/optee/optee_os/lib/libutee/tee_api_objects.c:156
    138c:	721c781f 	tst	w0, #0xfffffff7
    1390:	7a401a64 	ccmp	w19, #0x0, #0x4, ne
    1394:	54000100 	b.eq	13b4 <TEE_GetObjectBufferAttribute+0x94>
/home/pedro/devel/optee/optee_os/lib/libutee/tee_api_objects.c:159
    1398:	121e7a61 	and	w1, w19, #0xfffffffd
    139c:	52800020 	mov	w0, #0x1                   	// #1
    13a0:	72be0200 	movk	w0, #0xf010, lsl #16
    13a4:	6b00003f 	cmp	w1, w0
    13a8:	54000060 	b.eq	13b4 <TEE_GetObjectBufferAttribute+0x94>
/home/pedro/devel/optee/optee_os/lib/libutee/tee_api_objects.c:161
    13ac:	2a1303e0 	mov	w0, w19
    13b0:	94000bb2 	bl	4278 <TEE_Panic>
/home/pedro/devel/optee/optee_os/lib/libutee/tee_api_objects.c:164
    13b4:	2a1303e0 	mov	w0, w19
    13b8:	f9401bf7 	ldr	x23, [sp,#48]
    13bc:	a94153f3 	ldp	x19, x20, [sp,#16]
    13c0:	a9425bf5 	ldp	x21, x22, [sp,#32]
    13c4:	a8c77bfd 	ldp	x29, x30, [sp],#112
    13c8:	d65f03c0 	ret

00000000000013cc <TEE_GetObjectValueAttribute>:
TEE_GetObjectValueAttribute():
/home/pedro/devel/optee/optee_os/lib/libutee/tee_api_objects.c:169
    13cc:	a9b97bfd 	stp	x29, x30, [sp,#-112]!
    13d0:	910003fd 	mov	x29, sp
    13d4:	a9025bf5 	stp	x21, x22, [sp,#32]
    13d8:	2a0103f6 	mov	w22, w1
/home/pedro/devel/optee/optee_os/lib/libutee/tee_api_objects.c:173
    13dc:	d2800101 	mov	x1, #0x8                   	// #8
/home/pedro/devel/optee/optee_os/lib/libutee/tee_api_objects.c:169
    13e0:	a90153f3 	stp	x19, x20, [sp,#16]
/home/pedro/devel/optee/optee_os/lib/libutee/tee_api_objects.c:173
    13e4:	f90027a1 	str	x1, [x29,#72]
/home/pedro/devel/optee/optee_os/lib/libutee/tee_api_objects.c:169
    13e8:	aa0203f5 	mov	x21, x2
    13ec:	f9001bf7 	str	x23, [sp,#48]
    13f0:	aa0303f4 	mov	x20, x3
/home/pedro/devel/optee/optee_os/lib/libutee/tee_api_objects.c:175
    13f4:	910143a1 	add	x1, x29, #0x50
/home/pedro/devel/optee/optee_os/lib/libutee/tee_api_objects.c:169
    13f8:	aa0003f7 	mov	x23, x0
/home/pedro/devel/optee/optee_os/lib/libutee/tee_api_objects.c:175
    13fc:	94000c9a 	bl	4664 <utee_cryp_obj_get_info>
    1400:	2a0003f3 	mov	w19, w0
/home/pedro/devel/optee/optee_os/lib/libutee/tee_api_objects.c:176
    1404:	35000120 	cbnz	w0, 1428 <TEE_GetObjectValueAttribute+0x5c>
/home/pedro/devel/optee/optee_os/lib/libutee/tee_api_objects.c:181
    1408:	129fff33 	mov	w19, #0xffff0006            	// #-65530
/home/pedro/devel/optee/optee_os/lib/libutee/tee_api_objects.c:180
    140c:	36e800f6 	tbz	w22, #29, 1428 <TEE_GetObjectValueAttribute+0x5c>
/home/pedro/devel/optee/optee_os/lib/libutee/tee_api_objects.c:185
    1410:	910123a3 	add	x3, x29, #0x48
    1414:	910103a2 	add	x2, x29, #0x40
    1418:	2a1603e1 	mov	w1, w22
    141c:	aa1703e0 	mov	x0, x23
    1420:	94000c97 	bl	467c <utee_cryp_obj_get_attr>
    1424:	2a0003f3 	mov	w19, w0
/home/pedro/devel/optee/optee_os/lib/libutee/tee_api_objects.c:189
    1428:	7100027f 	cmp	w19, #0x0
    142c:	129ffee0 	mov	w0, #0xffff0008            	// #-65528
    1430:	7a401264 	ccmp	w19, w0, #0x4, ne
    1434:	54000100 	b.eq	1454 <TEE_GetObjectValueAttribute+0x88>
/home/pedro/devel/optee/optee_os/lib/libutee/tee_api_objects.c:191
    1438:	121e7a61 	and	w1, w19, #0xfffffffd
    143c:	52800020 	mov	w0, #0x1                   	// #1
    1440:	72be0200 	movk	w0, #0xf010, lsl #16
    1444:	6b00003f 	cmp	w1, w0
    1448:	54000060 	b.eq	1454 <TEE_GetObjectValueAttribute+0x88>
/home/pedro/devel/optee/optee_os/lib/libutee/tee_api_objects.c:193
    144c:	2a1303e0 	mov	w0, w19
    1450:	94000b8a 	bl	4278 <TEE_Panic>
/home/pedro/devel/optee/optee_os/lib/libutee/tee_api_objects.c:195
    1454:	f94027a0 	ldr	x0, [x29,#72]
    1458:	f100201f 	cmp	x0, #0x8
    145c:	54000060 	b.eq	1468 <TEE_GetObjectValueAttribute+0x9c>
/home/pedro/devel/optee/optee_os/lib/libutee/tee_api_objects.c:196
    1460:	52800000 	mov	w0, #0x0                   	// #0
    1464:	94000b85 	bl	4278 <TEE_Panic>
/home/pedro/devel/optee/optee_os/lib/libutee/tee_api_objects.c:198
    1468:	350000f3 	cbnz	w19, 1484 <TEE_GetObjectValueAttribute+0xb8>
/home/pedro/devel/optee/optee_os/lib/libutee/tee_api_objects.c:199
    146c:	b4000075 	cbz	x21, 1478 <TEE_GetObjectValueAttribute+0xac>
/home/pedro/devel/optee/optee_os/lib/libutee/tee_api_objects.c:200
    1470:	b94043a0 	ldr	w0, [x29,#64]
    1474:	b90002a0 	str	w0, [x21]
/home/pedro/devel/optee/optee_os/lib/libutee/tee_api_objects.c:201
    1478:	b4000074 	cbz	x20, 1484 <TEE_GetObjectValueAttribute+0xb8>
/home/pedro/devel/optee/optee_os/lib/libutee/tee_api_objects.c:202
    147c:	b94047a0 	ldr	w0, [x29,#68]
    1480:	b9000280 	str	w0, [x20]
/home/pedro/devel/optee/optee_os/lib/libutee/tee_api_objects.c:206
    1484:	2a1303e0 	mov	w0, w19
    1488:	f9401bf7 	ldr	x23, [sp,#48]
    148c:	a94153f3 	ldp	x19, x20, [sp,#16]
    1490:	a9425bf5 	ldp	x21, x22, [sp,#32]
    1494:	a8c77bfd 	ldp	x29, x30, [sp],#112
    1498:	d65f03c0 	ret

000000000000149c <TEE_CloseObject>:
TEE_CloseObject():
/home/pedro/devel/optee/optee_os/lib/libutee/tee_api_objects.c:212
    149c:	b4000120 	cbz	x0, 14c0 <TEE_CloseObject+0x24>
/home/pedro/devel/optee/optee_os/lib/libutee/tee_api_objects.c:209
    14a0:	a9bf7bfd 	stp	x29, x30, [sp,#-16]!
    14a4:	910003fd 	mov	x29, sp
/home/pedro/devel/optee/optee_os/lib/libutee/tee_api_objects.c:215
    14a8:	94000c7b 	bl	4694 <utee_cryp_obj_close>
/home/pedro/devel/optee/optee_os/lib/libutee/tee_api_objects.c:216
    14ac:	34000060 	cbz	w0, 14b8 <TEE_CloseObject+0x1c>
/home/pedro/devel/optee/optee_os/lib/libutee/tee_api_objects.c:218
    14b0:	a8c17bfd 	ldp	x29, x30, [sp],#16
/home/pedro/devel/optee/optee_os/lib/libutee/tee_api_objects.c:217
    14b4:	14000b71 	b	4278 <TEE_Panic>
/home/pedro/devel/optee/optee_os/lib/libutee/tee_api_objects.c:218
    14b8:	a8c17bfd 	ldp	x29, x30, [sp],#16
    14bc:	d65f03c0 	ret
    14c0:	d65f03c0 	ret

00000000000014c4 <TEE_AllocateTransientObject>:
TEE_AllocateTransientObject():
/home/pedro/devel/optee/optee_os/lib/libutee/tee_api_objects.c:225
    14c4:	a9bd7bfd 	stp	x29, x30, [sp,#-48]!
/home/pedro/devel/optee/optee_os/lib/libutee/tee_api_objects.c:229
    14c8:	2a0103e1 	mov	w1, w1
    14cc:	2a0003e0 	mov	w0, w0
/home/pedro/devel/optee/optee_os/lib/libutee/tee_api_objects.c:225
    14d0:	910003fd 	mov	x29, sp
    14d4:	a90153f3 	stp	x19, x20, [sp,#16]
    14d8:	aa0203f4 	mov	x20, x2
/home/pedro/devel/optee/optee_os/lib/libutee/tee_api_objects.c:229
    14dc:	9100b3a2 	add	x2, x29, #0x2c
    14e0:	94000c6a 	bl	4688 <utee_cryp_obj_alloc>
/home/pedro/devel/optee/optee_os/lib/libutee/tee_api_objects.c:231
    14e4:	7100001f 	cmp	w0, #0x0
    14e8:	129ffe61 	mov	w1, #0xffff000c            	// #-65524
/home/pedro/devel/optee/optee_os/lib/libutee/tee_api_objects.c:229
    14ec:	2a0003f3 	mov	w19, w0
/home/pedro/devel/optee/optee_os/lib/libutee/tee_api_objects.c:231
    14f0:	7a411004 	ccmp	w0, w1, #0x4, ne
    14f4:	54000120 	b.eq	1518 <TEE_AllocateTransientObject+0x54>
/home/pedro/devel/optee/optee_os/lib/libutee/tee_api_objects.c:232
    14f8:	129ffea1 	mov	w1, #0xffff000a            	// #-65526
    14fc:	6b01001f 	cmp	w0, w1
    1500:	54000040 	b.eq	1508 <TEE_AllocateTransientObject+0x44>
/home/pedro/devel/optee/optee_os/lib/libutee/tee_api_objects.c:234
    1504:	94000b5d 	bl	4278 <TEE_Panic>
/home/pedro/devel/optee/optee_os/lib/libutee/tee_api_objects.c:240
    1508:	2a1303e0 	mov	w0, w19
    150c:	a94153f3 	ldp	x19, x20, [sp,#16]
    1510:	a8c37bfd 	ldp	x29, x30, [sp],#48
    1514:	d65f03c0 	ret
/home/pedro/devel/optee/optee_os/lib/libutee/tee_api_objects.c:236
    1518:	35ffff80 	cbnz	w0, 1508 <TEE_AllocateTransientObject+0x44>
/home/pedro/devel/optee/optee_os/lib/libutee/tee_api_objects.c:237
    151c:	b9402fa0 	ldr	w0, [x29,#44]
    1520:	f9000280 	str	x0, [x20]
/home/pedro/devel/optee/optee_os/lib/libutee/tee_api_objects.c:239
    1524:	17fffff9 	b	1508 <TEE_AllocateTransientObject+0x44>

0000000000001528 <TEE_FreeTransientObject>:
TEE_FreeTransientObject():
/home/pedro/devel/optee/optee_os/lib/libutee/tee_api_objects.c:247
    1528:	b4000280 	cbz	x0, 1578 <TEE_FreeTransientObject+0x50>
/home/pedro/devel/optee/optee_os/lib/libutee/tee_api_objects.c:243
    152c:	a9bc7bfd 	stp	x29, x30, [sp,#-64]!
    1530:	910003fd 	mov	x29, sp
    1534:	f9000bf3 	str	x19, [sp,#16]
/home/pedro/devel/optee/optee_os/lib/libutee/tee_api_objects.c:250
    1538:	910083a1 	add	x1, x29, #0x20
    153c:	aa0003f3 	mov	x19, x0
    1540:	94000c49 	bl	4664 <utee_cryp_obj_get_info>
/home/pedro/devel/optee/optee_os/lib/libutee/tee_api_objects.c:251
    1544:	34000040 	cbz	w0, 154c <TEE_FreeTransientObject+0x24>
/home/pedro/devel/optee/optee_os/lib/libutee/tee_api_objects.c:252
    1548:	94000b4c 	bl	4278 <TEE_Panic>
/home/pedro/devel/optee/optee_os/lib/libutee/tee_api_objects.c:254
    154c:	b9403ba0 	ldr	w0, [x29,#56]
    1550:	36800060 	tbz	w0, #16, 155c <TEE_FreeTransientObject+0x34>
/home/pedro/devel/optee/optee_os/lib/libutee/tee_api_objects.c:255
    1554:	52800000 	mov	w0, #0x0                   	// #0
    1558:	94000b48 	bl	4278 <TEE_Panic>
/home/pedro/devel/optee/optee_os/lib/libutee/tee_api_objects.c:257
    155c:	aa1303e0 	mov	x0, x19
    1560:	94000c4d 	bl	4694 <utee_cryp_obj_close>
/home/pedro/devel/optee/optee_os/lib/libutee/tee_api_objects.c:258
    1564:	34000040 	cbz	w0, 156c <TEE_FreeTransientObject+0x44>
/home/pedro/devel/optee/optee_os/lib/libutee/tee_api_objects.c:259
    1568:	94000b44 	bl	4278 <TEE_Panic>
/home/pedro/devel/optee/optee_os/lib/libutee/tee_api_objects.c:260
    156c:	f9400bf3 	ldr	x19, [sp,#16]
    1570:	a8c47bfd 	ldp	x29, x30, [sp],#64
    1574:	d65f03c0 	ret
    1578:	d65f03c0 	ret

000000000000157c <TEE_ResetTransientObject>:
TEE_ResetTransientObject():
/home/pedro/devel/optee/optee_os/lib/libutee/tee_api_objects.c:267
    157c:	b4000280 	cbz	x0, 15cc <TEE_ResetTransientObject+0x50>
/home/pedro/devel/optee/optee_os/lib/libutee/tee_api_objects.c:263
    1580:	a9bc7bfd 	stp	x29, x30, [sp,#-64]!
    1584:	910003fd 	mov	x29, sp
    1588:	f9000bf3 	str	x19, [sp,#16]
/home/pedro/devel/optee/optee_os/lib/libutee/tee_api_objects.c:270
    158c:	910083a1 	add	x1, x29, #0x20
    1590:	aa0003f3 	mov	x19, x0
    1594:	94000c34 	bl	4664 <utee_cryp_obj_get_info>
/home/pedro/devel/optee/optee_os/lib/libutee/tee_api_objects.c:271
    1598:	34000040 	cbz	w0, 15a0 <TEE_ResetTransientObject+0x24>
/home/pedro/devel/optee/optee_os/lib/libutee/tee_api_objects.c:272
    159c:	94000b37 	bl	4278 <TEE_Panic>
/home/pedro/devel/optee/optee_os/lib/libutee/tee_api_objects.c:274
    15a0:	b9403ba0 	ldr	w0, [x29,#56]
    15a4:	36800060 	tbz	w0, #16, 15b0 <TEE_ResetTransientObject+0x34>
/home/pedro/devel/optee/optee_os/lib/libutee/tee_api_objects.c:275
    15a8:	52800000 	mov	w0, #0x0                   	// #0
    15ac:	94000b33 	bl	4278 <TEE_Panic>
/home/pedro/devel/optee/optee_os/lib/libutee/tee_api_objects.c:277
    15b0:	aa1303e0 	mov	x0, x19
    15b4:	94000c3b 	bl	46a0 <utee_cryp_obj_reset>
/home/pedro/devel/optee/optee_os/lib/libutee/tee_api_objects.c:278
    15b8:	34000040 	cbz	w0, 15c0 <TEE_ResetTransientObject+0x44>
/home/pedro/devel/optee/optee_os/lib/libutee/tee_api_objects.c:279
    15bc:	94000b2f 	bl	4278 <TEE_Panic>
/home/pedro/devel/optee/optee_os/lib/libutee/tee_api_objects.c:280
    15c0:	f9400bf3 	ldr	x19, [sp,#16]
    15c4:	a8c47bfd 	ldp	x29, x30, [sp],#64
    15c8:	d65f03c0 	ret
    15cc:	d65f03c0 	ret

00000000000015d0 <TEE_PopulateTransientObject>:
TEE_PopulateTransientObject():
/home/pedro/devel/optee/optee_os/lib/libutee/tee_api_objects.c:285
    15d0:	a9ba7bfd 	stp	x29, x30, [sp,#-96]!
    15d4:	910003fd 	mov	x29, sp
    15d8:	a9025bf5 	stp	x21, x22, [sp,#32]
    15dc:	2a0203f6 	mov	w22, w2
    15e0:	f9001bf7 	str	x23, [sp,#48]
    15e4:	aa0103f7 	mov	x23, x1
/home/pedro/devel/optee/optee_os/lib/libutee/tee_api_objects.c:288
    15e8:	52800301 	mov	w1, #0x18                  	// #24
/home/pedro/devel/optee/optee_os/lib/libutee/tee_api_objects.c:285
    15ec:	a90153f3 	stp	x19, x20, [sp,#16]
    15f0:	aa0003f5 	mov	x21, x0
    15f4:	aa1603f3 	mov	x19, x22
/home/pedro/devel/optee/optee_os/lib/libutee/tee_api_objects.c:288
    15f8:	9ba17ec1 	umull	x1, w22, w1
    15fc:	91005821 	add	x1, x1, #0x16
    1600:	927c8421 	and	x1, x1, #0x3ffffffff0
    1604:	cb2163ff 	sub	sp, sp, x1
/home/pedro/devel/optee/optee_os/lib/libutee/tee_api_objects.c:290
    1608:	910103a1 	add	x1, x29, #0x40
/home/pedro/devel/optee/optee_os/lib/libutee/tee_api_objects.c:288
    160c:	910003f4 	mov	x20, sp
/home/pedro/devel/optee/optee_os/lib/libutee/tee_api_objects.c:290
    1610:	94000c15 	bl	4664 <utee_cryp_obj_get_info>
/home/pedro/devel/optee/optee_os/lib/libutee/tee_api_objects.c:291
    1614:	34000040 	cbz	w0, 161c <TEE_PopulateTransientObject+0x4c>
/home/pedro/devel/optee/optee_os/lib/libutee/tee_api_objects.c:292
    1618:	94000b18 	bl	4278 <TEE_Panic>
/home/pedro/devel/optee/optee_os/lib/libutee/tee_api_objects.c:295
    161c:	b9405ba0 	ldr	w0, [x29,#88]
    1620:	36800060 	tbz	w0, #16, 162c <TEE_PopulateTransientObject+0x5c>
/home/pedro/devel/optee/optee_os/lib/libutee/tee_api_objects.c:296
    1624:	52800000 	mov	w0, #0x0                   	// #0
    1628:	94000b14 	bl	4278 <TEE_Panic>
/home/pedro/devel/optee/optee_os/lib/libutee/tee_api_objects.c:299
    162c:	b9405ba0 	ldr	w0, [x29,#88]
    1630:	36880060 	tbz	w0, #17, 163c <TEE_PopulateTransientObject+0x6c>
/home/pedro/devel/optee/optee_os/lib/libutee/tee_api_objects.c:300
    1634:	52800000 	mov	w0, #0x0                   	// #0
    1638:	94000b10 	bl	4278 <TEE_Panic>
/home/pedro/devel/optee/optee_os/lib/libutee/tee_api_objects.c:302
    163c:	2a1303e2 	mov	w2, w19
    1640:	aa1703e1 	mov	x1, x23
    1644:	aa1403e0 	mov	x0, x20
    1648:	97fffedc 	bl	11b8 <__utee_from_attr>
/home/pedro/devel/optee/optee_os/lib/libutee/tee_api_objects.c:303
    164c:	aa1403e1 	mov	x1, x20
    1650:	aa1603e2 	mov	x2, x22
    1654:	aa1503e0 	mov	x0, x21
    1658:	94000c15 	bl	46ac <utee_cryp_obj_populate>
/home/pedro/devel/optee/optee_os/lib/libutee/tee_api_objects.c:304
    165c:	7100001f 	cmp	w0, #0x0
    1660:	129fff21 	mov	w1, #0xffff0006            	// #-65530
/home/pedro/devel/optee/optee_os/lib/libutee/tee_api_objects.c:303
    1664:	2a0003f3 	mov	w19, w0
/home/pedro/devel/optee/optee_os/lib/libutee/tee_api_objects.c:304
    1668:	7a411004 	ccmp	w0, w1, #0x4, ne
    166c:	54000040 	b.eq	1674 <TEE_PopulateTransientObject+0xa4>
/home/pedro/devel/optee/optee_os/lib/libutee/tee_api_objects.c:305
    1670:	94000b02 	bl	4278 <TEE_Panic>
/home/pedro/devel/optee/optee_os/lib/libutee/tee_api_objects.c:307
    1674:	910003bf 	mov	sp, x29
    1678:	2a1303e0 	mov	w0, w19
    167c:	f9401bf7 	ldr	x23, [sp,#48]
    1680:	a94153f3 	ldp	x19, x20, [sp,#16]
    1684:	a9425bf5 	ldp	x21, x22, [sp,#32]
    1688:	a8c67bfd 	ldp	x29, x30, [sp],#96
    168c:	d65f03c0 	ret

0000000000001690 <TEE_InitRefAttribute>:
TEE_InitRefAttribute():
/home/pedro/devel/optee/optee_os/lib/libutee/tee_api_objects.c:311
    1690:	a9bd7bfd 	stp	x29, x30, [sp,#-48]!
    1694:	910003fd 	mov	x29, sp
    1698:	a90153f3 	stp	x19, x20, [sp,#16]
    169c:	aa0003f3 	mov	x19, x0
    16a0:	a9025bf5 	stp	x21, x22, [sp,#32]
    16a4:	2a0103f4 	mov	w20, w1
    16a8:	aa0203f6 	mov	x22, x2
    16ac:	2a0303f5 	mov	w21, w3
/home/pedro/devel/optee/optee_os/lib/libutee/tee_api_objects.c:312
    16b0:	b5000060 	cbnz	x0, 16bc <TEE_InitRefAttribute+0x2c>
/home/pedro/devel/optee/optee_os/lib/libutee/tee_api_objects.c:313
    16b4:	52800000 	mov	w0, #0x0                   	// #0
    16b8:	94000af0 	bl	4278 <TEE_Panic>
/home/pedro/devel/optee/optee_os/lib/libutee/tee_api_objects.c:314
    16bc:	36e80074 	tbz	w20, #29, 16c8 <TEE_InitRefAttribute+0x38>
/home/pedro/devel/optee/optee_os/lib/libutee/tee_api_objects.c:315
    16c0:	52800000 	mov	w0, #0x0                   	// #0
    16c4:	94000aed 	bl	4278 <TEE_Panic>
/home/pedro/devel/optee/optee_os/lib/libutee/tee_api_objects.c:317
    16c8:	f9000676 	str	x22, [x19,#8]
/home/pedro/devel/optee/optee_os/lib/libutee/tee_api_objects.c:318
    16cc:	b9001275 	str	w21, [x19,#16]
/home/pedro/devel/optee/optee_os/lib/libutee/tee_api_objects.c:316
    16d0:	b9000274 	str	w20, [x19]
/home/pedro/devel/optee/optee_os/lib/libutee/tee_api_objects.c:319
    16d4:	a9425bf5 	ldp	x21, x22, [sp,#32]
    16d8:	a94153f3 	ldp	x19, x20, [sp,#16]
    16dc:	a8c37bfd 	ldp	x29, x30, [sp],#48
    16e0:	d65f03c0 	ret

00000000000016e4 <TEE_InitValueAttribute>:
TEE_InitValueAttribute():
/home/pedro/devel/optee/optee_os/lib/libutee/tee_api_objects.c:323
    16e4:	a9bd7bfd 	stp	x29, x30, [sp,#-48]!
    16e8:	910003fd 	mov	x29, sp
    16ec:	a90153f3 	stp	x19, x20, [sp,#16]
    16f0:	aa0003f3 	mov	x19, x0
    16f4:	a9025bf5 	stp	x21, x22, [sp,#32]
    16f8:	2a0103f4 	mov	w20, w1
    16fc:	2a0203f6 	mov	w22, w2
    1700:	2a0303f5 	mov	w21, w3
/home/pedro/devel/optee/optee_os/lib/libutee/tee_api_objects.c:324
    1704:	b5000060 	cbnz	x0, 1710 <TEE_InitValueAttribute+0x2c>
/home/pedro/devel/optee/optee_os/lib/libutee/tee_api_objects.c:325
    1708:	52800000 	mov	w0, #0x0                   	// #0
    170c:	94000adb 	bl	4278 <TEE_Panic>
/home/pedro/devel/optee/optee_os/lib/libutee/tee_api_objects.c:326
    1710:	37e80074 	tbnz	w20, #29, 171c <TEE_InitValueAttribute+0x38>
/home/pedro/devel/optee/optee_os/lib/libutee/tee_api_objects.c:327
    1714:	52800000 	mov	w0, #0x0                   	// #0
    1718:	94000ad8 	bl	4278 <TEE_Panic>
/home/pedro/devel/optee/optee_os/lib/libutee/tee_api_objects.c:330
    171c:	29015676 	stp	w22, w21, [x19,#8]
/home/pedro/devel/optee/optee_os/lib/libutee/tee_api_objects.c:328
    1720:	b9000274 	str	w20, [x19]
/home/pedro/devel/optee/optee_os/lib/libutee/tee_api_objects.c:331
    1724:	a9425bf5 	ldp	x21, x22, [sp,#32]
    1728:	a94153f3 	ldp	x19, x20, [sp,#16]
    172c:	a8c37bfd 	ldp	x29, x30, [sp],#48
    1730:	d65f03c0 	ret

0000000000001734 <TEE_CopyObjectAttributes1>:
TEE_CopyObjectAttributes1():
/home/pedro/devel/optee/optee_os/lib/libutee/tee_api_objects.c:356
    1734:	a9b97bfd 	stp	x29, x30, [sp,#-112]!
    1738:	910003fd 	mov	x29, sp
    173c:	a90153f3 	stp	x19, x20, [sp,#16]
    1740:	aa0103f4 	mov	x20, x1
    1744:	f90013f5 	str	x21, [sp,#32]
/home/pedro/devel/optee/optee_os/lib/libutee/tee_api_objects.c:361
    1748:	9100c3a1 	add	x1, x29, #0x30
/home/pedro/devel/optee/optee_os/lib/libutee/tee_api_objects.c:356
    174c:	aa0003f5 	mov	x21, x0
/home/pedro/devel/optee/optee_os/lib/libutee/tee_api_objects.c:361
    1750:	94000bc5 	bl	4664 <utee_cryp_obj_get_info>
    1754:	2a0003f3 	mov	w19, w0
/home/pedro/devel/optee/optee_os/lib/libutee/tee_api_objects.c:362
    1758:	350002a0 	cbnz	w0, 17ac <TEE_CopyObjectAttributes1+0x78>
/home/pedro/devel/optee/optee_os/lib/libutee/tee_api_objects.c:365
    175c:	910143a1 	add	x1, x29, #0x50
    1760:	aa1403e0 	mov	x0, x20
    1764:	94000bc0 	bl	4664 <utee_cryp_obj_get_info>
    1768:	2a0003f3 	mov	w19, w0
/home/pedro/devel/optee/optee_os/lib/libutee/tee_api_objects.c:366
    176c:	35000200 	cbnz	w0, 17ac <TEE_CopyObjectAttributes1+0x78>
/home/pedro/devel/optee/optee_os/lib/libutee/tee_api_objects.c:369
    1770:	b9406ba1 	ldr	w1, [x29,#104]
    1774:	37880041 	tbnz	w1, #17, 177c <TEE_CopyObjectAttributes1+0x48>
/home/pedro/devel/optee/optee_os/lib/libutee/tee_api_objects.c:370
    1778:	94000ac0 	bl	4278 <TEE_Panic>
/home/pedro/devel/optee/optee_os/lib/libutee/tee_api_objects.c:372
    177c:	b9404ba0 	ldr	w0, [x29,#72]
    1780:	36800060 	tbz	w0, #16, 178c <TEE_CopyObjectAttributes1+0x58>
/home/pedro/devel/optee/optee_os/lib/libutee/tee_api_objects.c:373
    1784:	52800000 	mov	w0, #0x0                   	// #0
    1788:	94000abc 	bl	4278 <TEE_Panic>
/home/pedro/devel/optee/optee_os/lib/libutee/tee_api_objects.c:375
    178c:	b9404ba0 	ldr	w0, [x29,#72]
    1790:	36880060 	tbz	w0, #17, 179c <TEE_CopyObjectAttributes1+0x68>
/home/pedro/devel/optee/optee_os/lib/libutee/tee_api_objects.c:376
    1794:	52800000 	mov	w0, #0x0                   	// #0
    1798:	94000ab8 	bl	4278 <TEE_Panic>
/home/pedro/devel/optee/optee_os/lib/libutee/tee_api_objects.c:378
    179c:	aa1403e1 	mov	x1, x20
    17a0:	aa1503e0 	mov	x0, x21
    17a4:	94000bc5 	bl	46b8 <utee_cryp_obj_copy>
    17a8:	2a0003f3 	mov	w19, w0
/home/pedro/devel/optee/optee_os/lib/libutee/tee_api_objects.c:383
    17ac:	121e7a60 	and	w0, w19, #0xfffffffd
    17b0:	7100027f 	cmp	w19, #0x0
    17b4:	52800021 	mov	w1, #0x1                   	// #1
    17b8:	72be0201 	movk	w1, #0xf010, lsl #16
    17bc:	7a411004 	ccmp	w0, w1, #0x4, ne
    17c0:	54000060 	b.eq	17cc <TEE_CopyObjectAttributes1+0x98>
/home/pedro/devel/optee/optee_os/lib/libutee/tee_api_objects.c:385
    17c4:	2a1303e0 	mov	w0, w19
    17c8:	94000aac 	bl	4278 <TEE_Panic>
/home/pedro/devel/optee/optee_os/lib/libutee/tee_api_objects.c:388
    17cc:	2a1303e0 	mov	w0, w19
    17d0:	f94013f5 	ldr	x21, [sp,#32]
    17d4:	a94153f3 	ldp	x19, x20, [sp,#16]
    17d8:	a8c77bfd 	ldp	x29, x30, [sp],#112
    17dc:	d65f03c0 	ret

00000000000017e0 <TEE_CopyObjectAttributes>:
TEE_CopyObjectAttributes():
/home/pedro/devel/optee/optee_os/lib/libutee/tee_api_objects.c:341
    17e0:	a9bc7bfd 	stp	x29, x30, [sp,#-64]!
    17e4:	910003fd 	mov	x29, sp
    17e8:	a90153f3 	stp	x19, x20, [sp,#16]
    17ec:	aa0103f3 	mov	x19, x1
    17f0:	aa0003f4 	mov	x20, x0
/home/pedro/devel/optee/optee_os/lib/libutee/tee_api_objects.c:345
    17f4:	910083a1 	add	x1, x29, #0x20
    17f8:	aa1303e0 	mov	x0, x19
    17fc:	94000b9a 	bl	4664 <utee_cryp_obj_get_info>
/home/pedro/devel/optee/optee_os/lib/libutee/tee_api_objects.c:346
    1800:	b94023a1 	ldr	w1, [x29,#32]
    1804:	528017c0 	mov	w0, #0xbe                  	// #190
    1808:	72b40000 	movk	w0, #0xa000, lsl #16
    180c:	6b00003f 	cmp	w1, w0
    1810:	540000c0 	b.eq	1828 <TEE_CopyObjectAttributes+0x48>
/home/pedro/devel/optee/optee_os/lib/libutee/tee_api_objects.c:349
    1814:	aa1303e1 	mov	x1, x19
    1818:	aa1403e0 	mov	x0, x20
    181c:	97ffffc6 	bl	1734 <TEE_CopyObjectAttributes1>
/home/pedro/devel/optee/optee_os/lib/libutee/tee_api_objects.c:350
    1820:	34000040 	cbz	w0, 1828 <TEE_CopyObjectAttributes+0x48>
/home/pedro/devel/optee/optee_os/lib/libutee/tee_api_objects.c:351
    1824:	94000a95 	bl	4278 <TEE_Panic>
/home/pedro/devel/optee/optee_os/lib/libutee/tee_api_objects.c:352
    1828:	a94153f3 	ldp	x19, x20, [sp,#16]
    182c:	a8c47bfd 	ldp	x29, x30, [sp],#64
    1830:	d65f03c0 	ret

0000000000001834 <TEE_GenerateKey>:
TEE_GenerateKey():
/home/pedro/devel/optee/optee_os/lib/libutee/tee_api_objects.c:392
    1834:	a9bd7bfd 	stp	x29, x30, [sp,#-48]!
    1838:	910003fd 	mov	x29, sp
    183c:	a9025bf5 	stp	x21, x22, [sp,#32]
    1840:	aa0003f5 	mov	x21, x0
/home/pedro/devel/optee/optee_os/lib/libutee/tee_api_objects.c:394
    1844:	52800300 	mov	w0, #0x18                  	// #24
/home/pedro/devel/optee/optee_os/lib/libutee/tee_api_objects.c:392
    1848:	a90153f3 	stp	x19, x20, [sp,#16]
    184c:	2a0103f6 	mov	w22, w1
    1850:	2a0303f3 	mov	w19, w3
/home/pedro/devel/optee/optee_os/lib/libutee/tee_api_objects.c:394
    1854:	9ba07c60 	umull	x0, w3, w0
/home/pedro/devel/optee/optee_os/lib/libutee/tee_api_objects.c:392
    1858:	aa0203e1 	mov	x1, x2
/home/pedro/devel/optee/optee_os/lib/libutee/tee_api_objects.c:396
    185c:	2a0303e2 	mov	w2, w3
/home/pedro/devel/optee/optee_os/lib/libutee/tee_api_objects.c:394
    1860:	91005800 	add	x0, x0, #0x16
    1864:	927c8400 	and	x0, x0, #0x3ffffffff0
    1868:	cb2063ff 	sub	sp, sp, x0
/home/pedro/devel/optee/optee_os/lib/libutee/tee_api_objects.c:396
    186c:	910003e0 	mov	x0, sp
    1870:	97fffe52 	bl	11b8 <__utee_from_attr>
/home/pedro/devel/optee/optee_os/lib/libutee/tee_api_objects.c:397
    1874:	2a1303e3 	mov	w3, w19
    1878:	2a1603e1 	mov	w1, w22
    187c:	910003e2 	mov	x2, sp
    1880:	aa1503e0 	mov	x0, x21
    1884:	94000bd2 	bl	47cc <utee_cryp_obj_generate_key>
/home/pedro/devel/optee/optee_os/lib/libutee/tee_api_objects.c:400
    1888:	7100001f 	cmp	w0, #0x0
    188c:	129fff21 	mov	w1, #0xffff0006            	// #-65530
/home/pedro/devel/optee/optee_os/lib/libutee/tee_api_objects.c:397
    1890:	2a0003f3 	mov	w19, w0
/home/pedro/devel/optee/optee_os/lib/libutee/tee_api_objects.c:400
    1894:	7a411004 	ccmp	w0, w1, #0x4, ne
    1898:	54000040 	b.eq	18a0 <TEE_GenerateKey+0x6c>
/home/pedro/devel/optee/optee_os/lib/libutee/tee_api_objects.c:401
    189c:	94000a77 	bl	4278 <TEE_Panic>
/home/pedro/devel/optee/optee_os/lib/libutee/tee_api_objects.c:404
    18a0:	910003bf 	mov	sp, x29
    18a4:	2a1303e0 	mov	w0, w19
    18a8:	a94153f3 	ldp	x19, x20, [sp,#16]
    18ac:	a9425bf5 	ldp	x21, x22, [sp,#32]
    18b0:	a8c37bfd 	ldp	x29, x30, [sp],#48
    18b4:	d65f03c0 	ret

00000000000018b8 <TEE_OpenPersistentObject>:
TEE_OpenPersistentObject():
/home/pedro/devel/optee/optee_os/lib/libutee/tee_api_objects.c:411
    18b8:	a9bd7bfd 	stp	x29, x30, [sp,#-48]!
    18bc:	910003fd 	mov	x29, sp
    18c0:	a90153f3 	stp	x19, x20, [sp,#16]
/home/pedro/devel/optee/optee_os/lib/libutee/tee_api_objects.c:416
    18c4:	129ffef3 	mov	w19, #0xffff0008            	// #-65528
/home/pedro/devel/optee/optee_os/lib/libutee/tee_api_objects.c:415
    18c8:	b40001e1 	cbz	x1, 1904 <TEE_OpenPersistentObject+0x4c>
/home/pedro/devel/optee/optee_os/lib/libutee/tee_api_objects.c:425
    18cc:	7101005f 	cmp	w2, #0x40
    18d0:	aa0403f4 	mov	x20, x4
/home/pedro/devel/optee/optee_os/lib/libutee/tee_api_objects.c:426
    18d4:	129fff33 	mov	w19, #0xffff0006            	// #-65530
/home/pedro/devel/optee/optee_os/lib/libutee/tee_api_objects.c:425
    18d8:	fa409884 	ccmp	x4, #0x0, #0x4, ls
    18dc:	54000140 	b.eq	1904 <TEE_OpenPersistentObject+0x4c>
/home/pedro/devel/optee/optee_os/lib/libutee/tee_api_objects.c:430
    18e0:	9100b3a4 	add	x4, x29, #0x2c
    18e4:	2a0303e3 	mov	w3, w3
    18e8:	2a0203e2 	mov	w2, w2
    18ec:	2a0003e0 	mov	w0, w0
    18f0:	94000b90 	bl	4730 <utee_storage_obj_open>
    18f4:	2a0003f3 	mov	w19, w0
/home/pedro/devel/optee/optee_os/lib/libutee/tee_api_objects.c:432
    18f8:	35000060 	cbnz	w0, 1904 <TEE_OpenPersistentObject+0x4c>
/home/pedro/devel/optee/optee_os/lib/libutee/tee_api_objects.c:433
    18fc:	b9402fa0 	ldr	w0, [x29,#44]
    1900:	f9000280 	str	x0, [x20]
/home/pedro/devel/optee/optee_os/lib/libutee/tee_api_objects.c:437
    1904:	121d7a60 	and	w0, w19, #0xfffffffb
/home/pedro/devel/optee/optee_os/lib/libutee/tee_api_objects.c:436
    1908:	7100027f 	cmp	w19, #0x0
    190c:	129ffee1 	mov	w1, #0xffff0008            	// #-65528
    1910:	7a411004 	ccmp	w0, w1, #0x4, ne
    1914:	54000160 	b.eq	1940 <TEE_OpenPersistentObject+0x88>
/home/pedro/devel/optee/optee_os/lib/libutee/tee_api_objects.c:438
    1918:	129fff80 	mov	w0, #0xffff0003            	// #-65533
    191c:	6b00027f 	cmp	w19, w0
    1920:	54000100 	b.eq	1940 <TEE_OpenPersistentObject+0x88>
/home/pedro/devel/optee/optee_os/lib/libutee/tee_api_objects.c:440
    1924:	121e7a61 	and	w1, w19, #0xfffffffd
    1928:	52800020 	mov	w0, #0x1                   	// #1
    192c:	72be0200 	movk	w0, #0xf010, lsl #16
    1930:	6b00003f 	cmp	w1, w0
    1934:	54000060 	b.eq	1940 <TEE_OpenPersistentObject+0x88>
/home/pedro/devel/optee/optee_os/lib/libutee/tee_api_objects.c:442
    1938:	2a1303e0 	mov	w0, w19
    193c:	94000a4f 	bl	4278 <TEE_Panic>
/home/pedro/devel/optee/optee_os/lib/libutee/tee_api_objects.c:445
    1940:	2a1303e0 	mov	w0, w19
    1944:	a94153f3 	ldp	x19, x20, [sp,#16]
    1948:	a8c37bfd 	ldp	x29, x30, [sp],#48
    194c:	d65f03c0 	ret

0000000000001950 <TEE_CreatePersistentObject>:
TEE_CreatePersistentObject():
/home/pedro/devel/optee/optee_os/lib/libutee/tee_api_objects.c:453
    1950:	a9bd7bfd 	stp	x29, x30, [sp,#-48]!
    1954:	910003fd 	mov	x29, sp
    1958:	f9000bf3 	str	x19, [sp,#16]
    195c:	aa0703f3 	mov	x19, x7
/home/pedro/devel/optee/optee_os/lib/libutee/tee_api_objects.c:457
    1960:	b4000501 	cbz	x1, 1a00 <TEE_CreatePersistentObject+0xb0>
/home/pedro/devel/optee/optee_os/lib/libutee/tee_api_objects.c:462
    1964:	7101005f 	cmp	w2, #0x40
    1968:	54000528 	b.hi	1a0c <TEE_CreatePersistentObject+0xbc>
/home/pedro/devel/optee/optee_os/lib/libutee/tee_api_objects.c:467
    196c:	9100b3a7 	add	x7, x29, #0x2c
    1970:	2a0603e6 	mov	w6, w6
    1974:	2a0303e3 	mov	w3, w3
    1978:	2a0203e2 	mov	w2, w2
    197c:	2a0003e0 	mov	w0, w0
    1980:	94000b6f 	bl	473c <utee_storage_obj_create>
/home/pedro/devel/optee/optee_os/lib/libutee/tee_api_objects.c:470
    1984:	35000380 	cbnz	w0, 19f4 <TEE_CreatePersistentObject+0xa4>
    1988:	b9402fa1 	ldr	w1, [x29,#44]
/home/pedro/devel/optee/optee_os/lib/libutee/tee_api_objects.c:471
    198c:	b40000b3 	cbz	x19, 19a0 <TEE_CreatePersistentObject+0x50>
/home/pedro/devel/optee/optee_os/lib/libutee/tee_api_objects.c:472
    1990:	f9000261 	str	x1, [x19]
/home/pedro/devel/optee/optee_os/lib/libutee/tee_api_objects.c:491
    1994:	f9400bf3 	ldr	x19, [sp,#16]
    1998:	a8c37bfd 	ldp	x29, x30, [sp],#48
    199c:	d65f03c0 	ret
/home/pedro/devel/optee/optee_os/lib/libutee/tee_api_objects.c:474
    19a0:	aa0103e0 	mov	x0, x1
    19a4:	94000b3c 	bl	4694 <utee_cryp_obj_close>
/home/pedro/devel/optee/optee_os/lib/libutee/tee_api_objects.c:475
    19a8:	34ffff60 	cbz	w0, 1994 <TEE_CreatePersistentObject+0x44>
/home/pedro/devel/optee/optee_os/lib/libutee/tee_api_objects.c:481
    19ac:	129ffee1 	mov	w1, #0xffff0008            	// #-65528
    19b0:	6b01001f 	cmp	w0, w1
    19b4:	129fff81 	mov	w1, #0xffff0003            	// #-65533
    19b8:	7a411004 	ccmp	w0, w1, #0x4, ne
    19bc:	54fffec0 	b.eq	1994 <TEE_CreatePersistentObject+0x44>
/home/pedro/devel/optee/optee_os/lib/libutee/tee_api_objects.c:483
    19c0:	129ffe61 	mov	w1, #0xffff000c            	// #-65524
    19c4:	6b01001f 	cmp	w0, w1
    19c8:	1299f7c1 	mov	w1, #0xffff3041            	// #-53183
    19cc:	7a411004 	ccmp	w0, w1, #0x4, ne
    19d0:	54fffe20 	b.eq	1994 <TEE_CreatePersistentObject+0x44>
/home/pedro/devel/optee/optee_os/lib/libutee/tee_api_objects.c:485
    19d4:	121e7802 	and	w2, w0, #0xfffffffd
    19d8:	52800021 	mov	w1, #0x1                   	// #1
    19dc:	72be0201 	movk	w1, #0xf010, lsl #16
    19e0:	6b01005f 	cmp	w2, w1
    19e4:	54fffd80 	b.eq	1994 <TEE_CreatePersistentObject+0x44>
/home/pedro/devel/optee/optee_os/lib/libutee/tee_api_objects.c:488
    19e8:	94000a24 	bl	4278 <TEE_Panic>
/home/pedro/devel/optee/optee_os/lib/libutee/tee_api_objects.c:490
    19ec:	52800000 	mov	w0, #0x0                   	// #0
    19f0:	17ffffe9 	b	1994 <TEE_CreatePersistentObject+0x44>
/home/pedro/devel/optee/optee_os/lib/libutee/tee_api_objects.c:479
    19f4:	b4fffdd3 	cbz	x19, 19ac <TEE_CreatePersistentObject+0x5c>
/home/pedro/devel/optee/optee_os/lib/libutee/tee_api_objects.c:480
    19f8:	f900027f 	str	xzr, [x19]
    19fc:	17ffffec 	b	19ac <TEE_CreatePersistentObject+0x5c>
/home/pedro/devel/optee/optee_os/lib/libutee/tee_api_objects.c:458
    1a00:	129ffee0 	mov	w0, #0xffff0008            	// #-65528
/home/pedro/devel/optee/optee_os/lib/libutee/tee_api_objects.c:479
    1a04:	b5ffffa7 	cbnz	x7, 19f8 <TEE_CreatePersistentObject+0xa8>
    1a08:	17ffffe3 	b	1994 <TEE_CreatePersistentObject+0x44>
/home/pedro/devel/optee/optee_os/lib/libutee/tee_api_objects.c:463
    1a0c:	129fff20 	mov	w0, #0xffff0006            	// #-65530
/home/pedro/devel/optee/optee_os/lib/libutee/tee_api_objects.c:479
    1a10:	b5ffff47 	cbnz	x7, 19f8 <TEE_CreatePersistentObject+0xa8>
    1a14:	17ffffeb 	b	19c0 <TEE_CreatePersistentObject+0x70>

0000000000001a18 <TEE_CloseAndDeletePersistentObject1>:
TEE_CloseAndDeletePersistentObject1():
/home/pedro/devel/optee/optee_os/lib/libutee/tee_api_objects.c:513
    1a18:	a9be7bfd 	stp	x29, x30, [sp,#-32]!
    1a1c:	910003fd 	mov	x29, sp
    1a20:	a90153f3 	stp	x19, x20, [sp,#16]
    1a24:	52800074 	mov	w20, #0x3                   	// #3
    1a28:	72be0214 	movk	w20, #0xf010, lsl #16
/home/pedro/devel/optee/optee_os/lib/libutee/tee_api_objects.c:517
    1a2c:	2a1403f3 	mov	w19, w20
/home/pedro/devel/optee/optee_os/lib/libutee/tee_api_objects.c:516
    1a30:	b40000e0 	cbz	x0, 1a4c <TEE_CloseAndDeletePersistentObject1+0x34>
/home/pedro/devel/optee/optee_os/lib/libutee/tee_api_objects.c:519
    1a34:	94000b45 	bl	4748 <utee_storage_obj_del>
/home/pedro/devel/optee/optee_os/lib/libutee/tee_api_objects.c:521
    1a38:	7100001f 	cmp	w0, #0x0
/home/pedro/devel/optee/optee_os/lib/libutee/tee_api_objects.c:519
    1a3c:	2a0003f3 	mov	w19, w0
/home/pedro/devel/optee/optee_os/lib/libutee/tee_api_objects.c:521
    1a40:	7a541004 	ccmp	w0, w20, #0x4, ne
    1a44:	54000040 	b.eq	1a4c <TEE_CloseAndDeletePersistentObject1+0x34>
/home/pedro/devel/optee/optee_os/lib/libutee/tee_api_objects.c:522
    1a48:	94000a0c 	bl	4278 <TEE_Panic>
/home/pedro/devel/optee/optee_os/lib/libutee/tee_api_objects.c:525
    1a4c:	2a1303e0 	mov	w0, w19
    1a50:	a94153f3 	ldp	x19, x20, [sp,#16]
    1a54:	a8c27bfd 	ldp	x29, x30, [sp],#32
    1a58:	d65f03c0 	ret

0000000000001a5c <TEE_CloseAndDeletePersistentObject>:
TEE_CloseAndDeletePersistentObject():
/home/pedro/devel/optee/optee_os/lib/libutee/tee_api_objects.c:503
    1a5c:	b4000140 	cbz	x0, 1a84 <TEE_CloseAndDeletePersistentObject+0x28>
/home/pedro/devel/optee/optee_os/lib/libutee/tee_api_objects.c:500
    1a60:	a9bf7bfd 	stp	x29, x30, [sp,#-16]!
    1a64:	910003fd 	mov	x29, sp
/home/pedro/devel/optee/optee_os/lib/libutee/tee_api_objects.c:506
    1a68:	97ffffec 	bl	1a18 <TEE_CloseAndDeletePersistentObject1>
/home/pedro/devel/optee/optee_os/lib/libutee/tee_api_objects.c:508
    1a6c:	34000080 	cbz	w0, 1a7c <TEE_CloseAndDeletePersistentObject+0x20>
/home/pedro/devel/optee/optee_os/lib/libutee/tee_api_objects.c:510
    1a70:	a8c17bfd 	ldp	x29, x30, [sp],#16
/home/pedro/devel/optee/optee_os/lib/libutee/tee_api_objects.c:509
    1a74:	52800000 	mov	w0, #0x0                   	// #0
    1a78:	14000a00 	b	4278 <TEE_Panic>
/home/pedro/devel/optee/optee_os/lib/libutee/tee_api_objects.c:510
    1a7c:	a8c17bfd 	ldp	x29, x30, [sp],#16
    1a80:	d65f03c0 	ret
    1a84:	d65f03c0 	ret

0000000000001a88 <TEE_RenamePersistentObject>:
TEE_RenamePersistentObject():
/home/pedro/devel/optee/optee_os/lib/libutee/tee_api_objects.c:531
    1a88:	a9be7bfd 	stp	x29, x30, [sp,#-32]!
    1a8c:	910003fd 	mov	x29, sp
    1a90:	f9000bf3 	str	x19, [sp,#16]
/home/pedro/devel/optee/optee_os/lib/libutee/tee_api_objects.c:535
    1a94:	129ffef3 	mov	w19, #0xffff0008            	// #-65528
/home/pedro/devel/optee/optee_os/lib/libutee/tee_api_objects.c:534
    1a98:	b4000100 	cbz	x0, 1ab8 <TEE_RenamePersistentObject+0x30>
/home/pedro/devel/optee/optee_os/lib/libutee/tee_api_objects.c:544
    1a9c:	7101005f 	cmp	w2, #0x40
/home/pedro/devel/optee/optee_os/lib/libutee/tee_api_objects.c:545
    1aa0:	129fff33 	mov	w19, #0xffff0006            	// #-65530
/home/pedro/devel/optee/optee_os/lib/libutee/tee_api_objects.c:544
    1aa4:	fa409824 	ccmp	x1, #0x0, #0x4, ls
    1aa8:	54000080 	b.eq	1ab8 <TEE_RenamePersistentObject+0x30>
/home/pedro/devel/optee/optee_os/lib/libutee/tee_api_objects.c:549
    1aac:	2a0203e2 	mov	w2, w2
    1ab0:	94000b29 	bl	4754 <utee_storage_obj_rename>
    1ab4:	2a0003f3 	mov	w19, w0
/home/pedro/devel/optee/optee_os/lib/libutee/tee_api_objects.c:553
    1ab8:	7100027f 	cmp	w19, #0x0
    1abc:	129fff80 	mov	w0, #0xffff0003            	// #-65533
    1ac0:	7a401264 	ccmp	w19, w0, #0x4, ne
    1ac4:	54000100 	b.eq	1ae4 <TEE_RenamePersistentObject+0x5c>
/home/pedro/devel/optee/optee_os/lib/libutee/tee_api_objects.c:555
    1ac8:	121e7a61 	and	w1, w19, #0xfffffffd
    1acc:	52800020 	mov	w0, #0x1                   	// #1
    1ad0:	72be0200 	movk	w0, #0xf010, lsl #16
    1ad4:	6b00003f 	cmp	w1, w0
    1ad8:	54000060 	b.eq	1ae4 <TEE_RenamePersistentObject+0x5c>
/home/pedro/devel/optee/optee_os/lib/libutee/tee_api_objects.c:557
    1adc:	2a1303e0 	mov	w0, w19
    1ae0:	940009e6 	bl	4278 <TEE_Panic>
/home/pedro/devel/optee/optee_os/lib/libutee/tee_api_objects.c:560
    1ae4:	2a1303e0 	mov	w0, w19
    1ae8:	f9400bf3 	ldr	x19, [sp,#16]
    1aec:	a8c27bfd 	ldp	x29, x30, [sp],#32
    1af0:	d65f03c0 	ret

0000000000001af4 <TEE_AllocatePersistentObjectEnumerator>:
TEE_AllocatePersistentObjectEnumerator():
/home/pedro/devel/optee/optee_os/lib/libutee/tee_api_objects.c:564
    1af4:	a9bd7bfd 	stp	x29, x30, [sp,#-48]!
    1af8:	910003fd 	mov	x29, sp
    1afc:	a90153f3 	stp	x19, x20, [sp,#16]
/home/pedro/devel/optee/optee_os/lib/libutee/tee_api_objects.c:569
    1b00:	129fff33 	mov	w19, #0xffff0006            	// #-65530
/home/pedro/devel/optee/optee_os/lib/libutee/tee_api_objects.c:568
    1b04:	b40001e0 	cbz	x0, 1b40 <TEE_AllocatePersistentObjectEnumerator+0x4c>
    1b08:	aa0003f4 	mov	x20, x0
/home/pedro/devel/optee/optee_os/lib/libutee/tee_api_objects.c:571
    1b0c:	9100b3a0 	add	x0, x29, #0x2c
    1b10:	94000b14 	bl	4760 <utee_storage_alloc_enum>
    1b14:	2a0003f3 	mov	w19, w0
/home/pedro/devel/optee/optee_os/lib/libutee/tee_api_objects.c:573
    1b18:	34000040 	cbz	w0, 1b20 <TEE_AllocatePersistentObjectEnumerator+0x2c>
/home/pedro/devel/optee/optee_os/lib/libutee/tee_api_objects.c:574
    1b1c:	b9002fbf 	str	wzr, [x29,#44]
/home/pedro/devel/optee/optee_os/lib/libutee/tee_api_objects.c:576
    1b20:	b9402fa0 	ldr	w0, [x29,#44]
/home/pedro/devel/optee/optee_os/lib/libutee/tee_api_objects.c:578
    1b24:	7100027f 	cmp	w19, #0x0
/home/pedro/devel/optee/optee_os/lib/libutee/tee_api_objects.c:576
    1b28:	f9000280 	str	x0, [x20]
/home/pedro/devel/optee/optee_os/lib/libutee/tee_api_objects.c:578
    1b2c:	129fff80 	mov	w0, #0xffff0003            	// #-65533
    1b30:	7a401264 	ccmp	w19, w0, #0x4, ne
    1b34:	54000060 	b.eq	1b40 <TEE_AllocatePersistentObjectEnumerator+0x4c>
/home/pedro/devel/optee/optee_os/lib/libutee/tee_api_objects.c:580
    1b38:	2a1303e0 	mov	w0, w19
    1b3c:	940009cf 	bl	4278 <TEE_Panic>
/home/pedro/devel/optee/optee_os/lib/libutee/tee_api_objects.c:583
    1b40:	2a1303e0 	mov	w0, w19
    1b44:	a94153f3 	ldp	x19, x20, [sp,#16]
    1b48:	a8c37bfd 	ldp	x29, x30, [sp],#48
    1b4c:	d65f03c0 	ret

0000000000001b50 <TEE_FreePersistentObjectEnumerator>:
TEE_FreePersistentObjectEnumerator():
/home/pedro/devel/optee/optee_os/lib/libutee/tee_api_objects.c:589
    1b50:	b4000120 	cbz	x0, 1b74 <TEE_FreePersistentObjectEnumerator+0x24>
/home/pedro/devel/optee/optee_os/lib/libutee/tee_api_objects.c:586
    1b54:	a9bf7bfd 	stp	x29, x30, [sp,#-16]!
    1b58:	910003fd 	mov	x29, sp
/home/pedro/devel/optee/optee_os/lib/libutee/tee_api_objects.c:592
    1b5c:	94000b04 	bl	476c <utee_storage_free_enum>
/home/pedro/devel/optee/optee_os/lib/libutee/tee_api_objects.c:594
    1b60:	34000060 	cbz	w0, 1b6c <TEE_FreePersistentObjectEnumerator+0x1c>
/home/pedro/devel/optee/optee_os/lib/libutee/tee_api_objects.c:596
    1b64:	a8c17bfd 	ldp	x29, x30, [sp],#16
/home/pedro/devel/optee/optee_os/lib/libutee/tee_api_objects.c:595
    1b68:	140009c4 	b	4278 <TEE_Panic>
/home/pedro/devel/optee/optee_os/lib/libutee/tee_api_objects.c:596
    1b6c:	a8c17bfd 	ldp	x29, x30, [sp],#16
    1b70:	d65f03c0 	ret
    1b74:	d65f03c0 	ret

0000000000001b78 <TEE_ResetPersistentObjectEnumerator>:
TEE_ResetPersistentObjectEnumerator():
/home/pedro/devel/optee/optee_os/lib/libutee/tee_api_objects.c:602
    1b78:	b4000120 	cbz	x0, 1b9c <TEE_ResetPersistentObjectEnumerator+0x24>
/home/pedro/devel/optee/optee_os/lib/libutee/tee_api_objects.c:599
    1b7c:	a9bf7bfd 	stp	x29, x30, [sp,#-16]!
    1b80:	910003fd 	mov	x29, sp
/home/pedro/devel/optee/optee_os/lib/libutee/tee_api_objects.c:605
    1b84:	94000afd 	bl	4778 <utee_storage_reset_enum>
/home/pedro/devel/optee/optee_os/lib/libutee/tee_api_objects.c:607
    1b88:	34000060 	cbz	w0, 1b94 <TEE_ResetPersistentObjectEnumerator+0x1c>
/home/pedro/devel/optee/optee_os/lib/libutee/tee_api_objects.c:609
    1b8c:	a8c17bfd 	ldp	x29, x30, [sp],#16
/home/pedro/devel/optee/optee_os/lib/libutee/tee_api_objects.c:608
    1b90:	140009ba 	b	4278 <TEE_Panic>
/home/pedro/devel/optee/optee_os/lib/libutee/tee_api_objects.c:609
    1b94:	a8c17bfd 	ldp	x29, x30, [sp],#16
    1b98:	d65f03c0 	ret
    1b9c:	d65f03c0 	ret

0000000000001ba0 <TEE_StartPersistentObjectEnumerator>:
TEE_StartPersistentObjectEnumerator():
/home/pedro/devel/optee/optee_os/lib/libutee/tee_api_objects.c:614
    1ba0:	a9be7bfd 	stp	x29, x30, [sp,#-32]!
/home/pedro/devel/optee/optee_os/lib/libutee/tee_api_objects.c:617
    1ba4:	2a0103e1 	mov	w1, w1
/home/pedro/devel/optee/optee_os/lib/libutee/tee_api_objects.c:614
    1ba8:	910003fd 	mov	x29, sp
    1bac:	f9000bf3 	str	x19, [sp,#16]
/home/pedro/devel/optee/optee_os/lib/libutee/tee_api_objects.c:617
    1bb0:	94000af5 	bl	4784 <utee_storage_start_enum>
/home/pedro/devel/optee/optee_os/lib/libutee/tee_api_objects.c:620
    1bb4:	7100001f 	cmp	w0, #0x0
    1bb8:	129ffee1 	mov	w1, #0xffff0008            	// #-65528
/home/pedro/devel/optee/optee_os/lib/libutee/tee_api_objects.c:617
    1bbc:	2a0003f3 	mov	w19, w0
/home/pedro/devel/optee/optee_os/lib/libutee/tee_api_objects.c:620
    1bc0:	7a411004 	ccmp	w0, w1, #0x4, ne
    1bc4:	540000e0 	b.eq	1be0 <TEE_StartPersistentObjectEnumerator+0x40>
/home/pedro/devel/optee/optee_os/lib/libutee/tee_api_objects.c:622
    1bc8:	121e7802 	and	w2, w0, #0xfffffffd
    1bcc:	52800021 	mov	w1, #0x1                   	// #1
    1bd0:	72be0201 	movk	w1, #0xf010, lsl #16
    1bd4:	6b01005f 	cmp	w2, w1
    1bd8:	54000040 	b.eq	1be0 <TEE_StartPersistentObjectEnumerator+0x40>
/home/pedro/devel/optee/optee_os/lib/libutee/tee_api_objects.c:624
    1bdc:	940009a7 	bl	4278 <TEE_Panic>
/home/pedro/devel/optee/optee_os/lib/libutee/tee_api_objects.c:627
    1be0:	2a1303e0 	mov	w0, w19
    1be4:	f9400bf3 	ldr	x19, [sp,#16]
    1be8:	a8c27bfd 	ldp	x29, x30, [sp],#32
    1bec:	d65f03c0 	ret

0000000000001bf0 <TEE_GetNextPersistentObject>:
TEE_GetNextPersistentObject():
/home/pedro/devel/optee/optee_os/lib/libutee/tee_api_objects.c:632
    1bf0:	a9bb7bfd 	stp	x29, x30, [sp,#-80]!
/home/pedro/devel/optee/optee_os/lib/libutee/tee_api_objects.c:643
    1bf4:	f100005f 	cmp	x2, #0x0
    1bf8:	fa401864 	ccmp	x3, #0x0, #0x4, ne
/home/pedro/devel/optee/optee_os/lib/libutee/tee_api_objects.c:632
    1bfc:	910003fd 	mov	x29, sp
    1c00:	a90153f3 	stp	x19, x20, [sp,#16]
    1c04:	129fff33 	mov	w19, #0xffff0006            	// #-65530
/home/pedro/devel/optee/optee_os/lib/libutee/tee_api_objects.c:643
    1c08:	54000180 	b.eq	1c38 <TEE_GetNextPersistentObject+0x48>
    1c0c:	aa0303f4 	mov	x20, x3
/home/pedro/devel/optee/optee_os/lib/libutee/tee_api_objects.c:652
    1c10:	910143a3 	add	x3, x29, #0x50
/home/pedro/devel/optee/optee_os/lib/libutee/tee_api_objects.c:651
    1c14:	f100003f 	cmp	x1, #0x0
/home/pedro/devel/optee/optee_os/lib/libutee/tee_api_objects.c:652
    1c18:	b9400284 	ldr	w4, [x20]
    1c1c:	f81d8c64 	str	x4, [x3,#-40]!
/home/pedro/devel/optee/optee_os/lib/libutee/tee_api_objects.c:653
    1c20:	9100c3a4 	add	x4, x29, #0x30
    1c24:	9a810081 	csel	x1, x4, x1, eq
    1c28:	94000ada 	bl	4790 <utee_storage_next_enum>
    1c2c:	2a0003f3 	mov	w19, w0
/home/pedro/devel/optee/optee_os/lib/libutee/tee_api_objects.c:655
    1c30:	f94017a0 	ldr	x0, [x29,#40]
    1c34:	b9000280 	str	w0, [x20]
/home/pedro/devel/optee/optee_os/lib/libutee/tee_api_objects.c:658
    1c38:	7100027f 	cmp	w19, #0x0
    1c3c:	129ffee0 	mov	w0, #0xffff0008            	// #-65528
    1c40:	7a401264 	ccmp	w19, w0, #0x4, ne
    1c44:	54000100 	b.eq	1c64 <TEE_GetNextPersistentObject+0x74>
/home/pedro/devel/optee/optee_os/lib/libutee/tee_api_objects.c:660
    1c48:	121e7a61 	and	w1, w19, #0xfffffffd
    1c4c:	52800020 	mov	w0, #0x1                   	// #1
    1c50:	72be0200 	movk	w0, #0xf010, lsl #16
    1c54:	6b00003f 	cmp	w1, w0
    1c58:	54000060 	b.eq	1c64 <TEE_GetNextPersistentObject+0x74>
/home/pedro/devel/optee/optee_os/lib/libutee/tee_api_objects.c:662
    1c5c:	2a1303e0 	mov	w0, w19
    1c60:	94000986 	bl	4278 <TEE_Panic>
/home/pedro/devel/optee/optee_os/lib/libutee/tee_api_objects.c:665
    1c64:	2a1303e0 	mov	w0, w19
    1c68:	a94153f3 	ldp	x19, x20, [sp,#16]
    1c6c:	a8c57bfd 	ldp	x29, x30, [sp],#80
    1c70:	d65f03c0 	ret

0000000000001c74 <TEE_ReadObjectData>:
TEE_ReadObjectData():
/home/pedro/devel/optee/optee_os/lib/libutee/tee_api_objects.c:671
    1c74:	a9bd7bfd 	stp	x29, x30, [sp,#-48]!
    1c78:	910003fd 	mov	x29, sp
    1c7c:	a90153f3 	stp	x19, x20, [sp,#16]
    1c80:	129fff33 	mov	w19, #0xffff0006            	// #-65530
/home/pedro/devel/optee/optee_os/lib/libutee/tee_api_objects.c:675
    1c84:	b4000140 	cbz	x0, 1cac <TEE_ReadObjectData+0x38>
    1c88:	aa0303f4 	mov	x20, x3
/home/pedro/devel/optee/optee_os/lib/libutee/tee_api_objects.c:680
    1c8c:	9100c3a3 	add	x3, x29, #0x30
/home/pedro/devel/optee/optee_os/lib/libutee/tee_api_objects.c:681
    1c90:	2a0203e2 	mov	w2, w2
/home/pedro/devel/optee/optee_os/lib/libutee/tee_api_objects.c:680
    1c94:	b9400284 	ldr	w4, [x20]
    1c98:	f81f8c64 	str	x4, [x3,#-8]!
/home/pedro/devel/optee/optee_os/lib/libutee/tee_api_objects.c:681
    1c9c:	94000ac0 	bl	479c <utee_storage_obj_read>
    1ca0:	2a0003f3 	mov	w19, w0
/home/pedro/devel/optee/optee_os/lib/libutee/tee_api_objects.c:683
    1ca4:	f94017a0 	ldr	x0, [x29,#40]
    1ca8:	b9000280 	str	w0, [x20]
/home/pedro/devel/optee/optee_os/lib/libutee/tee_api_objects.c:687
    1cac:	121e7a60 	and	w0, w19, #0xfffffffd
    1cb0:	7100027f 	cmp	w19, #0x0
    1cb4:	52800021 	mov	w1, #0x1                   	// #1
    1cb8:	72be0201 	movk	w1, #0xf010, lsl #16
    1cbc:	7a411004 	ccmp	w0, w1, #0x4, ne
    1cc0:	54000060 	b.eq	1ccc <TEE_ReadObjectData+0x58>
/home/pedro/devel/optee/optee_os/lib/libutee/tee_api_objects.c:689
    1cc4:	2a1303e0 	mov	w0, w19
    1cc8:	9400096c 	bl	4278 <TEE_Panic>
/home/pedro/devel/optee/optee_os/lib/libutee/tee_api_objects.c:692
    1ccc:	2a1303e0 	mov	w0, w19
    1cd0:	a94153f3 	ldp	x19, x20, [sp,#16]
    1cd4:	a8c37bfd 	ldp	x29, x30, [sp],#48
    1cd8:	d65f03c0 	ret

0000000000001cdc <TEE_WriteObjectData>:
TEE_WriteObjectData():
/home/pedro/devel/optee/optee_os/lib/libutee/tee_api_objects.c:696
    1cdc:	a9be7bfd 	stp	x29, x30, [sp,#-32]!
    1ce0:	910003fd 	mov	x29, sp
    1ce4:	f9000bf3 	str	x19, [sp,#16]
    1ce8:	129fff33 	mov	w19, #0xffff0006            	// #-65530
/home/pedro/devel/optee/optee_os/lib/libutee/tee_api_objects.c:699
    1cec:	b4000080 	cbz	x0, 1cfc <TEE_WriteObjectData+0x20>
/home/pedro/devel/optee/optee_os/lib/libutee/tee_api_objects.c:709
    1cf0:	2a0203e2 	mov	w2, w2
    1cf4:	94000aad 	bl	47a8 <utee_storage_obj_write>
    1cf8:	2a0003f3 	mov	w19, w0
/home/pedro/devel/optee/optee_os/lib/libutee/tee_api_objects.c:712
    1cfc:	7100027f 	cmp	w19, #0x0
    1d00:	1299f7c0 	mov	w0, #0xffff3041            	// #-53183
    1d04:	7a401264 	ccmp	w19, w0, #0x4, ne
    1d08:	54000140 	b.eq	1d30 <TEE_WriteObjectData+0x54>
/home/pedro/devel/optee/optee_os/lib/libutee/tee_api_objects.c:715
    1d0c:	121e7a61 	and	w1, w19, #0xfffffffd
    1d10:	52800020 	mov	w0, #0x1                   	// #1
    1d14:	72be0200 	movk	w0, #0xf010, lsl #16
    1d18:	6b00003f 	cmp	w1, w0
    1d1c:	1299fe00 	mov	w0, #0xffff300f            	// #-53233
    1d20:	7a401264 	ccmp	w19, w0, #0x4, ne
    1d24:	54000060 	b.eq	1d30 <TEE_WriteObjectData+0x54>
/home/pedro/devel/optee/optee_os/lib/libutee/tee_api_objects.c:717
    1d28:	2a1303e0 	mov	w0, w19
    1d2c:	94000953 	bl	4278 <TEE_Panic>
/home/pedro/devel/optee/optee_os/lib/libutee/tee_api_objects.c:720
    1d30:	2a1303e0 	mov	w0, w19
    1d34:	f9400bf3 	ldr	x19, [sp,#16]
    1d38:	a8c27bfd 	ldp	x29, x30, [sp],#32
    1d3c:	d65f03c0 	ret

0000000000001d40 <TEE_TruncateObjectData>:
TEE_TruncateObjectData():
/home/pedro/devel/optee/optee_os/lib/libutee/tee_api_objects.c:723
    1d40:	a9be7bfd 	stp	x29, x30, [sp,#-32]!
    1d44:	910003fd 	mov	x29, sp
    1d48:	f9000bf3 	str	x19, [sp,#16]
    1d4c:	129fff33 	mov	w19, #0xffff0006            	// #-65530
/home/pedro/devel/optee/optee_os/lib/libutee/tee_api_objects.c:726
    1d50:	b4000080 	cbz	x0, 1d60 <TEE_TruncateObjectData+0x20>
/home/pedro/devel/optee/optee_os/lib/libutee/tee_api_objects.c:731
    1d54:	2a0103e1 	mov	w1, w1
    1d58:	94000a97 	bl	47b4 <utee_storage_obj_trunc>
    1d5c:	2a0003f3 	mov	w19, w0
/home/pedro/devel/optee/optee_os/lib/libutee/tee_api_objects.c:734
    1d60:	7100027f 	cmp	w19, #0x0
    1d64:	1299f7c0 	mov	w0, #0xffff3041            	// #-53183
    1d68:	7a401264 	ccmp	w19, w0, #0x4, ne
    1d6c:	54000100 	b.eq	1d8c <TEE_TruncateObjectData+0x4c>
/home/pedro/devel/optee/optee_os/lib/libutee/tee_api_objects.c:736
    1d70:	121e7a61 	and	w1, w19, #0xfffffffd
    1d74:	52800020 	mov	w0, #0x1                   	// #1
    1d78:	72be0200 	movk	w0, #0xf010, lsl #16
    1d7c:	6b00003f 	cmp	w1, w0
    1d80:	54000060 	b.eq	1d8c <TEE_TruncateObjectData+0x4c>
/home/pedro/devel/optee/optee_os/lib/libutee/tee_api_objects.c:738
    1d84:	2a1303e0 	mov	w0, w19
    1d88:	9400093c 	bl	4278 <TEE_Panic>
/home/pedro/devel/optee/optee_os/lib/libutee/tee_api_objects.c:741
    1d8c:	2a1303e0 	mov	w0, w19
    1d90:	f9400bf3 	ldr	x19, [sp,#16]
    1d94:	a8c27bfd 	ldp	x29, x30, [sp],#32
    1d98:	d65f03c0 	ret

0000000000001d9c <TEE_SeekObjectData>:
TEE_SeekObjectData():
/home/pedro/devel/optee/optee_os/lib/libutee/tee_api_objects.c:745
    1d9c:	a9bb7bfd 	stp	x29, x30, [sp,#-80]!
    1da0:	910003fd 	mov	x29, sp
    1da4:	a90153f3 	stp	x19, x20, [sp,#16]
/home/pedro/devel/optee/optee_os/lib/libutee/tee_api_objects.c:750
    1da8:	129fff33 	mov	w19, #0xffff0006            	// #-65530
/home/pedro/devel/optee/optee_os/lib/libutee/tee_api_objects.c:745
    1dac:	a9025bf5 	stp	x21, x22, [sp,#32]
/home/pedro/devel/optee/optee_os/lib/libutee/tee_api_objects.c:749
    1db0:	b40003e0 	cbz	x0, 1e2c <TEE_SeekObjectData+0x90>
    1db4:	aa0003f6 	mov	x22, x0
    1db8:	2a0103f4 	mov	w20, w1
    1dbc:	2a0203f5 	mov	w21, w2
/home/pedro/devel/optee/optee_os/lib/libutee/tee_api_objects.c:754
    1dc0:	9100c3a1 	add	x1, x29, #0x30
    1dc4:	94000a28 	bl	4664 <utee_cryp_obj_get_info>
    1dc8:	2a0003f3 	mov	w19, w0
/home/pedro/devel/optee/optee_os/lib/libutee/tee_api_objects.c:755
    1dcc:	35000300 	cbnz	w0, 1e2c <TEE_SeekObjectData+0x90>
/home/pedro/devel/optee/optee_os/lib/libutee/tee_api_objects.c:758
    1dd0:	710006bf 	cmp	w21, #0x1
    1dd4:	540000c0 	b.eq	1dec <TEE_SeekObjectData+0x50>
    1dd8:	34000115 	cbz	w21, 1df8 <TEE_SeekObjectData+0x5c>
    1ddc:	71000abf 	cmp	w21, #0x2
    1de0:	54000180 	b.eq	1e10 <TEE_SeekObjectData+0x74>
/home/pedro/devel/optee/optee_os/lib/libutee/tee_api_objects.c:784
    1de4:	129ffef3 	mov	w19, #0xffff0008            	// #-65528
    1de8:	14000011 	b	1e2c <TEE_SeekObjectData+0x90>
/home/pedro/devel/optee/optee_os/lib/libutee/tee_api_objects.c:769
    1dec:	b94047a0 	ldr	w0, [x29,#68]
/home/pedro/devel/optee/optee_os/lib/libutee/tee_api_objects.c:766
    1df0:	7100029f 	cmp	w20, #0x0
    1df4:	5400014c 	b.gt	1e1c <TEE_SeekObjectData+0x80>
/home/pedro/devel/optee/optee_os/lib/libutee/tee_api_objects.c:788
    1df8:	2a1503e2 	mov	w2, w21
    1dfc:	2a1403e1 	mov	w1, w20
    1e00:	aa1603e0 	mov	x0, x22
    1e04:	94000a6f 	bl	47c0 <utee_storage_obj_seek>
    1e08:	2a0003f3 	mov	w19, w0
    1e0c:	14000008 	b	1e2c <TEE_SeekObjectData+0x90>
/home/pedro/devel/optee/optee_os/lib/libutee/tee_api_objects.c:776
    1e10:	7100029f 	cmp	w20, #0x0
    1e14:	54ffff2d 	b.le	1df8 <TEE_SeekObjectData+0x5c>
/home/pedro/devel/optee/optee_os/lib/libutee/tee_api_objects.c:778 (discriminator 1)
    1e18:	b94043a0 	ldr	w0, [x29,#64]
    1e1c:	0b000281 	add	w1, w20, w0
/home/pedro/devel/optee/optee_os/lib/libutee/tee_api_objects.c:771 (discriminator 1)
    1e20:	1299fe13 	mov	w19, #0xffff300f            	// #-53233
/home/pedro/devel/optee/optee_os/lib/libutee/tee_api_objects.c:776 (discriminator 1)
    1e24:	6b01001f 	cmp	w0, w1
    1e28:	54fffe89 	b.ls	1df8 <TEE_SeekObjectData+0x5c>
/home/pedro/devel/optee/optee_os/lib/libutee/tee_api_objects.c:791
    1e2c:	7100027f 	cmp	w19, #0x0
    1e30:	1299fe00 	mov	w0, #0xffff300f            	// #-53233
    1e34:	7a401264 	ccmp	w19, w0, #0x4, ne
    1e38:	54000100 	b.eq	1e58 <TEE_SeekObjectData+0xbc>
/home/pedro/devel/optee/optee_os/lib/libutee/tee_api_objects.c:793
    1e3c:	121e7a61 	and	w1, w19, #0xfffffffd
    1e40:	52800020 	mov	w0, #0x1                   	// #1
    1e44:	72be0200 	movk	w0, #0xf010, lsl #16
    1e48:	6b00003f 	cmp	w1, w0
    1e4c:	54000060 	b.eq	1e58 <TEE_SeekObjectData+0xbc>
/home/pedro/devel/optee/optee_os/lib/libutee/tee_api_objects.c:795
    1e50:	2a1303e0 	mov	w0, w19
    1e54:	94000909 	bl	4278 <TEE_Panic>
/home/pedro/devel/optee/optee_os/lib/libutee/tee_api_objects.c:798
    1e58:	2a1303e0 	mov	w0, w19
    1e5c:	a94153f3 	ldp	x19, x20, [sp,#16]
    1e60:	a9425bf5 	ldp	x21, x22, [sp,#32]
    1e64:	a8c57bfd 	ldp	x29, x30, [sp],#80
    1e68:	d65f03c0 	ret

0000000000001e6c <TEE_FreeOperation>:
TEE_FreeOperation():
/home/pedro/devel/optee/optee_os/lib/libutee/tee_api_operations.c:367
    1e6c:	a9be7bfd 	stp	x29, x30, [sp,#-32]!
    1e70:	910003fd 	mov	x29, sp
    1e74:	f9000bf3 	str	x19, [sp,#16]
    1e78:	aa0003f3 	mov	x19, x0
/home/pedro/devel/optee/optee_os/lib/libutee/tee_api_operations.c:370
    1e7c:	b5000060 	cbnz	x0, 1e88 <TEE_FreeOperation+0x1c>
/home/pedro/devel/optee/optee_os/lib/libutee/tee_api_operations.c:371
    1e80:	52800000 	mov	w0, #0x0                   	// #0
    1e84:	940008fd 	bl	4278 <TEE_Panic>
/home/pedro/devel/optee/optee_os/lib/libutee/tee_api_operations.c:378
    1e88:	b9405a60 	ldr	w0, [x19,#88]
    1e8c:	940009e1 	bl	4610 <utee_cryp_state_free>
/home/pedro/devel/optee/optee_os/lib/libutee/tee_api_operations.c:379
    1e90:	34000040 	cbz	w0, 1e98 <TEE_FreeOperation+0x2c>
/home/pedro/devel/optee/optee_os/lib/libutee/tee_api_operations.c:380
    1e94:	940008f9 	bl	4278 <TEE_Panic>
/home/pedro/devel/optee/optee_os/lib/libutee/tee_api_operations.c:382
    1e98:	f9401e60 	ldr	x0, [x19,#56]
    1e9c:	97fffcc0 	bl	119c <TEE_Free>
/home/pedro/devel/optee/optee_os/lib/libutee/tee_api_operations.c:383
    1ea0:	aa1303e0 	mov	x0, x19
/home/pedro/devel/optee/optee_os/lib/libutee/tee_api_operations.c:384
    1ea4:	f9400bf3 	ldr	x19, [sp,#16]
    1ea8:	a8c27bfd 	ldp	x29, x30, [sp],#32
/home/pedro/devel/optee/optee_os/lib/libutee/tee_api_operations.c:383
    1eac:	17fffcbc 	b	119c <TEE_Free>

0000000000001eb0 <TEE_AllocateOperation>:
TEE_AllocateOperation():
/home/pedro/devel/optee/optee_os/lib/libutee/tee_api_operations.c:60
    1eb0:	a9b97bfd 	stp	x29, x30, [sp,#-112]!
    1eb4:	910003fd 	mov	x29, sp
    1eb8:	a90363f7 	stp	x23, x24, [sp,#48]
    1ebc:	2a0203f8 	mov	w24, w2
    1ec0:	a90153f3 	stp	x19, x20, [sp,#16]
    1ec4:	2a0303f7 	mov	w23, w3
    1ec8:	a9025bf5 	stp	x21, x22, [sp,#32]
    1ecc:	2a0103f3 	mov	w19, w1
    1ed0:	a9046bf9 	stp	x25, x26, [sp,#64]
    1ed4:	a90573fb 	stp	x27, x28, [sp,#80]
    1ed8:	f90037a0 	str	x0, [x29,#104]
/home/pedro/devel/optee/optee_os/lib/libutee/tee_api_operations.c:69
    1edc:	b5000040 	cbnz	x0, 1ee4 <TEE_AllocateOperation+0x34>
/home/pedro/devel/optee/optee_os/lib/libutee/tee_api_operations.c:70
    1ee0:	940008e6 	bl	4278 <TEE_Panic>
/home/pedro/devel/optee/optee_os/lib/libutee/tee_api_operations.c:72
    1ee4:	52808200 	mov	w0, #0x410                 	// #1040
    1ee8:	72a20000 	movk	w0, #0x1000, lsl #16
    1eec:	6b00027f 	cmp	w19, w0
    1ef0:	54002cc0 	b.eq	2488 <TEE_AllocateOperation+0x5d8>
/home/pedro/devel/optee/optee_os/lib/libutee/tee_api_operations.c:76
    1ef4:	52882620 	mov	w0, #0x4131                	// #16689
    1ef8:	72ae0000 	movk	w0, #0x7000, lsl #16
    1efc:	6b00027f 	cmp	w19, w0
    1f00:	54000e60 	b.eq	20cc <TEE_AllocateOperation+0x21c>
    1f04:	540007c8 	b.hi	1ffc <TEE_AllocateOperation+0x14c>
    1f08:	52842620 	mov	w0, #0x2131                	// #8497
    1f0c:	72ae0000 	movk	w0, #0x7000, lsl #16
    1f10:	6b00027f 	cmp	w19, w0
    1f14:	54000aa0 	b.eq	2068 <TEE_AllocateOperation+0x1b8>
    1f18:	54000568 	b.hi	1fc4 <TEE_AllocateOperation+0x114>
    1f1c:	52820820 	mov	w0, #0x1041                	// #4161
    1f20:	72ae0000 	movk	w0, #0x7000, lsl #16
    1f24:	6b00027f 	cmp	w19, w0
    1f28:	54000840 	b.eq	2030 <TEE_AllocateOperation+0x180>
    1f2c:	11400400 	add	w0, w0, #0x1, lsl #12
    1f30:	6b00027f 	cmp	w19, w0
    1f34:	54000d40 	b.eq	20dc <TEE_AllocateOperation+0x22c>
/home/pedro/devel/optee/optee_os/lib/libutee/tee_api_operations.c:131
    1f38:	52842620 	mov	w0, #0x2131                	// #8497
    1f3c:	72ae0000 	movk	w0, #0x7000, lsl #16
    1f40:	6b00027f 	cmp	w19, w0
    1f44:	540009e0 	b.eq	2080 <TEE_AllocateOperation+0x1d0>
    1f48:	54001ae8 	b.hi	22a4 <TEE_AllocateOperation+0x3f4>
    1f4c:	5280a260 	mov	w0, #0x513                 	// #1299
    1f50:	72a60000 	movk	w0, #0x3000, lsl #16
    1f54:	6b00027f 	cmp	w19, w0
    1f58:	54001000 	b.eq	2158 <TEE_AllocateOperation+0x2a8>
    1f5c:	54001208 	b.hi	219c <TEE_AllocateOperation+0x2ec>
    1f60:	52806200 	mov	w0, #0x310                 	// #784
    1f64:	72a20000 	movk	w0, #0x1000, lsl #16
    1f68:	6b00027f 	cmp	w19, w0
    1f6c:	54002a80 	b.eq	24bc <TEE_AllocateOperation+0x60c>
    1f70:	52802220 	mov	w0, #0x111                 	// #273
    1f74:	54000dc8 	b.hi	212c <TEE_AllocateOperation+0x27c>
    1f78:	72a20000 	movk	w0, #0x1000, lsl #16
    1f7c:	6b00027f 	cmp	w19, w0
    1f80:	54000c08 	b.hi	2100 <TEE_AllocateOperation+0x250>
    1f84:	52802200 	mov	w0, #0x110                 	// #272
    1f88:	72a20000 	movk	w0, #0x1000, lsl #16
    1f8c:	6b00027f 	cmp	w19, w0
    1f90:	540029a2 	b.cs	24c4 <TEE_AllocateOperation+0x614>
    1f94:	52800200 	mov	w0, #0x10                  	// #16
    1f98:	72a20000 	movk	w0, #0x1000, lsl #16
    1f9c:	6b00027f 	cmp	w19, w0
    1fa0:	540000e3 	b.cc	1fbc <TEE_AllocateOperation+0x10c>
    1fa4:	11000400 	add	w0, w0, #0x1
    1fa8:	6b00027f 	cmp	w19, w0
    1fac:	540028c9 	b.ls	24c4 <TEE_AllocateOperation+0x614>
    1fb0:	11000800 	add	w0, w0, #0x2
    1fb4:	6b00027f 	cmp	w19, w0
    1fb8:	54002860 	b.eq	24c4 <TEE_AllocateOperation+0x614>
/home/pedro/devel/optee/optee_os/lib/libutee/tee_api_operations.c:270
    1fbc:	129ffeb4 	mov	w20, #0xffff000a            	// #-65526
    1fc0:	1400003b 	b	20ac <TEE_AllocateOperation+0x1fc>
/home/pedro/devel/optee/optee_os/lib/libutee/tee_api_operations.c:76
    1fc4:	52862620 	mov	w0, #0x3131                	// #12593
    1fc8:	72ae0000 	movk	w0, #0x7000, lsl #16
    1fcc:	6b00027f 	cmp	w19, w0
    1fd0:	54000680 	b.eq	20a0 <TEE_AllocateOperation+0x1f0>
    1fd4:	113c4000 	add	w0, w0, #0xf10
    1fd8:	6b00027f 	cmp	w19, w0
    1fdc:	54000860 	b.eq	20e8 <TEE_AllocateOperation+0x238>
    1fe0:	52860820 	mov	w0, #0x3041                	// #12353
    1fe4:	72ae0000 	movk	w0, #0x7000, lsl #16
    1fe8:	6b00027f 	cmp	w19, w0
    1fec:	54fffa61 	b.ne	1f38 <TEE_AllocateOperation+0x88>
/home/pedro/devel/optee/optee_os/lib/libutee/tee_api_operations.c:81
    1ff0:	129ffeb4 	mov	w20, #0xffff000a            	// #-65526
/home/pedro/devel/optee/optee_os/lib/libutee/tee_api_operations.c:110
    1ff4:	710402ff 	cmp	w23, #0x100
    1ff8:	14000010 	b	2038 <TEE_AllocateOperation+0x188>
/home/pedro/devel/optee/optee_os/lib/libutee/tee_api_operations.c:76
    1ffc:	52840840 	mov	w0, #0x2042                	// #8258
    2000:	72b00000 	movk	w0, #0x8000, lsl #16
    2004:	6b00027f 	cmp	w19, w0
    2008:	540006a0 	b.eq	20dc <TEE_AllocateOperation+0x22c>
    200c:	540001a8 	b.hi	2040 <TEE_AllocateOperation+0x190>
    2010:	528a0820 	mov	w0, #0x5041                	// #20545
    2014:	72ae0000 	movk	w0, #0x7000, lsl #16
    2018:	6b00027f 	cmp	w19, w0
    201c:	540006c0 	b.eq	20f4 <TEE_AllocateOperation+0x244>
    2020:	52820840 	mov	w0, #0x1042                	// #4162
    2024:	72b00000 	movk	w0, #0x8000, lsl #16
    2028:	6b00027f 	cmp	w19, w0
    202c:	54fff861 	b.ne	1f38 <TEE_AllocateOperation+0x88>
/home/pedro/devel/optee/optee_os/lib/libutee/tee_api_operations.c:98
    2030:	710302ff 	cmp	w23, #0xc0
/home/pedro/devel/optee/optee_os/lib/libutee/tee_api_operations.c:81
    2034:	129ffeb4 	mov	w20, #0xffff000a            	// #-65526
/home/pedro/devel/optee/optee_os/lib/libutee/tee_api_operations.c:122
    2038:	540003a1 	b.ne	20ac <TEE_AllocateOperation+0x1fc>
    203c:	17ffffbf 	b	1f38 <TEE_AllocateOperation+0x88>
/home/pedro/devel/optee/optee_os/lib/libutee/tee_api_operations.c:76
    2040:	52880840 	mov	w0, #0x4042                	// #16450
    2044:	72b00000 	movk	w0, #0x8000, lsl #16
    2048:	6b00027f 	cmp	w19, w0
    204c:	540004e0 	b.eq	20e8 <TEE_AllocateOperation+0x238>
    2050:	11400400 	add	w0, w0, #0x1, lsl #12
    2054:	6b00027f 	cmp	w19, w0
    2058:	540004e0 	b.eq	20f4 <TEE_AllocateOperation+0x244>
    205c:	52860840 	mov	w0, #0x3042                	// #12354
    2060:	72b00000 	movk	w0, #0x8000, lsl #16
    2064:	17ffffe1 	b	1fe8 <TEE_AllocateOperation+0x138>
/home/pedro/devel/optee/optee_os/lib/libutee/tee_api_operations.c:80
    2068:	510802e0 	sub	w0, w23, #0x200
/home/pedro/devel/optee/optee_os/lib/libutee/tee_api_operations.c:81
    206c:	129ffeb4 	mov	w20, #0xffff000a            	// #-65526
/home/pedro/devel/optee/optee_os/lib/libutee/tee_api_operations.c:80
    2070:	7108001f 	cmp	w0, #0x200
    2074:	540001c8 	b.hi	20ac <TEE_AllocateOperation+0x1fc>
/home/pedro/devel/optee/optee_os/lib/libutee/tee_api_operations.c:82
    2078:	f24016ff 	tst	x23, #0x3f
    207c:	54000181 	b.ne	20ac <TEE_AllocateOperation+0x1fc>
/home/pedro/devel/optee/optee_os/lib/libutee/tee_api_operations.c:177
    2080:	71000b1f 	cmp	w24, #0x2
    2084:	540029c0 	b.eq	25bc <TEE_AllocateOperation+0x70c>
/home/pedro/devel/optee/optee_os/lib/libutee/tee_api_operations.c:180
    2088:	71000f1f 	cmp	w24, #0x3
    208c:	54fff981 	b.ne	1fbc <TEE_AllocateOperation+0x10c>
/home/pedro/devel/optee/optee_os/lib/libutee/tee_api_operations.c:67
    2090:	52800019 	mov	w25, #0x0                   	// #0
/home/pedro/devel/optee/optee_os/lib/libutee/tee_api_operations.c:66
    2094:	5280001a 	mov	w26, #0x0                   	// #0
/home/pedro/devel/optee/optee_os/lib/libutee/tee_api_operations.c:181
    2098:	52800403 	mov	w3, #0x20                  	// #32
    209c:	140000d6 	b	23f4 <TEE_AllocateOperation+0x544>
/home/pedro/devel/optee/optee_os/lib/libutee/tee_api_operations.c:87
    20a0:	712002ff 	cmp	w23, #0x800
/home/pedro/devel/optee/optee_os/lib/libutee/tee_api_operations.c:81
    20a4:	129ffeb4 	mov	w20, #0xffff000a            	// #-65526
/home/pedro/devel/optee/optee_os/lib/libutee/tee_api_operations.c:92
    20a8:	54fffec0 	b.eq	2080 <TEE_AllocateOperation+0x1d0>
/home/pedro/devel/optee/optee_os/lib/libutee/tee_api_operations.c:364
    20ac:	2a1403e0 	mov	w0, w20
    20b0:	a94153f3 	ldp	x19, x20, [sp,#16]
    20b4:	a9425bf5 	ldp	x21, x22, [sp,#32]
    20b8:	a94363f7 	ldp	x23, x24, [sp,#48]
    20bc:	a9446bf9 	ldp	x25, x26, [sp,#64]
    20c0:	a94573fb 	ldp	x27, x28, [sp,#80]
    20c4:	a8c77bfd 	ldp	x29, x30, [sp],#112
    20c8:	d65f03c0 	ret
/home/pedro/devel/optee/optee_os/lib/libutee/tee_api_operations.c:92
    20cc:	12157ae0 	and	w0, w23, #0xfffffbff
/home/pedro/devel/optee/optee_os/lib/libutee/tee_api_operations.c:81
    20d0:	129ffeb4 	mov	w20, #0xffff000a            	// #-65526
/home/pedro/devel/optee/optee_os/lib/libutee/tee_api_operations.c:92
    20d4:	7120001f 	cmp	w0, #0x800
    20d8:	17fffff4 	b	20a8 <TEE_AllocateOperation+0x1f8>
/home/pedro/devel/optee/optee_os/lib/libutee/tee_api_operations.c:81
    20dc:	129ffeb4 	mov	w20, #0xffff000a            	// #-65526
/home/pedro/devel/optee/optee_os/lib/libutee/tee_api_operations.c:104
    20e0:	710382ff 	cmp	w23, #0xe0
    20e4:	17ffffd5 	b	2038 <TEE_AllocateOperation+0x188>
/home/pedro/devel/optee/optee_os/lib/libutee/tee_api_operations.c:81
    20e8:	129ffeb4 	mov	w20, #0xffff000a            	// #-65526
/home/pedro/devel/optee/optee_os/lib/libutee/tee_api_operations.c:116
    20ec:	710602ff 	cmp	w23, #0x180
    20f0:	17ffffd2 	b	2038 <TEE_AllocateOperation+0x188>
/home/pedro/devel/optee/optee_os/lib/libutee/tee_api_operations.c:81
    20f4:	129ffeb4 	mov	w20, #0xffff000a            	// #-65526
/home/pedro/devel/optee/optee_os/lib/libutee/tee_api_operations.c:122
    20f8:	710826ff 	cmp	w23, #0x209
    20fc:	17ffffcf 	b	2038 <TEE_AllocateOperation+0x188>
/home/pedro/devel/optee/optee_os/lib/libutee/tee_api_operations.c:131
    2100:	52802260 	mov	w0, #0x113                 	// #275
    2104:	72a20000 	movk	w0, #0x1000, lsl #16
    2108:	6b00027f 	cmp	w19, w0
    210c:	54001dc0 	b.eq	24c4 <TEE_AllocateOperation+0x614>
    2110:	1103f400 	add	w0, w0, #0xfd
    2114:	6b00027f 	cmp	w19, w0
    2118:	54fff521 	b.ne	1fbc <TEE_AllocateOperation+0x10c>
    211c:	5280001c 	mov	w28, #0x0                   	// #0
/home/pedro/devel/optee/optee_os/lib/libutee/tee_api_operations.c:67
    2120:	52800019 	mov	w25, #0x0                   	// #0
/home/pedro/devel/optee/optee_os/lib/libutee/tee_api_operations.c:64
    2124:	d2800036 	mov	x22, #0x1                   	// #1
    2128:	140000df 	b	24a4 <TEE_AllocateOperation+0x5f4>
/home/pedro/devel/optee/optee_os/lib/libutee/tee_api_operations.c:131
    212c:	72a60000 	movk	w0, #0x3000, lsl #16
    2130:	6b00027f 	cmp	w19, w0
    2134:	54000208 	b.hi	2174 <TEE_AllocateOperation+0x2c4>
    2138:	52802200 	mov	w0, #0x110                 	// #272
    213c:	72a60000 	movk	w0, #0x3000, lsl #16
    2140:	6b00027f 	cmp	w19, w0
    2144:	540000a2 	b.cs	2158 <TEE_AllocateOperation+0x2a8>
    2148:	12a60000 	mov	w0, #0xcfffffff            	// #-805306369
    214c:	0b000260 	add	w0, w19, w0
    2150:	7100141f 	cmp	w0, #0x5
    2154:	54fff348 	b.hi	1fbc <TEE_AllocateOperation+0x10c>
/home/pedro/devel/optee/optee_os/lib/libutee/tee_api_operations.c:81
    2158:	129ffeb4 	mov	w20, #0xffff000a            	// #-65526
/home/pedro/devel/optee/optee_os/lib/libutee/tee_api_operations.c:264
    215c:	7100131f 	cmp	w24, #0x4
    2160:	54fffa61 	b.ne	20ac <TEE_AllocateOperation+0x1fc>
/home/pedro/devel/optee/optee_os/lib/libutee/tee_api_operations.c:67
    2164:	52800019 	mov	w25, #0x0                   	// #0
/home/pedro/devel/optee/optee_os/lib/libutee/tee_api_operations.c:66
    2168:	5280001a 	mov	w26, #0x0                   	// #0
/home/pedro/devel/optee/optee_os/lib/libutee/tee_api_operations.c:266
    216c:	52800103 	mov	w3, #0x8                   	// #8
    2170:	140000a1 	b	23f4 <TEE_AllocateOperation+0x544>
/home/pedro/devel/optee/optee_os/lib/libutee/tee_api_operations.c:131
    2174:	52802260 	mov	w0, #0x113                 	// #275
    2178:	72a60000 	movk	w0, #0x3000, lsl #16
    217c:	6b00027f 	cmp	w19, w0
    2180:	54fffec0 	b.eq	2158 <TEE_AllocateOperation+0x2a8>
    2184:	54fff1c3 	b.cc	1fbc <TEE_AllocateOperation+0x10c>
    2188:	529f5e00 	mov	w0, #0xfaf0                	// #64240
    218c:	72b9ffe0 	movk	w0, #0xcfff, lsl #16
    2190:	0b000260 	add	w0, w19, w0
    2194:	7100041f 	cmp	w0, #0x1
    2198:	17ffffef 	b	2154 <TEE_AllocateOperation+0x2a4>
    219c:	52804600 	mov	w0, #0x230                 	// #560
    21a0:	72ac0420 	movk	w0, #0x6021, lsl #16
    21a4:	6b00027f 	cmp	w19, w0
    21a8:	540003a0 	b.eq	221c <TEE_AllocateOperation+0x36c>
    21ac:	54000468 	b.hi	2238 <TEE_AllocateOperation+0x388>
    21b0:	528000c0 	mov	w0, #0x6                   	// #6
    21b4:	72aa0000 	movk	w0, #0x5000, lsl #16
    21b8:	6b00027f 	cmp	w19, w0
    21bc:	54000228 	b.hi	2200 <TEE_AllocateOperation+0x350>
    21c0:	52800020 	mov	w0, #0x1                   	// #1
    21c4:	72aa0000 	movk	w0, #0x5000, lsl #16
    21c8:	6b00027f 	cmp	w19, w0
    21cc:	54001902 	b.cs	24ec <TEE_AllocateOperation+0x63c>
    21d0:	5280e200 	mov	w0, #0x710                 	// #1808
    21d4:	72a80000 	movk	w0, #0x4000, lsl #16
    21d8:	6b00027f 	cmp	w19, w0
    21dc:	54001740 	b.eq	24c4 <TEE_AllocateOperation+0x614>
    21e0:	11040000 	add	w0, w0, #0x100
    21e4:	6b00027f 	cmp	w19, w0
    21e8:	54fff9a0 	b.eq	211c <TEE_AllocateOperation+0x26c>
    21ec:	5280c200 	mov	w0, #0x610                 	// #1552
    21f0:	72a60000 	movk	w0, #0x3000, lsl #16
    21f4:	6b00027f 	cmp	w19, w0
    21f8:	54ffee21 	b.ne	1fbc <TEE_AllocateOperation+0x10c>
    21fc:	17ffffd7 	b	2158 <TEE_AllocateOperation+0x2a8>
    2200:	52800600 	mov	w0, #0x30                  	// #48
    2204:	72ac0000 	movk	w0, #0x6000, lsl #16
    2208:	6b00027f 	cmp	w19, w0
    220c:	54001620 	b.eq	24d0 <TEE_AllocateOperation+0x620>
    2210:	11040000 	add	w0, w0, #0x100
    2214:	6b00027f 	cmp	w19, w0
    2218:	54ffed21 	b.ne	1fbc <TEE_AllocateOperation+0x10c>
/home/pedro/devel/optee/optee_os/lib/libutee/tee_api_operations.c:193
    221c:	34001d98 	cbz	w24, 25cc <TEE_AllocateOperation+0x71c>
/home/pedro/devel/optee/optee_os/lib/libutee/tee_api_operations.c:195
    2220:	7100071f 	cmp	w24, #0x1
    2224:	54ffecc1 	b.ne	1fbc <TEE_AllocateOperation+0x10c>
/home/pedro/devel/optee/optee_os/lib/libutee/tee_api_operations.c:67
    2228:	52800019 	mov	w25, #0x0                   	// #0
/home/pedro/devel/optee/optee_os/lib/libutee/tee_api_operations.c:196
    222c:	2a1803fa 	mov	w26, w24
/home/pedro/devel/optee/optee_os/lib/libutee/tee_api_operations.c:197
    2230:	52800083 	mov	w3, #0x4                   	// #4
    2234:	14000070 	b	23f4 <TEE_AllocateOperation+0x544>
/home/pedro/devel/optee/optee_os/lib/libutee/tee_api_operations.c:131
    2238:	52804600 	mov	w0, #0x230                 	// #560
    223c:	72ac0c20 	movk	w0, #0x6061, lsl #16
    2240:	6b00027f 	cmp	w19, w0
    2244:	54fffec0 	b.eq	221c <TEE_AllocateOperation+0x36c>
    2248:	54000168 	b.hi	2274 <TEE_AllocateOperation+0x3c4>
    224c:	52804600 	mov	w0, #0x230                 	// #560
    2250:	72ac0820 	movk	w0, #0x6041, lsl #16
    2254:	6b00027f 	cmp	w19, w0
    2258:	54fffe20 	b.eq	221c <TEE_AllocateOperation+0x36c>
    225c:	11440000 	add	w0, w0, #0x100, lsl #12
    2260:	6b00027f 	cmp	w19, w0
    2264:	54fffdc0 	b.eq	221c <TEE_AllocateOperation+0x36c>
    2268:	52804600 	mov	w0, #0x230                 	// #560
    226c:	72ac0620 	movk	w0, #0x6031, lsl #16
    2270:	17ffffe9 	b	2214 <TEE_AllocateOperation+0x364>
    2274:	52830600 	mov	w0, #0x1830                	// #6192
    2278:	72ae0000 	movk	w0, #0x7000, lsl #16
    227c:	6b00027f 	cmp	w19, w0
    2280:	54fff000 	b.eq	2080 <TEE_AllocateOperation+0x1d0>
    2284:	11204400 	add	w0, w0, #0x811
    2288:	6b00027f 	cmp	w19, w0
    228c:	54ffefa0 	b.eq	2080 <TEE_AllocateOperation+0x1d0>
    2290:	52820820 	mov	w0, #0x1041                	// #4161
    2294:	72ae0000 	movk	w0, #0x7000, lsl #16
    2298:	6b00027f 	cmp	w19, w0
    229c:	54ffe901 	b.ne	1fbc <TEE_AllocateOperation+0x10c>
    22a0:	17ffff78 	b	2080 <TEE_AllocateOperation+0x1d0>
    22a4:	52800640 	mov	w0, #0x32                  	// #50
    22a8:	72b00000 	movk	w0, #0x8000, lsl #16
    22ac:	6b00027f 	cmp	w19, w0
    22b0:	54000960 	b.eq	23dc <TEE_AllocateOperation+0x52c>
    22b4:	540006c8 	b.hi	238c <TEE_AllocateOperation+0x4dc>
    22b8:	528a0820 	mov	w0, #0x5041                	// #20545
    22bc:	72ae0000 	movk	w0, #0x7000, lsl #16
    22c0:	6b00027f 	cmp	w19, w0
    22c4:	54ffede0 	b.eq	2080 <TEE_AllocateOperation+0x1d0>
    22c8:	54000308 	b.hi	2328 <TEE_AllocateOperation+0x478>
    22cc:	52870600 	mov	w0, #0x3830                	// #14384
    22d0:	72ae0000 	movk	w0, #0x7000, lsl #16
    22d4:	6b00027f 	cmp	w19, w0
    22d8:	54ffed40 	b.eq	2080 <TEE_AllocateOperation+0x1d0>
    22dc:	54000148 	b.hi	2304 <TEE_AllocateOperation+0x454>
    22e0:	52860820 	mov	w0, #0x3041                	// #12353
    22e4:	72ae0000 	movk	w0, #0x7000, lsl #16
    22e8:	6b00027f 	cmp	w19, w0
    22ec:	54ffeca0 	b.eq	2080 <TEE_AllocateOperation+0x1d0>
    22f0:	1103c000 	add	w0, w0, #0xf0
    22f4:	6b00027f 	cmp	w19, w0
    22f8:	54ffec40 	b.eq	2080 <TEE_AllocateOperation+0x1d0>
    22fc:	52850600 	mov	w0, #0x2830                	// #10288
    2300:	17ffffe5 	b	2294 <TEE_AllocateOperation+0x3e4>
    2304:	52882620 	mov	w0, #0x4131                	// #16689
    2308:	72ae0000 	movk	w0, #0x7000, lsl #16
    230c:	6b00027f 	cmp	w19, w0
    2310:	54ffeb80 	b.eq	2080 <TEE_AllocateOperation+0x1d0>
    2314:	111bfc00 	add	w0, w0, #0x6ff
    2318:	6b00027f 	cmp	w19, w0
    231c:	54ffeb20 	b.eq	2080 <TEE_AllocateOperation+0x1d0>
    2320:	52880820 	mov	w0, #0x4041                	// #16449
    2324:	17ffffdc 	b	2294 <TEE_AllocateOperation+0x3e4>
    2328:	52872600 	mov	w0, #0x3930                	// #14640
    232c:	72ae0620 	movk	w0, #0x7031, lsl #16
    2330:	6b00027f 	cmp	w19, w0
    2334:	54ffea60 	b.eq	2080 <TEE_AllocateOperation+0x1d0>
    2338:	54000168 	b.hi	2364 <TEE_AllocateOperation+0x4b4>
    233c:	528d0600 	mov	w0, #0x6830                	// #26672
    2340:	72ae0000 	movk	w0, #0x7000, lsl #16
    2344:	6b00027f 	cmp	w19, w0
    2348:	54ffe9c0 	b.eq	2080 <TEE_AllocateOperation+0x1d0>
    234c:	52852600 	mov	w0, #0x2930                	// #10544
    2350:	72ae0420 	movk	w0, #0x7021, lsl #16
    2354:	6b00027f 	cmp	w19, w0
    2358:	54ffe940 	b.eq	2080 <TEE_AllocateOperation+0x1d0>
    235c:	528b0600 	mov	w0, #0x5830                	// #22576
    2360:	17ffffcd 	b	2294 <TEE_AllocateOperation+0x3e4>
    2364:	528b2600 	mov	w0, #0x5930                	// #22832
    2368:	72ae0a20 	movk	w0, #0x7051, lsl #16
    236c:	6b00027f 	cmp	w19, w0
    2370:	54ffe880 	b.eq	2080 <TEE_AllocateOperation+0x1d0>
    2374:	11440400 	add	w0, w0, #0x101, lsl #12
    2378:	6b00027f 	cmp	w19, w0
    237c:	54ffe820 	b.eq	2080 <TEE_AllocateOperation+0x1d0>
    2380:	52892600 	mov	w0, #0x4930                	// #18736
    2384:	72ae0820 	movk	w0, #0x7041, lsl #16
    2388:	17ffffc4 	b	2298 <TEE_AllocateOperation+0x3e8>
    238c:	52861820 	mov	w0, #0x30c1                	// #12481
    2390:	72b00000 	movk	w0, #0x8000, lsl #16
    2394:	6b00027f 	cmp	w19, w0
    2398:	54000468 	b.hi	2424 <TEE_AllocateOperation+0x574>
    239c:	52861800 	mov	w0, #0x30c0                	// #12480
    23a0:	72b00000 	movk	w0, #0x8000, lsl #16
    23a4:	6b00027f 	cmp	w19, w0
    23a8:	540001a2 	b.cs	23dc <TEE_AllocateOperation+0x52c>
    23ac:	52840840 	mov	w0, #0x2042                	// #8258
    23b0:	72b00000 	movk	w0, #0x8000, lsl #16
    23b4:	6b00027f 	cmp	w19, w0
    23b8:	54000120 	b.eq	23dc <TEE_AllocateOperation+0x52c>
    23bc:	54000228 	b.hi	2400 <TEE_AllocateOperation+0x550>
    23c0:	52820840 	mov	w0, #0x1042                	// #4162
    23c4:	72b00000 	movk	w0, #0x8000, lsl #16
    23c8:	6b00027f 	cmp	w19, w0
    23cc:	54000080 	b.eq	23dc <TEE_AllocateOperation+0x52c>
    23d0:	1101f800 	add	w0, w0, #0x7e
    23d4:	6b00027f 	cmp	w19, w0
    23d8:	54ffdf21 	b.ne	1fbc <TEE_AllocateOperation+0x10c>
/home/pedro/devel/optee/optee_os/lib/libutee/tee_api_operations.c:81
    23dc:	129ffeb4 	mov	w20, #0xffff000a            	// #-65526
/home/pedro/devel/optee/optee_os/lib/libutee/tee_api_operations.c:232
    23e0:	71001b1f 	cmp	w24, #0x6
    23e4:	54ffe641 	b.ne	20ac <TEE_AllocateOperation+0x1fc>
/home/pedro/devel/optee/optee_os/lib/libutee/tee_api_operations.c:67
    23e8:	52800019 	mov	w25, #0x0                   	// #0
/home/pedro/devel/optee/optee_os/lib/libutee/tee_api_operations.c:234
    23ec:	5280003a 	mov	w26, #0x1                   	// #1
/home/pedro/devel/optee/optee_os/lib/libutee/tee_api_operations.c:235
    23f0:	52800803 	mov	w3, #0x40                  	// #64
/home/pedro/devel/optee/optee_os/lib/libutee/tee_api_operations.c:64
    23f4:	d2800036 	mov	x22, #0x1                   	// #1
    23f8:	5280001c 	mov	w28, #0x0                   	// #0
    23fc:	14000044 	b	250c <TEE_AllocateOperation+0x65c>
/home/pedro/devel/optee/optee_os/lib/libutee/tee_api_operations.c:131
    2400:	52841800 	mov	w0, #0x20c0                	// #8384
    2404:	72b00000 	movk	w0, #0x8000, lsl #16
    2408:	6b00027f 	cmp	w19, w0
    240c:	54ffdd83 	b.cc	1fbc <TEE_AllocateOperation+0x10c>
    2410:	11000800 	add	w0, w0, #0x2
    2414:	6b00027f 	cmp	w19, w0
    2418:	54fffe29 	b.ls	23dc <TEE_AllocateOperation+0x52c>
    241c:	113e0000 	add	w0, w0, #0xf80
    2420:	17ffffed 	b	23d4 <TEE_AllocateOperation+0x524>
    2424:	528a0840 	mov	w0, #0x5042                	// #20546
    2428:	72b00000 	movk	w0, #0x8000, lsl #16
    242c:	6b00027f 	cmp	w19, w0
    2430:	54fffd60 	b.eq	23dc <TEE_AllocateOperation+0x52c>
    2434:	54000188 	b.hi	2464 <TEE_AllocateOperation+0x5b4>
    2438:	52880840 	mov	w0, #0x4042                	// #16450
    243c:	72b00000 	movk	w0, #0x8000, lsl #16
    2440:	6b00027f 	cmp	w19, w0
    2444:	54fffcc0 	b.eq	23dc <TEE_AllocateOperation+0x52c>
    2448:	5297e800 	mov	w0, #0xbf40                	// #48960
    244c:	54ffdb83 	b.cc	1fbc <TEE_AllocateOperation+0x10c>
    2450:	72afffe0 	movk	w0, #0x7fff, lsl #16
    2454:	0b000260 	add	w0, w19, w0
    2458:	7100041f 	cmp	w0, #0x1
    245c:	54fffc09 	b.ls	23dc <TEE_AllocateOperation+0x52c>
    2460:	17fffed7 	b	1fbc <TEE_AllocateOperation+0x10c>
    2464:	528a1800 	mov	w0, #0x50c0                	// #20672
    2468:	72b00000 	movk	w0, #0x8000, lsl #16
    246c:	6b00027f 	cmp	w19, w0
    2470:	54ffda63 	b.cc	1fbc <TEE_AllocateOperation+0x10c>
    2474:	11000400 	add	w0, w0, #0x1
    2478:	6b00027f 	cmp	w19, w0
    247c:	54fffb09 	b.ls	23dc <TEE_AllocateOperation+0x52c>
    2480:	5293e800 	mov	w0, #0x9f40                	// #40768
    2484:	17fffff3 	b	2450 <TEE_AllocateOperation+0x5a0>
/home/pedro/devel/optee/optee_os/lib/libutee/tee_api_operations.c:73
    2488:	52a0011c 	mov	w28, #0x80000               	// #524288
/home/pedro/devel/optee/optee_os/lib/libutee/tee_api_operations.c:134
    248c:	52800039 	mov	w25, #0x1                   	// #1
/home/pedro/devel/optee/optee_os/lib/libutee/tee_api_operations.c:143
    2490:	12001e60 	and	w0, w19, #0xff
/home/pedro/devel/optee/optee_os/lib/libutee/tee_api_operations.c:146
    2494:	d2800216 	mov	x22, #0x10                  	// #16
    2498:	7100401f 	cmp	w0, #0x10
    249c:	d2800100 	mov	x0, #0x8                   	// #8
    24a0:	9a8002d6 	csel	x22, x22, x0, eq
/home/pedro/devel/optee/optee_os/lib/libutee/tee_api_operations.c:150
    24a4:	34000878 	cbz	w24, 25b0 <TEE_AllocateOperation+0x700>
/home/pedro/devel/optee/optee_os/lib/libutee/tee_api_operations.c:152
    24a8:	7100071f 	cmp	w24, #0x1
    24ac:	54ffd881 	b.ne	1fbc <TEE_AllocateOperation+0x10c>
/home/pedro/devel/optee/optee_os/lib/libutee/tee_api_operations.c:66
    24b0:	5280001a 	mov	w26, #0x0                   	// #0
/home/pedro/devel/optee/optee_os/lib/libutee/tee_api_operations.c:153
    24b4:	52800083 	mov	w3, #0x4                   	// #4
    24b8:	14000015 	b	250c <TEE_AllocateOperation+0x65c>
/home/pedro/devel/optee/optee_os/lib/libutee/tee_api_operations.c:131
    24bc:	5280001c 	mov	w28, #0x0                   	// #0
    24c0:	17fffff3 	b	248c <TEE_AllocateOperation+0x5dc>
    24c4:	5280001c 	mov	w28, #0x0                   	// #0
/home/pedro/devel/optee/optee_os/lib/libutee/tee_api_operations.c:67
    24c8:	52800019 	mov	w25, #0x0                   	// #0
    24cc:	17fffff1 	b	2490 <TEE_AllocateOperation+0x5e0>
/home/pedro/devel/optee/optee_os/lib/libutee/tee_api_operations.c:204
    24d0:	340008b8 	cbz	w24, 25e4 <TEE_AllocateOperation+0x734>
/home/pedro/devel/optee/optee_os/lib/libutee/tee_api_operations.c:206
    24d4:	7100071f 	cmp	w24, #0x1
    24d8:	54ffd721 	b.ne	1fbc <TEE_AllocateOperation+0x10c>
/home/pedro/devel/optee/optee_os/lib/libutee/tee_api_operations.c:67
    24dc:	52800019 	mov	w25, #0x0                   	// #0
/home/pedro/devel/optee/optee_os/lib/libutee/tee_api_operations.c:207
    24e0:	5280003a 	mov	w26, #0x1                   	// #1
/home/pedro/devel/optee/optee_os/lib/libutee/tee_api_operations.c:208
    24e4:	52800283 	mov	w3, #0x14                  	// #20
    24e8:	17ffffc3 	b	23f4 <TEE_AllocateOperation+0x544>
/home/pedro/devel/optee/optee_os/lib/libutee/tee_api_operations.c:81
    24ec:	129ffeb4 	mov	w20, #0xffff000a            	// #-65526
/home/pedro/devel/optee/optee_os/lib/libutee/tee_api_operations.c:244
    24f0:	7100171f 	cmp	w24, #0x5
    24f4:	54ffddc1 	b.ne	20ac <TEE_AllocateOperation+0x1fc>
/home/pedro/devel/optee/optee_os/lib/libutee/tee_api_operations.c:67
    24f8:	52800019 	mov	w25, #0x0                   	// #0
/home/pedro/devel/optee/optee_os/lib/libutee/tee_api_operations.c:66
    24fc:	5280001a 	mov	w26, #0x0                   	// #0
/home/pedro/devel/optee/optee_os/lib/libutee/tee_api_operations.c:248
    2500:	52800003 	mov	w3, #0x0                   	// #0
/home/pedro/devel/optee/optee_os/lib/libutee/tee_api_operations.c:64
    2504:	d2800036 	mov	x22, #0x1                   	// #1
/home/pedro/devel/optee/optee_os/lib/libutee/tee_api_operations.c:247
    2508:	52a0009c 	mov	w28, #0x40000               	// #262144
/home/pedro/devel/optee/optee_os/lib/libutee/tee_api_operations.c:273
    250c:	52800001 	mov	w1, #0x0                   	// #0
    2510:	52800c00 	mov	w0, #0x60                  	// #96
    2514:	b90067a3 	str	w3, [x29,#100]
/home/pedro/devel/optee/optee_os/lib/libutee/tee_api_operations.c:275
    2518:	129ffe74 	mov	w20, #0xffff000c            	// #-65524
/home/pedro/devel/optee/optee_os/lib/libutee/tee_api_operations.c:273
    251c:	97fffb1c 	bl	118c <TEE_Malloc>
    2520:	aa0003f5 	mov	x21, x0
/home/pedro/devel/optee/optee_os/lib/libutee/tee_api_operations.c:274
    2524:	b4ffdc40 	cbz	x0, 20ac <TEE_AllocateOperation+0x1fc>
/home/pedro/devel/optee/optee_os/lib/libutee/tee_api_operations.c:281
    2528:	b94067a3 	ldr	w3, [x29,#100]
/home/pedro/devel/optee/optee_os/lib/libutee/tee_api_operations.c:278
    252c:	531c7e7b 	lsr	w27, w19, #28
/home/pedro/devel/optee/optee_os/lib/libutee/tee_api_operations.c:279
    2530:	b9000818 	str	w24, [x0,#8]
/home/pedro/devel/optee/optee_os/lib/libutee/tee_api_operations.c:284
    2534:	f10006df 	cmp	x22, #0x1
/home/pedro/devel/optee/optee_os/lib/libutee/tee_api_operations.c:278
    2538:	29006c13 	stp	w19, w27, [x0]
/home/pedro/devel/optee/optee_os/lib/libutee/tee_api_operations.c:280
    253c:	b9001017 	str	w23, [x0,#16]
/home/pedro/devel/optee/optee_os/lib/libutee/tee_api_operations.c:282
    2540:	29037003 	stp	w3, w28, [x0,#24]
/home/pedro/devel/optee/optee_os/lib/libutee/tee_api_operations.c:284
    2544:	540005a1 	b.ne	25f8 <TEE_AllocateOperation+0x748>
/home/pedro/devel/optee/optee_os/lib/libutee/tee_api_operations.c:298
    2548:	390102b9 	strb	w25, [x21,#64]
/home/pedro/devel/optee/optee_os/lib/libutee/tee_api_operations.c:300
    254c:	7100177f 	cmp	w27, #0x5
/home/pedro/devel/optee/optee_os/lib/libutee/tee_api_operations.c:297
    2550:	f90026b6 	str	x22, [x21,#72]
/home/pedro/devel/optee/optee_os/lib/libutee/tee_api_operations.c:300
    2554:	54000641 	b.ne	261c <TEE_AllocateOperation+0x76c>
/home/pedro/devel/optee/optee_os/lib/libutee/tee_api_operations.c:324
    2558:	a9420ea2 	ldp	x2, x3, [x21,#32]
    255c:	910162a4 	add	x4, x21, #0x58
    2560:	2a1803e1 	mov	w1, w24
    2564:	2a1303e0 	mov	w0, w19
    2568:	94000824 	bl	45f8 <utee_cryp_state_alloc>
/home/pedro/devel/optee/optee_os/lib/libutee/tee_api_operations.c:326
    256c:	35000b00 	cbnz	w0, 26cc <TEE_AllocateOperation+0x81c>
/home/pedro/devel/optee/optee_os/lib/libutee/tee_api_operations.c:334
    2570:	7100177f 	cmp	w27, #0x5
    2574:	54000141 	b.ne	259c <TEE_AllocateOperation+0x6ec>
/home/pedro/devel/optee/optee_os/lib/libutee/tee_api_operations.c:335
    2578:	b9405aa0 	ldr	w0, [x21,#88]
    257c:	d2800002 	mov	x2, #0x0                   	// #0
    2580:	d2800001 	mov	x1, #0x0                   	// #0
    2584:	94000826 	bl	461c <utee_hash_init>
    2588:	2a0003f4 	mov	w20, w0
/home/pedro/devel/optee/optee_os/lib/libutee/tee_api_operations.c:336
    258c:	35000780 	cbnz	w0, 267c <TEE_AllocateOperation+0x7cc>
/home/pedro/devel/optee/optee_os/lib/libutee/tee_api_operations.c:339
    2590:	b9401ea0 	ldr	w0, [x21,#28]
    2594:	320f0000 	orr	w0, w0, #0x20000
    2598:	b9001ea0 	str	w0, [x21,#28]
/home/pedro/devel/optee/optee_os/lib/libutee/tee_api_operations.c:344
    259c:	f94037a0 	ldr	x0, [x29,#104]
    25a0:	52800014 	mov	w20, #0x0                   	// #0
/home/pedro/devel/optee/optee_os/lib/libutee/tee_api_operations.c:342
    25a4:	b90032bf 	str	wzr, [x21,#48]
/home/pedro/devel/optee/optee_os/lib/libutee/tee_api_operations.c:344
    25a8:	f9000015 	str	x21, [x0]
    25ac:	17fffec0 	b	20ac <TEE_AllocateOperation+0x1fc>
/home/pedro/devel/optee/optee_os/lib/libutee/tee_api_operations.c:66
    25b0:	5280001a 	mov	w26, #0x0                   	// #0
/home/pedro/devel/optee/optee_os/lib/libutee/tee_api_operations.c:151
    25b4:	52800043 	mov	w3, #0x2                   	// #2
    25b8:	17ffffd5 	b	250c <TEE_AllocateOperation+0x65c>
/home/pedro/devel/optee/optee_os/lib/libutee/tee_api_operations.c:67
    25bc:	52800019 	mov	w25, #0x0                   	// #0
/home/pedro/devel/optee/optee_os/lib/libutee/tee_api_operations.c:178
    25c0:	5280003a 	mov	w26, #0x1                   	// #1
/home/pedro/devel/optee/optee_os/lib/libutee/tee_api_operations.c:179
    25c4:	52800203 	mov	w3, #0x10                  	// #16
    25c8:	17ffff8b 	b	23f4 <TEE_AllocateOperation+0x544>
    25cc:	5280001c 	mov	w28, #0x0                   	// #0
/home/pedro/devel/optee/optee_os/lib/libutee/tee_api_operations.c:67
    25d0:	52800019 	mov	w25, #0x0                   	// #0
/home/pedro/devel/optee/optee_os/lib/libutee/tee_api_operations.c:66
    25d4:	5280001a 	mov	w26, #0x0                   	// #0
/home/pedro/devel/optee/optee_os/lib/libutee/tee_api_operations.c:194
    25d8:	52800043 	mov	w3, #0x2                   	// #2
/home/pedro/devel/optee/optee_os/lib/libutee/tee_api_operations.c:64
    25dc:	d2800036 	mov	x22, #0x1                   	// #1
    25e0:	17ffffcb 	b	250c <TEE_AllocateOperation+0x65c>
    25e4:	5280001c 	mov	w28, #0x0                   	// #0
/home/pedro/devel/optee/optee_os/lib/libutee/tee_api_operations.c:67
    25e8:	52800019 	mov	w25, #0x0                   	// #0
/home/pedro/devel/optee/optee_os/lib/libutee/tee_api_operations.c:66
    25ec:	5280001a 	mov	w26, #0x0                   	// #0
/home/pedro/devel/optee/optee_os/lib/libutee/tee_api_operations.c:205
    25f0:	52800443 	mov	w3, #0x22                  	// #34
    25f4:	17fffffa 	b	25dc <TEE_AllocateOperation+0x72c>
/home/pedro/devel/optee/optee_os/lib/libutee/tee_api_operations.c:288
    25f8:	7100033f 	cmp	w25, #0x0
    25fc:	d37ffac0 	lsl	x0, x22, #1
/home/pedro/devel/optee/optee_os/lib/libutee/tee_api_operations.c:290
    2600:	52b00001 	mov	w1, #0x80000000            	// #-2147483648
    2604:	9a961000 	csel	x0, x0, x22, ne
    2608:	97fffae1 	bl	118c <TEE_Malloc>
    260c:	f9001ea0 	str	x0, [x21,#56]
/home/pedro/devel/optee/optee_os/lib/libutee/tee_api_operations.c:292
    2610:	b5fff9c0 	cbnz	x0, 2548 <TEE_AllocateOperation+0x698>
/home/pedro/devel/optee/optee_os/lib/libutee/tee_api_operations.c:293
    2614:	129ffe74 	mov	w20, #0xffff000c            	// #-65524
    2618:	14000019 	b	267c <TEE_AllocateOperation+0x7cc>
/home/pedro/devel/optee/optee_os/lib/libutee/tee_api_operations.c:302
    261c:	7100035f 	cmp	w26, #0x0
    2620:	52b40001 	mov	w1, #0xa0000000            	// #-1610612736
    2624:	52b42000 	mov	w0, #0xa1000000            	// #-1593835520
    2628:	1a811000 	csel	w0, w0, w1, ne
/home/pedro/devel/optee/optee_os/lib/libutee/tee_api_operations.c:309
    262c:	b9401ea1 	ldr	w1, [x21,#28]
/home/pedro/devel/optee/optee_os/lib/libutee/tee_api_operations.c:302
    2630:	12001e76 	and	w22, w19, #0xff
    2634:	2a160016 	orr	w22, w0, w22
/home/pedro/devel/optee/optee_os/lib/libutee/tee_api_operations.c:310
    2638:	53017ee0 	lsr	w0, w23, #1
/home/pedro/devel/optee/optee_os/lib/libutee/tee_api_operations.c:312
    263c:	910082a2 	add	x2, x21, #0x20
/home/pedro/devel/optee/optee_os/lib/libutee/tee_api_operations.c:310
    2640:	f26d003f 	tst	x1, #0x80000
    2644:	1a971017 	csel	w23, w0, w23, ne
/home/pedro/devel/optee/optee_os/lib/libutee/tee_api_operations.c:312
    2648:	2a1603e0 	mov	w0, w22
    264c:	2a1703e1 	mov	w1, w23
    2650:	97fffb9d 	bl	14c4 <TEE_AllocateTransientObject>
    2654:	2a0003f4 	mov	w20, w0
/home/pedro/devel/optee/optee_os/lib/libutee/tee_api_operations.c:313
    2658:	35000120 	cbnz	w0, 267c <TEE_AllocateOperation+0x7cc>
/home/pedro/devel/optee/optee_os/lib/libutee/tee_api_operations.c:316
    265c:	b9401ea0 	ldr	w0, [x21,#28]
    2660:	369ff7c0 	tbz	w0, #19, 2558 <TEE_AllocateOperation+0x6a8>
/home/pedro/devel/optee/optee_os/lib/libutee/tee_api_operations.c:317
    2664:	9100a2a2 	add	x2, x21, #0x28
    2668:	2a1703e1 	mov	w1, w23
    266c:	2a1603e0 	mov	w0, w22
    2670:	97fffb95 	bl	14c4 <TEE_AllocateTransientObject>
    2674:	2a0003f4 	mov	w20, w0
/home/pedro/devel/optee/optee_os/lib/libutee/tee_api_operations.c:319
    2678:	34fff700 	cbz	w0, 2558 <TEE_AllocateOperation+0x6a8>
/home/pedro/devel/optee/optee_os/lib/libutee/tee_api_operations.c:349
    267c:	529ffec0 	mov	w0, #0xfff6                	// #65526
    2680:	0b000280 	add	w0, w20, w0
/home/pedro/devel/optee/optee_os/lib/libutee/tee_api_operations.c:348
    2684:	721e781f 	tst	w0, #0xfffffffd
    2688:	54000060 	b.eq	2694 <TEE_AllocateOperation+0x7e4>
/home/pedro/devel/optee/optee_os/lib/libutee/tee_api_operations.c:350
    268c:	2a1403e0 	mov	w0, w20
    2690:	940006fa 	bl	4278 <TEE_Panic>
/home/pedro/devel/optee/optee_os/lib/libutee/tee_api_operations.c:352
    2694:	b9405aa0 	ldr	w0, [x21,#88]
    2698:	34000080 	cbz	w0, 26a8 <TEE_AllocateOperation+0x7f8>
/home/pedro/devel/optee/optee_os/lib/libutee/tee_api_operations.c:353
    269c:	aa1503e0 	mov	x0, x21
    26a0:	97fffdf3 	bl	1e6c <TEE_FreeOperation>
    26a4:	17fffe82 	b	20ac <TEE_AllocateOperation+0x1fc>
/home/pedro/devel/optee/optee_os/lib/libutee/tee_api_operations.c:355
    26a8:	f9401ea0 	ldr	x0, [x21,#56]
    26ac:	97fffabc 	bl	119c <TEE_Free>
/home/pedro/devel/optee/optee_os/lib/libutee/tee_api_operations.c:356
    26b0:	f94012a0 	ldr	x0, [x21,#32]
    26b4:	97fffb9d 	bl	1528 <TEE_FreeTransientObject>
/home/pedro/devel/optee/optee_os/lib/libutee/tee_api_operations.c:357
    26b8:	f94016a0 	ldr	x0, [x21,#40]
    26bc:	97fffb9b 	bl	1528 <TEE_FreeTransientObject>
/home/pedro/devel/optee/optee_os/lib/libutee/tee_api_operations.c:358
    26c0:	aa1503e0 	mov	x0, x21
    26c4:	97fffab6 	bl	119c <TEE_Free>
    26c8:	17fffe79 	b	20ac <TEE_AllocateOperation+0x1fc>
    26cc:	2a0003f4 	mov	w20, w0
    26d0:	17ffffeb 	b	267c <TEE_AllocateOperation+0x7cc>

00000000000026d4 <TEE_GetOperationInfo>:
TEE_GetOperationInfo():
/home/pedro/devel/optee/optee_os/lib/libutee/tee_api_operations.c:388
    26d4:	a9be7bfd 	stp	x29, x30, [sp,#-32]!
    26d8:	910003fd 	mov	x29, sp
    26dc:	a90153f3 	stp	x19, x20, [sp,#16]
    26e0:	aa0003f4 	mov	x20, x0
    26e4:	aa0103f3 	mov	x19, x1
/home/pedro/devel/optee/optee_os/lib/libutee/tee_api_operations.c:389
    26e8:	b5000060 	cbnz	x0, 26f4 <TEE_GetOperationInfo+0x20>
/home/pedro/devel/optee/optee_os/lib/libutee/tee_api_operations.c:390
    26ec:	52800000 	mov	w0, #0x0                   	// #0
    26f0:	940006e2 	bl	4278 <TEE_Panic>
/home/pedro/devel/optee/optee_os/lib/libutee/tee_api_operations.c:392
    26f4:	b5000073 	cbnz	x19, 2700 <TEE_GetOperationInfo+0x2c>
/home/pedro/devel/optee/optee_os/lib/libutee/tee_api_operations.c:393
    26f8:	52800000 	mov	w0, #0x0                   	// #0
    26fc:	940006df 	bl	4278 <TEE_Panic>
/home/pedro/devel/optee/optee_os/lib/libutee/tee_api_operations.c:395
    2700:	aa1403e1 	mov	x1, x20
    2704:	d2800402 	mov	x2, #0x20                  	// #32
    2708:	aa1303e0 	mov	x0, x19
    270c:	94001046 	bl	6824 <memcpy>
/home/pedro/devel/optee/optee_os/lib/libutee/tee_api_operations.c:396
    2710:	a94153f3 	ldp	x19, x20, [sp,#16]
    2714:	a8c27bfd 	ldp	x29, x30, [sp],#32
    2718:	d65f03c0 	ret

000000000000271c <TEE_GetOperationInfoMultiple>:
TEE_GetOperationInfoMultiple():
/home/pedro/devel/optee/optee_os/lib/libutee/tee_api_operations.c:401
    271c:	a9b97bfd 	stp	x29, x30, [sp,#-112]!
/home/pedro/devel/optee/optee_os/lib/libutee/tee_api_operations.c:418
    2720:	f100005f 	cmp	x2, #0x0
    2724:	fa401824 	ccmp	x1, #0x0, #0x4, ne
/home/pedro/devel/optee/optee_os/lib/libutee/tee_api_operations.c:401
    2728:	910003fd 	mov	x29, sp
    272c:	a9025bf5 	stp	x21, x22, [sp,#32]
/home/pedro/devel/optee/optee_os/lib/libutee/tee_api_operations.c:418
    2730:	fa401804 	ccmp	x0, #0x0, #0x4, ne
/home/pedro/devel/optee/optee_os/lib/libutee/tee_api_operations.c:401
    2734:	a90153f3 	stp	x19, x20, [sp,#16]
/home/pedro/devel/optee/optee_os/lib/libutee/tee_api_operations.c:419
    2738:	129fff35 	mov	w21, #0xffff0006            	// #-65530
/home/pedro/devel/optee/optee_os/lib/libutee/tee_api_operations.c:418
    273c:	540004a0 	b.eq	27d0 <TEE_GetOperationInfoMultiple+0xb4>
/home/pedro/devel/optee/optee_os/lib/libutee/tee_api_operations.c:423
    2740:	b9400056 	ldr	w22, [x2]
    2744:	d10082d6 	sub	x22, x22, #0x20
    2748:	d343fed6 	lsr	x22, x22, #3
/home/pedro/devel/optee/optee_os/lib/libutee/tee_api_operations.c:426
    274c:	71000adf 	cmp	w22, #0x2
    2750:	54000408 	b.hi	27d0 <TEE_GetOperationInfoMultiple+0xb4>
    2754:	aa0003f4 	mov	x20, x0
/home/pedro/devel/optee/optee_os/lib/libutee/tee_api_operations.c:432
    2758:	b9401c00 	ldr	w0, [x0,#28]
/home/pedro/devel/optee/optee_os/lib/libutee/tee_api_operations.c:435
    275c:	129ffdf5 	mov	w21, #0xffff0010            	// #-65520
/home/pedro/devel/optee/optee_os/lib/libutee/tee_api_operations.c:433
    2760:	f26d001f 	tst	x0, #0x80000
    2764:	7a421ac4 	ccmp	w22, #0x2, #0x4, ne
    2768:	54000341 	b.ne	27d0 <TEE_GetOperationInfoMultiple+0xb4>
/home/pedro/devel/optee/optee_os/lib/libutee/tee_api_operations.c:440
    276c:	92407ec2 	and	x2, x22, #0xffffffff
    2770:	aa0103f3 	mov	x19, x1
    2774:	91008020 	add	x0, x1, #0x20
/home/pedro/devel/optee/optee_os/lib/libutee/tee_api_operations.c:433
    2778:	d2800001 	mov	x1, #0x0                   	// #0
/home/pedro/devel/optee/optee_os/lib/libutee/tee_api_operations.c:440 (discriminator 1)
    277c:	eb02003f 	cmp	x1, x2
    2780:	540003e3 	b.cc	27fc <TEE_GetOperationInfoMultiple+0xe0>
/home/pedro/devel/optee/optee_os/lib/libutee/tee_api_operations.c:445
    2784:	71000adf 	cmp	w22, #0x2
    2788:	54000421 	b.ne	280c <TEE_GetOperationInfoMultiple+0xf0>
/home/pedro/devel/optee/optee_os/lib/libutee/tee_api_operations.c:446
    278c:	f9401680 	ldr	x0, [x20,#40]
    2790:	910143a1 	add	x1, x29, #0x50
    2794:	97fffaae 	bl	124c <TEE_GetObjectInfo1>
    2798:	2a0003f5 	mov	w21, w0
/home/pedro/devel/optee/optee_os/lib/libutee/tee_api_operations.c:448
    279c:	350001a0 	cbnz	w0, 27d0 <TEE_GetOperationInfoMultiple+0xb4>
/home/pedro/devel/optee/optee_os/lib/libutee/tee_api_operations.c:451
    27a0:	b94057a0 	ldr	w0, [x29,#84]
    27a4:	b9002a60 	str	w0, [x19,#40]
/home/pedro/devel/optee/optee_os/lib/libutee/tee_api_operations.c:453
    27a8:	b9401a80 	ldr	w0, [x20,#24]
    27ac:	b9002e60 	str	w0, [x19,#44]
/home/pedro/devel/optee/optee_os/lib/libutee/tee_api_operations.c:458
    27b0:	f9401280 	ldr	x0, [x20,#32]
    27b4:	9100c3a1 	add	x1, x29, #0x30
    27b8:	97fffaa5 	bl	124c <TEE_GetObjectInfo1>
    27bc:	2a0003f5 	mov	w21, w0
/home/pedro/devel/optee/optee_os/lib/libutee/tee_api_operations.c:460
    27c0:	34000480 	cbz	w0, 2850 <TEE_GetOperationInfoMultiple+0x134>
/home/pedro/devel/optee/optee_os/lib/libutee/tee_api_operations.c:461
    27c4:	71000adf 	cmp	w22, #0x2
    27c8:	54000041 	b.ne	27d0 <TEE_GetOperationInfoMultiple+0xb4>
/home/pedro/devel/optee/optee_os/lib/libutee/tee_api_operations.c:465
    27cc:	29057e7f 	stp	wzr, wzr, [x19,#40]
/home/pedro/devel/optee/optee_os/lib/libutee/tee_api_operations.c:487
    27d0:	710002bf 	cmp	w21, #0x0
    27d4:	129ffde0 	mov	w0, #0xffff0010            	// #-65520
    27d8:	7a4012a4 	ccmp	w21, w0, #0x4, ne
    27dc:	54000060 	b.eq	27e8 <TEE_GetOperationInfoMultiple+0xcc>
/home/pedro/devel/optee/optee_os/lib/libutee/tee_api_operations.c:489
    27e0:	2a1503e0 	mov	w0, w21
    27e4:	940006a5 	bl	4278 <TEE_Panic>
/home/pedro/devel/optee/optee_os/lib/libutee/tee_api_operations.c:492
    27e8:	2a1503e0 	mov	w0, w21
    27ec:	a94153f3 	ldp	x19, x20, [sp,#16]
    27f0:	a9425bf5 	ldp	x21, x22, [sp,#32]
    27f4:	a8c77bfd 	ldp	x29, x30, [sp],#112
    27f8:	d65f03c0 	ret
/home/pedro/devel/optee/optee_os/lib/libutee/tee_api_operations.c:442 (discriminator 3)
    27fc:	29007c1f 	stp	wzr, wzr, [x0]
/home/pedro/devel/optee/optee_os/lib/libutee/tee_api_operations.c:440 (discriminator 3)
    2800:	91000421 	add	x1, x1, #0x1
    2804:	91002000 	add	x0, x0, #0x8
    2808:	17ffffdd 	b	277c <TEE_GetOperationInfoMultiple+0x60>
/home/pedro/devel/optee/optee_os/lib/libutee/tee_api_operations.c:457
    280c:	35fffd36 	cbnz	w22, 27b0 <TEE_GetOperationInfoMultiple+0x94>
/home/pedro/devel/optee/optee_os/lib/libutee/tee_api_operations.c:477
    2810:	b9400280 	ldr	w0, [x20]
/home/pedro/devel/optee/optee_os/lib/libutee/tee_api_operations.c:484
    2814:	52800015 	mov	w21, #0x0                   	// #0
/home/pedro/devel/optee/optee_os/lib/libutee/tee_api_operations.c:477
    2818:	b9000260 	str	w0, [x19]
/home/pedro/devel/optee/optee_os/lib/libutee/tee_api_operations.c:478
    281c:	b9400680 	ldr	w0, [x20,#4]
    2820:	b9000660 	str	w0, [x19,#4]
/home/pedro/devel/optee/optee_os/lib/libutee/tee_api_operations.c:479
    2824:	b9400a80 	ldr	w0, [x20,#8]
    2828:	b9000a60 	str	w0, [x19,#8]
/home/pedro/devel/optee/optee_os/lib/libutee/tee_api_operations.c:480
    282c:	b9400e80 	ldr	w0, [x20,#12]
    2830:	b9000e60 	str	w0, [x19,#12]
/home/pedro/devel/optee/optee_os/lib/libutee/tee_api_operations.c:481
    2834:	b9401280 	ldr	w0, [x20,#16]
    2838:	b9001260 	str	w0, [x19,#16]
/home/pedro/devel/optee/optee_os/lib/libutee/tee_api_operations.c:482
    283c:	b9401e80 	ldr	w0, [x20,#28]
    2840:	b9001660 	str	w0, [x19,#20]
/home/pedro/devel/optee/optee_os/lib/libutee/tee_api_operations.c:483
    2844:	b9403280 	ldr	w0, [x20,#48]
/home/pedro/devel/optee/optee_os/lib/libutee/tee_api_operations.c:484
    2848:	29035a60 	stp	w0, w22, [x19,#24]
    284c:	17ffffe1 	b	27d0 <TEE_GetOperationInfoMultiple+0xb4>
/home/pedro/devel/optee/optee_os/lib/libutee/tee_api_operations.c:470
    2850:	b94037a0 	ldr	w0, [x29,#52]
    2854:	b9002260 	str	w0, [x19,#32]
/home/pedro/devel/optee/optee_os/lib/libutee/tee_api_operations.c:472
    2858:	b9401a80 	ldr	w0, [x20,#24]
    285c:	b9002660 	str	w0, [x19,#36]
    2860:	17ffffec 	b	2810 <TEE_GetOperationInfoMultiple+0xf4>

0000000000002864 <TEE_ResetOperation>:
TEE_ResetOperation():
/home/pedro/devel/optee/optee_os/lib/libutee/tee_api_operations.c:495
    2864:	a9be7bfd 	stp	x29, x30, [sp,#-32]!
    2868:	910003fd 	mov	x29, sp
    286c:	f9000bf3 	str	x19, [sp,#16]
    2870:	aa0003f3 	mov	x19, x0
/home/pedro/devel/optee/optee_os/lib/libutee/tee_api_operations.c:498
    2874:	b5000060 	cbnz	x0, 2880 <TEE_ResetOperation+0x1c>
/home/pedro/devel/optee/optee_os/lib/libutee/tee_api_operations.c:499
    2878:	52800000 	mov	w0, #0x0                   	// #0
    287c:	9400067f 	bl	4278 <TEE_Panic>
/home/pedro/devel/optee/optee_os/lib/libutee/tee_api_operations.c:501
    2880:	b9401e60 	ldr	w0, [x19,#28]
    2884:	37900060 	tbnz	w0, #18, 2890 <TEE_ResetOperation+0x2c>
/home/pedro/devel/optee/optee_os/lib/libutee/tee_api_operations.c:502
    2888:	52800000 	mov	w0, #0x0                   	// #0
    288c:	9400067b 	bl	4278 <TEE_Panic>
/home/pedro/devel/optee/optee_os/lib/libutee/tee_api_operations.c:506
    2890:	b9400660 	ldr	w0, [x19,#4]
/home/pedro/devel/optee/optee_os/lib/libutee/tee_api_operations.c:504
    2894:	b900327f 	str	wzr, [x19,#48]
/home/pedro/devel/optee/optee_os/lib/libutee/tee_api_operations.c:506
    2898:	7100141f 	cmp	w0, #0x5
    289c:	540001a1 	b.ne	28d0 <TEE_ResetOperation+0x6c>
/home/pedro/devel/optee/optee_os/lib/libutee/tee_api_operations.c:507
    28a0:	b9405a60 	ldr	w0, [x19,#88]
    28a4:	d2800002 	mov	x2, #0x0                   	// #0
    28a8:	d2800001 	mov	x1, #0x0                   	// #0
    28ac:	9400075c 	bl	461c <utee_hash_init>
/home/pedro/devel/optee/optee_os/lib/libutee/tee_api_operations.c:508
    28b0:	34000040 	cbz	w0, 28b8 <TEE_ResetOperation+0x54>
/home/pedro/devel/optee/optee_os/lib/libutee/tee_api_operations.c:509
    28b4:	94000671 	bl	4278 <TEE_Panic>
/home/pedro/devel/optee/optee_os/lib/libutee/tee_api_operations.c:510
    28b8:	b9401e60 	ldr	w0, [x19,#28]
    28bc:	320f0000 	orr	w0, w0, #0x20000
/home/pedro/devel/optee/optee_os/lib/libutee/tee_api_operations.c:512
    28c0:	b9001e60 	str	w0, [x19,#28]
/home/pedro/devel/optee/optee_os/lib/libutee/tee_api_operations.c:514
    28c4:	f9400bf3 	ldr	x19, [sp,#16]
    28c8:	a8c27bfd 	ldp	x29, x30, [sp],#32
    28cc:	d65f03c0 	ret
/home/pedro/devel/optee/optee_os/lib/libutee/tee_api_operations.c:512
    28d0:	b9401e60 	ldr	w0, [x19,#28]
    28d4:	120e7800 	and	w0, w0, #0xfffdffff
    28d8:	17fffffa 	b	28c0 <TEE_ResetOperation+0x5c>

00000000000028dc <TEE_SetOperationKey>:
TEE_SetOperationKey():
/home/pedro/devel/optee/optee_os/lib/libutee/tee_api_operations.c:518
    28dc:	a9bb7bfd 	stp	x29, x30, [sp,#-80]!
    28e0:	910003fd 	mov	x29, sp
    28e4:	a90153f3 	stp	x19, x20, [sp,#16]
    28e8:	a9025bf5 	stp	x21, x22, [sp,#32]
/home/pedro/devel/optee/optee_os/lib/libutee/tee_api_operations.c:523
    28ec:	b50001e0 	cbnz	x0, 2928 <TEE_SetOperationKey+0x4c>
/home/pedro/devel/optee/optee_os/lib/libutee/tee_api_operations.c:536
    28f0:	129fff34 	mov	w20, #0xffff0006            	// #-65530
/home/pedro/devel/optee/optee_os/lib/libutee/tee_api_operations.c:585
    28f4:	121e7a80 	and	w0, w20, #0xfffffffd
    28f8:	7100029f 	cmp	w20, #0x0
    28fc:	52800021 	mov	w1, #0x1                   	// #1
    2900:	72be0201 	movk	w1, #0xf010, lsl #16
    2904:	7a411004 	ccmp	w0, w1, #0x4, ne
    2908:	54000060 	b.eq	2914 <TEE_SetOperationKey+0x38>
/home/pedro/devel/optee/optee_os/lib/libutee/tee_api_operations.c:587
    290c:	2a1403e0 	mov	w0, w20
    2910:	9400065a 	bl	4278 <TEE_Panic>
/home/pedro/devel/optee/optee_os/lib/libutee/tee_api_operations.c:590
    2914:	2a1403e0 	mov	w0, w20
    2918:	a94153f3 	ldp	x19, x20, [sp,#16]
    291c:	a9425bf5 	ldp	x21, x22, [sp,#32]
    2920:	a8c57bfd 	ldp	x29, x30, [sp],#80
    2924:	d65f03c0 	ret
    2928:	aa0003f3 	mov	x19, x0
/home/pedro/devel/optee/optee_os/lib/libutee/tee_api_operations.c:528
    292c:	b9403000 	ldr	w0, [x0,#48]
    2930:	35fffe00 	cbnz	w0, 28f0 <TEE_SetOperationKey+0x14>
    2934:	aa0103f5 	mov	x21, x1
/home/pedro/devel/optee/optee_os/lib/libutee/tee_api_operations.c:533
    2938:	b5000081 	cbnz	x1, 2948 <TEE_SetOperationKey+0x6c>
/home/pedro/devel/optee/optee_os/lib/libutee/tee_api_operations.c:535
    293c:	f9401260 	ldr	x0, [x19,#32]
    2940:	97fffb0f 	bl	157c <TEE_ResetTransientObject>
    2944:	17ffffeb 	b	28f0 <TEE_SetOperationKey+0x14>
/home/pedro/devel/optee/optee_os/lib/libutee/tee_api_operations.c:541
    2948:	b9400660 	ldr	w0, [x19,#4]
    294c:	7100141f 	cmp	w0, #0x5
    2950:	54fffd00 	b.eq	28f0 <TEE_SetOperationKey+0x14>
/home/pedro/devel/optee/optee_os/lib/libutee/tee_api_operations.c:547
    2954:	b9401e60 	ldr	w0, [x19,#28]
    2958:	379ffcc0 	tbnz	w0, #19, 28f0 <TEE_SetOperationKey+0x14>
/home/pedro/devel/optee/optee_os/lib/libutee/tee_api_operations.c:553
    295c:	9100c3a1 	add	x1, x29, #0x30
    2960:	aa1503e0 	mov	x0, x21
    2964:	97fffa3a 	bl	124c <TEE_GetObjectInfo1>
    2968:	2a0003f4 	mov	w20, w0
/home/pedro/devel/optee/optee_os/lib/libutee/tee_api_operations.c:555
    296c:	35fffc40 	cbnz	w0, 28f4 <TEE_SetOperationKey+0x18>
/home/pedro/devel/optee/optee_os/lib/libutee/tee_api_operations.c:559
    2970:	b9401a60 	ldr	w0, [x19,#24]
    2974:	b9403fa1 	ldr	w1, [x29,#60]
    2978:	6a21001f 	bics	wzr, w0, w1
    297c:	54fffba1 	b.ne	28f0 <TEE_SetOperationKey+0x14>
/home/pedro/devel/optee/optee_os/lib/libutee/tee_api_operations.c:565
    2980:	b9401260 	ldr	w0, [x19,#16]
    2984:	b94037b6 	ldr	w22, [x29,#52]
    2988:	6b16001f 	cmp	w0, w22
    298c:	54fffb23 	b.cc	28f0 <TEE_SetOperationKey+0x14>
/home/pedro/devel/optee/optee_os/lib/libutee/tee_api_operations.c:572
    2990:	f9401260 	ldr	x0, [x19,#32]
    2994:	97fffafa 	bl	157c <TEE_ResetTransientObject>
/home/pedro/devel/optee/optee_os/lib/libutee/tee_api_operations.c:573
    2998:	b9401e60 	ldr	w0, [x19,#28]
/home/pedro/devel/optee/optee_os/lib/libutee/tee_api_operations.c:575
    299c:	aa1503e1 	mov	x1, x21
/home/pedro/devel/optee/optee_os/lib/libutee/tee_api_operations.c:573
    29a0:	120d7800 	and	w0, w0, #0xfffbffff
    29a4:	b9001e60 	str	w0, [x19,#28]
/home/pedro/devel/optee/optee_os/lib/libutee/tee_api_operations.c:575
    29a8:	f9401260 	ldr	x0, [x19,#32]
    29ac:	97fffb62 	bl	1734 <TEE_CopyObjectAttributes1>
    29b0:	2a0003f4 	mov	w20, w0
/home/pedro/devel/optee/optee_os/lib/libutee/tee_api_operations.c:576
    29b4:	35fffa00 	cbnz	w0, 28f4 <TEE_SetOperationKey+0x18>
/home/pedro/devel/optee/optee_os/lib/libutee/tee_api_operations.c:579
    29b8:	b9401e60 	ldr	w0, [x19,#28]
/home/pedro/devel/optee/optee_os/lib/libutee/tee_api_operations.c:581
    29bc:	b9001676 	str	w22, [x19,#20]
/home/pedro/devel/optee/optee_os/lib/libutee/tee_api_operations.c:579
    29c0:	320e0000 	orr	w0, w0, #0x40000
    29c4:	b9001e60 	str	w0, [x19,#28]
    29c8:	17ffffcb 	b	28f4 <TEE_SetOperationKey+0x18>

00000000000029cc <TEE_SetOperationKey2>:
TEE_SetOperationKey2():
/home/pedro/devel/optee/optee_os/lib/libutee/tee_api_operations.c:594
    29cc:	a9b87bfd 	stp	x29, x30, [sp,#-128]!
    29d0:	910003fd 	mov	x29, sp
    29d4:	a90153f3 	stp	x19, x20, [sp,#16]
    29d8:	a9025bf5 	stp	x21, x22, [sp,#32]
    29dc:	f9001bf7 	str	x23, [sp,#48]
/home/pedro/devel/optee/optee_os/lib/libutee/tee_api_operations.c:600
    29e0:	b50001e0 	cbnz	x0, 2a1c <TEE_SetOperationKey2+0x50>
/home/pedro/devel/optee/optee_os/lib/libutee/tee_api_operations.c:621
    29e4:	129fff34 	mov	w20, #0xffff0006            	// #-65530
/home/pedro/devel/optee/optee_os/lib/libutee/tee_api_operations.c:708
    29e8:	12be0200 	mov	w0, #0xfefffff             	// #267386879
/home/pedro/devel/optee/optee_os/lib/libutee/tee_api_operations.c:707
    29ec:	7100029f 	cmp	w20, #0x0
/home/pedro/devel/optee/optee_os/lib/libutee/tee_api_operations.c:708
    29f0:	0b000280 	add	w0, w20, w0
/home/pedro/devel/optee/optee_os/lib/libutee/tee_api_operations.c:707
    29f4:	7a431800 	ccmp	w0, #0x3, #0x0, ne
    29f8:	54000069 	b.ls	2a04 <TEE_SetOperationKey2+0x38>
/home/pedro/devel/optee/optee_os/lib/libutee/tee_api_operations.c:712
    29fc:	2a1403e0 	mov	w0, w20
    2a00:	9400061e 	bl	4278 <TEE_Panic>
/home/pedro/devel/optee/optee_os/lib/libutee/tee_api_operations.c:715
    2a04:	2a1403e0 	mov	w0, w20
    2a08:	f9401bf7 	ldr	x23, [sp,#48]
    2a0c:	a94153f3 	ldp	x19, x20, [sp,#16]
    2a10:	a9425bf5 	ldp	x21, x22, [sp,#32]
    2a14:	a8c87bfd 	ldp	x29, x30, [sp],#128
    2a18:	d65f03c0 	ret
    2a1c:	aa0003f3 	mov	x19, x0
/home/pedro/devel/optee/optee_os/lib/libutee/tee_api_operations.c:605
    2a20:	b9403000 	ldr	w0, [x0,#48]
    2a24:	35fffe00 	cbnz	w0, 29e4 <TEE_SetOperationKey2+0x18>
/home/pedro/devel/optee/optee_os/lib/libutee/tee_api_operations.c:614
    2a28:	f100003f 	cmp	x1, #0x0
    2a2c:	aa0103f6 	mov	x22, x1
    2a30:	aa0203f5 	mov	x21, x2
    2a34:	fa401844 	ccmp	x2, #0x0, #0x4, ne
    2a38:	54000121 	b.ne	2a5c <TEE_SetOperationKey2+0x90>
/home/pedro/devel/optee/optee_os/lib/libutee/tee_api_operations.c:616
    2a3c:	b4000081 	cbz	x1, 2a4c <TEE_SetOperationKey2+0x80>
/home/pedro/devel/optee/optee_os/lib/libutee/tee_api_operations.c:620
    2a40:	f9401660 	ldr	x0, [x19,#40]
    2a44:	97ffface 	bl	157c <TEE_ResetTransientObject>
    2a48:	17ffffe7 	b	29e4 <TEE_SetOperationKey2+0x18>
/home/pedro/devel/optee/optee_os/lib/libutee/tee_api_operations.c:617
    2a4c:	f9401260 	ldr	x0, [x19,#32]
    2a50:	97fffacb 	bl	157c <TEE_ResetTransientObject>
/home/pedro/devel/optee/optee_os/lib/libutee/tee_api_operations.c:619
    2a54:	b5fffc95 	cbnz	x21, 29e4 <TEE_SetOperationKey2+0x18>
    2a58:	17fffffa 	b	2a40 <TEE_SetOperationKey2+0x74>
/home/pedro/devel/optee/optee_os/lib/libutee/tee_api_operations.c:626
    2a5c:	b9400660 	ldr	w0, [x19,#4]
    2a60:	7100141f 	cmp	w0, #0x5
    2a64:	54fffc00 	b.eq	29e4 <TEE_SetOperationKey2+0x18>
/home/pedro/devel/optee/optee_os/lib/libutee/tee_api_operations.c:632
    2a68:	b9401e60 	ldr	w0, [x19,#28]
    2a6c:	369ffbc0 	tbz	w0, #19, 29e4 <TEE_SetOperationKey2+0x18>
/home/pedro/devel/optee/optee_os/lib/libutee/tee_api_operations.c:638
    2a70:	910103a1 	add	x1, x29, #0x40
    2a74:	aa1603e0 	mov	x0, x22
    2a78:	97fff9f5 	bl	124c <TEE_GetObjectInfo1>
    2a7c:	2a0003f4 	mov	w20, w0
/home/pedro/devel/optee/optee_os/lib/libutee/tee_api_operations.c:640
    2a80:	35fffb40 	cbnz	w0, 29e8 <TEE_SetOperationKey2+0x1c>
/home/pedro/devel/optee/optee_os/lib/libutee/tee_api_operations.c:644
    2a84:	b9401a60 	ldr	w0, [x19,#24]
    2a88:	b9404fa1 	ldr	w1, [x29,#76]
    2a8c:	6a21001f 	bics	wzr, w0, w1
    2a90:	54fffaa1 	b.ne	29e4 <TEE_SetOperationKey2+0x18>
/home/pedro/devel/optee/optee_os/lib/libutee/tee_api_operations.c:650
    2a94:	910183a1 	add	x1, x29, #0x60
    2a98:	aa1503e0 	mov	x0, x21
    2a9c:	97fff9ec 	bl	124c <TEE_GetObjectInfo1>
    2aa0:	2a0003f4 	mov	w20, w0
/home/pedro/devel/optee/optee_os/lib/libutee/tee_api_operations.c:652
    2aa4:	34000100 	cbz	w0, 2ac4 <TEE_SetOperationKey2+0xf8>
/home/pedro/devel/optee/optee_os/lib/libutee/tee_api_operations.c:653
    2aa8:	52800020 	mov	w0, #0x1                   	// #1
    2aac:	72be0200 	movk	w0, #0xf010, lsl #16
    2ab0:	6b00029f 	cmp	w20, w0
    2ab4:	54fff9a1 	b.ne	29e8 <TEE_SetOperationKey2+0x1c>
/home/pedro/devel/optee/optee_os/lib/libutee/tee_api_operations.c:654
    2ab8:	52800054 	mov	w20, #0x2                   	// #2
    2abc:	72be0214 	movk	w20, #0xf010, lsl #16
    2ac0:	17ffffca 	b	29e8 <TEE_SetOperationKey2+0x1c>
/home/pedro/devel/optee/optee_os/lib/libutee/tee_api_operations.c:659
    2ac4:	b9401a60 	ldr	w0, [x19,#24]
    2ac8:	b9406fa1 	ldr	w1, [x29,#108]
    2acc:	6a21001f 	bics	wzr, w0, w1
    2ad0:	54fff8a1 	b.ne	29e4 <TEE_SetOperationKey2+0x18>
/home/pedro/devel/optee/optee_os/lib/libutee/tee_api_operations.c:669
    2ad4:	b9400261 	ldr	w1, [x19]
    2ad8:	52808200 	mov	w0, #0x410                 	// #1040
    2adc:	72a20000 	movk	w0, #0x1000, lsl #16
    2ae0:	b94047b7 	ldr	w23, [x29,#68]
    2ae4:	6b00003f 	cmp	w1, w0
    2ae8:	54000081 	b.ne	2af8 <TEE_SetOperationKey2+0x12c>
/home/pedro/devel/optee/optee_os/lib/libutee/tee_api_operations.c:669 (discriminator 1)
    2aec:	b94067a0 	ldr	w0, [x29,#100]
    2af0:	6b0002ff 	cmp	w23, w0
    2af4:	54fff781 	b.ne	29e4 <TEE_SetOperationKey2+0x18>
/home/pedro/devel/optee/optee_os/lib/libutee/tee_api_operations.c:676
    2af8:	b9401260 	ldr	w0, [x19,#16]
    2afc:	6b17001f 	cmp	w0, w23
    2b00:	54fff723 	b.cc	29e4 <TEE_SetOperationKey2+0x18>
/home/pedro/devel/optee/optee_os/lib/libutee/tee_api_operations.c:687
    2b04:	f9401260 	ldr	x0, [x19,#32]
    2b08:	97fffa9d 	bl	157c <TEE_ResetTransientObject>
/home/pedro/devel/optee/optee_os/lib/libutee/tee_api_operations.c:688
    2b0c:	f9401660 	ldr	x0, [x19,#40]
    2b10:	97fffa9b 	bl	157c <TEE_ResetTransientObject>
/home/pedro/devel/optee/optee_os/lib/libutee/tee_api_operations.c:689
    2b14:	b9401e60 	ldr	w0, [x19,#28]
/home/pedro/devel/optee/optee_os/lib/libutee/tee_api_operations.c:691
    2b18:	aa1603e1 	mov	x1, x22
/home/pedro/devel/optee/optee_os/lib/libutee/tee_api_operations.c:689
    2b1c:	120d7800 	and	w0, w0, #0xfffbffff
    2b20:	b9001e60 	str	w0, [x19,#28]
/home/pedro/devel/optee/optee_os/lib/libutee/tee_api_operations.c:691
    2b24:	f9401260 	ldr	x0, [x19,#32]
    2b28:	97fffb03 	bl	1734 <TEE_CopyObjectAttributes1>
    2b2c:	2a0003f4 	mov	w20, w0
/home/pedro/devel/optee/optee_os/lib/libutee/tee_api_operations.c:692
    2b30:	35fff5c0 	cbnz	w0, 29e8 <TEE_SetOperationKey2+0x1c>
/home/pedro/devel/optee/optee_os/lib/libutee/tee_api_operations.c:695
    2b34:	f9401660 	ldr	x0, [x19,#40]
    2b38:	aa1503e1 	mov	x1, x21
    2b3c:	97fffafe 	bl	1734 <TEE_CopyObjectAttributes1>
    2b40:	2a0003f4 	mov	w20, w0
/home/pedro/devel/optee/optee_os/lib/libutee/tee_api_operations.c:696
    2b44:	35fffb20 	cbnz	w0, 2aa8 <TEE_SetOperationKey2+0xdc>
/home/pedro/devel/optee/optee_os/lib/libutee/tee_api_operations.c:702
    2b48:	b9401e60 	ldr	w0, [x19,#28]
/home/pedro/devel/optee/optee_os/lib/libutee/tee_api_operations.c:704
    2b4c:	b9001677 	str	w23, [x19,#20]
/home/pedro/devel/optee/optee_os/lib/libutee/tee_api_operations.c:702
    2b50:	320e0000 	orr	w0, w0, #0x40000
    2b54:	b9001e60 	str	w0, [x19,#28]
    2b58:	17ffffa4 	b	29e8 <TEE_SetOperationKey2+0x1c>

0000000000002b5c <TEE_CopyOperation>:
TEE_CopyOperation():
/home/pedro/devel/optee/optee_os/lib/libutee/tee_api_operations.c:718
    2b5c:	a9be7bfd 	stp	x29, x30, [sp,#-32]!
/home/pedro/devel/optee/optee_os/lib/libutee/tee_api_operations.c:721
    2b60:	f100001f 	cmp	x0, #0x0
    2b64:	fa401824 	ccmp	x1, #0x0, #0x4, ne
/home/pedro/devel/optee/optee_os/lib/libutee/tee_api_operations.c:718
    2b68:	910003fd 	mov	x29, sp
    2b6c:	a90153f3 	stp	x19, x20, [sp,#16]
    2b70:	aa0003f4 	mov	x20, x0
    2b74:	aa0103f3 	mov	x19, x1
/home/pedro/devel/optee/optee_os/lib/libutee/tee_api_operations.c:721
    2b78:	54000061 	b.ne	2b84 <TEE_CopyOperation+0x28>
/home/pedro/devel/optee/optee_os/lib/libutee/tee_api_operations.c:722
    2b7c:	52800000 	mov	w0, #0x0                   	// #0
    2b80:	940005be 	bl	4278 <TEE_Panic>
/home/pedro/devel/optee/optee_os/lib/libutee/tee_api_operations.c:723
    2b84:	b9400260 	ldr	w0, [x19]
    2b88:	b9400281 	ldr	w1, [x20]
    2b8c:	6b00003f 	cmp	w1, w0
    2b90:	54000060 	b.eq	2b9c <TEE_CopyOperation+0x40>
/home/pedro/devel/optee/optee_os/lib/libutee/tee_api_operations.c:724
    2b94:	52800000 	mov	w0, #0x0                   	// #0
    2b98:	940005b8 	bl	4278 <TEE_Panic>
/home/pedro/devel/optee/optee_os/lib/libutee/tee_api_operations.c:725
    2b9c:	b9400660 	ldr	w0, [x19,#4]
    2ba0:	7100141f 	cmp	w0, #0x5
    2ba4:	540000e0 	b.eq	2bc0 <TEE_CopyOperation+0x64>
/home/pedro/devel/optee/optee_os/lib/libutee/tee_api_operations.c:729
    2ba8:	b9401e60 	ldr	w0, [x19,#28]
    2bac:	369004e0 	tbz	w0, #18, 2c48 <TEE_CopyOperation+0xec>
/home/pedro/devel/optee/optee_os/lib/libutee/tee_api_operations.c:731
    2bb0:	a9420a61 	ldp	x1, x2, [x19,#32]
/home/pedro/devel/optee/optee_os/lib/libutee/tee_api_operations.c:734
    2bb4:	37980500 	tbnz	w0, #19, 2c54 <TEE_CopyOperation+0xf8>
/home/pedro/devel/optee/optee_os/lib/libutee/tee_api_operations.c:736
    2bb8:	aa1403e0 	mov	x0, x20
    2bbc:	97ffff48 	bl	28dc <TEE_SetOperationKey>
/home/pedro/devel/optee/optee_os/lib/libutee/tee_api_operations.c:741
    2bc0:	b9401e60 	ldr	w0, [x19,#28]
    2bc4:	b9001e80 	str	w0, [x20,#28]
/home/pedro/devel/optee/optee_os/lib/libutee/tee_api_operations.c:742
    2bc8:	b9401660 	ldr	w0, [x19,#20]
    2bcc:	b9001680 	str	w0, [x20,#20]
/home/pedro/devel/optee/optee_os/lib/libutee/tee_api_operations.c:743
    2bd0:	b9403260 	ldr	w0, [x19,#48]
/home/pedro/devel/optee/optee_os/lib/libutee/tee_api_operations.c:745
    2bd4:	39410281 	ldrb	w1, [x20,#64]
/home/pedro/devel/optee/optee_os/lib/libutee/tee_api_operations.c:743
    2bd8:	b9003280 	str	w0, [x20,#48]
/home/pedro/devel/optee/optee_os/lib/libutee/tee_api_operations.c:745
    2bdc:	39410260 	ldrb	w0, [x19,#64]
    2be0:	6b00003f 	cmp	w1, w0
    2be4:	540000a1 	b.ne	2bf8 <TEE_CopyOperation+0x9c>
/home/pedro/devel/optee/optee_os/lib/libutee/tee_api_operations.c:745 (discriminator 1)
    2be8:	f9402660 	ldr	x0, [x19,#72]
    2bec:	f9402681 	ldr	x1, [x20,#72]
    2bf0:	eb00003f 	cmp	x1, x0
    2bf4:	54000060 	b.eq	2c00 <TEE_CopyOperation+0xa4>
/home/pedro/devel/optee/optee_os/lib/libutee/tee_api_operations.c:747
    2bf8:	52800000 	mov	w0, #0x0                   	// #0
    2bfc:	9400059f 	bl	4278 <TEE_Panic>
/home/pedro/devel/optee/optee_os/lib/libutee/tee_api_operations.c:749
    2c00:	f9401e81 	ldr	x1, [x20,#56]
    2c04:	f9401e60 	ldr	x0, [x19,#56]
    2c08:	b40002c1 	cbz	x1, 2c60 <TEE_CopyOperation+0x104>
/home/pedro/devel/optee/optee_os/lib/libutee/tee_api_operations.c:750
    2c0c:	b5000040 	cbnz	x0, 2c14 <TEE_CopyOperation+0xb8>
/home/pedro/devel/optee/optee_os/lib/libutee/tee_api_operations.c:751
    2c10:	9400059a 	bl	4278 <TEE_Panic>
/home/pedro/devel/optee/optee_os/lib/libutee/tee_api_operations.c:753
    2c14:	f9401e61 	ldr	x1, [x19,#56]
    2c18:	f9402a62 	ldr	x2, [x19,#80]
    2c1c:	f9401e80 	ldr	x0, [x20,#56]
    2c20:	94000f01 	bl	6824 <memcpy>
/home/pedro/devel/optee/optee_os/lib/libutee/tee_api_operations.c:754
    2c24:	f9402a60 	ldr	x0, [x19,#80]
    2c28:	f9002a80 	str	x0, [x20,#80]
/home/pedro/devel/optee/optee_os/lib/libutee/tee_api_operations.c:759
    2c2c:	b9405a61 	ldr	w1, [x19,#88]
    2c30:	b9405a80 	ldr	w0, [x20,#88]
    2c34:	94000674 	bl	4604 <utee_cryp_state_copy>
/home/pedro/devel/optee/optee_os/lib/libutee/tee_api_operations.c:760
    2c38:	340001c0 	cbz	w0, 2c70 <TEE_CopyOperation+0x114>
/home/pedro/devel/optee/optee_os/lib/libutee/tee_api_operations.c:762
    2c3c:	a94153f3 	ldp	x19, x20, [sp,#16]
    2c40:	a8c27bfd 	ldp	x29, x30, [sp],#32
/home/pedro/devel/optee/optee_os/lib/libutee/tee_api_operations.c:761
    2c44:	1400058d 	b	4278 <TEE_Panic>
/home/pedro/devel/optee/optee_os/lib/libutee/tee_api_operations.c:727
    2c48:	d2800002 	mov	x2, #0x0                   	// #0
/home/pedro/devel/optee/optee_os/lib/libutee/tee_api_operations.c:726
    2c4c:	d2800001 	mov	x1, #0x0                   	// #0
    2c50:	17ffffd9 	b	2bb4 <TEE_CopyOperation+0x58>
/home/pedro/devel/optee/optee_os/lib/libutee/tee_api_operations.c:738
    2c54:	aa1403e0 	mov	x0, x20
    2c58:	97ffff5d 	bl	29cc <TEE_SetOperationKey2>
    2c5c:	17ffffd9 	b	2bc0 <TEE_CopyOperation+0x64>
/home/pedro/devel/optee/optee_os/lib/libutee/tee_api_operations.c:755
    2c60:	b4fffe60 	cbz	x0, 2c2c <TEE_CopyOperation+0xd0>
/home/pedro/devel/optee/optee_os/lib/libutee/tee_api_operations.c:756
    2c64:	52800000 	mov	w0, #0x0                   	// #0
    2c68:	94000584 	bl	4278 <TEE_Panic>
    2c6c:	17fffff0 	b	2c2c <TEE_CopyOperation+0xd0>
/home/pedro/devel/optee/optee_os/lib/libutee/tee_api_operations.c:762
    2c70:	a94153f3 	ldp	x19, x20, [sp,#16]
    2c74:	a8c27bfd 	ldp	x29, x30, [sp],#32
    2c78:	d65f03c0 	ret

0000000000002c7c <TEE_DigestUpdate>:
TEE_DigestUpdate():
/home/pedro/devel/optee/optee_os/lib/libutee/tee_api_operations.c:784
    2c7c:	a9bd7bfd 	stp	x29, x30, [sp,#-48]!
    2c80:	910003fd 	mov	x29, sp
    2c84:	a90153f3 	stp	x19, x20, [sp,#16]
    2c88:	aa0003f3 	mov	x19, x0
    2c8c:	f90013f5 	str	x21, [sp,#32]
    2c90:	aa0103f4 	mov	x20, x1
    2c94:	2a0203f5 	mov	w21, w2
/home/pedro/devel/optee/optee_os/lib/libutee/tee_api_operations.c:787
    2c98:	b4000080 	cbz	x0, 2ca8 <TEE_DigestUpdate+0x2c>
/home/pedro/devel/optee/optee_os/lib/libutee/tee_api_operations.c:787 (discriminator 1)
    2c9c:	b9400400 	ldr	w0, [x0,#4]
    2ca0:	7100141f 	cmp	w0, #0x5
    2ca4:	54000060 	b.eq	2cb0 <TEE_DigestUpdate+0x34>
/home/pedro/devel/optee/optee_os/lib/libutee/tee_api_operations.c:789
    2ca8:	52800000 	mov	w0, #0x0                   	// #0
    2cac:	94000573 	bl	4278 <TEE_Panic>
/home/pedro/devel/optee/optee_os/lib/libutee/tee_api_operations.c:791
    2cb0:	52800020 	mov	w0, #0x1                   	// #1
    2cb4:	b9003260 	str	w0, [x19,#48]
/home/pedro/devel/optee/optee_os/lib/libutee/tee_api_operations.c:793
    2cb8:	b9405a60 	ldr	w0, [x19,#88]
    2cbc:	2a1503e2 	mov	w2, w21
    2cc0:	aa1403e1 	mov	x1, x20
    2cc4:	94000659 	bl	4628 <utee_hash_update>
/home/pedro/devel/optee/optee_os/lib/libutee/tee_api_operations.c:794
    2cc8:	340000a0 	cbz	w0, 2cdc <TEE_DigestUpdate+0x60>
/home/pedro/devel/optee/optee_os/lib/libutee/tee_api_operations.c:796
    2ccc:	a94153f3 	ldp	x19, x20, [sp,#16]
    2cd0:	f94013f5 	ldr	x21, [sp,#32]
    2cd4:	a8c37bfd 	ldp	x29, x30, [sp],#48
/home/pedro/devel/optee/optee_os/lib/libutee/tee_api_operations.c:795
    2cd8:	14000568 	b	4278 <TEE_Panic>
/home/pedro/devel/optee/optee_os/lib/libutee/tee_api_operations.c:796
    2cdc:	a94153f3 	ldp	x19, x20, [sp,#16]
    2ce0:	f94013f5 	ldr	x21, [sp,#32]
    2ce4:	a8c37bfd 	ldp	x29, x30, [sp],#48
    2ce8:	d65f03c0 	ret

0000000000002cec <TEE_DigestDoFinal>:
TEE_DigestDoFinal():
/home/pedro/devel/optee/optee_os/lib/libutee/tee_api_operations.c:800
    2cec:	a9bc7bfd 	stp	x29, x30, [sp,#-64]!
    2cf0:	910003fd 	mov	x29, sp
    2cf4:	a90153f3 	stp	x19, x20, [sp,#16]
    2cf8:	aa0003f3 	mov	x19, x0
    2cfc:	f90013f5 	str	x21, [sp,#32]
/home/pedro/devel/optee/optee_os/lib/libutee/tee_api_operations.c:809
    2d00:	129fff34 	mov	w20, #0xffff0006            	// #-65530
/home/pedro/devel/optee/optee_os/lib/libutee/tee_api_operations.c:804
    2d04:	b4000400 	cbz	x0, 2d84 <TEE_DigestDoFinal+0x98>
/home/pedro/devel/optee/optee_os/lib/libutee/tee_api_operations.c:805 (discriminator 1)
    2d08:	f100003f 	cmp	x1, #0x0
/home/pedro/devel/optee/optee_os/lib/libutee/tee_api_operations.c:804 (discriminator 1)
    2d0c:	7a400844 	ccmp	w2, #0x0, #0x4, eq
    2d10:	540003a1 	b.ne	2d84 <TEE_DigestDoFinal+0x98>
/home/pedro/devel/optee/optee_os/lib/libutee/tee_api_operations.c:806
    2d14:	f100007f 	cmp	x3, #0x0
    2d18:	aa0403f5 	mov	x21, x4
    2d1c:	fa401884 	ccmp	x4, #0x0, #0x4, ne
    2d20:	54000320 	b.eq	2d84 <TEE_DigestDoFinal+0x98>
/home/pedro/devel/optee/optee_os/lib/libutee/tee_api_operations.c:807
    2d24:	b9400660 	ldr	w0, [x19,#4]
    2d28:	7100141f 	cmp	w0, #0x5
    2d2c:	540002c1 	b.ne	2d84 <TEE_DigestDoFinal+0x98>
/home/pedro/devel/optee/optee_os/lib/libutee/tee_api_operations.c:813
    2d30:	910103a4 	add	x4, x29, #0x40
    2d34:	b94002a0 	ldr	w0, [x21]
/home/pedro/devel/optee/optee_os/lib/libutee/tee_api_operations.c:814
    2d38:	2a0203e2 	mov	w2, w2
/home/pedro/devel/optee/optee_os/lib/libutee/tee_api_operations.c:813
    2d3c:	f81f8c80 	str	x0, [x4,#-8]!
/home/pedro/devel/optee/optee_os/lib/libutee/tee_api_operations.c:814
    2d40:	b9405a60 	ldr	w0, [x19,#88]
    2d44:	9400063c 	bl	4634 <utee_hash_final>
    2d48:	2a0003f4 	mov	w20, w0
/home/pedro/devel/optee/optee_os/lib/libutee/tee_api_operations.c:815
    2d4c:	f9401fa0 	ldr	x0, [x29,#56]
    2d50:	b90002a0 	str	w0, [x21]
/home/pedro/devel/optee/optee_os/lib/libutee/tee_api_operations.c:816
    2d54:	35000194 	cbnz	w20, 2d84 <TEE_DigestDoFinal+0x98>
init_hash_operation():
/home/pedro/devel/optee/optee_os/lib/libutee/tee_api_operations.c:775
    2d58:	b9405a60 	ldr	w0, [x19,#88]
    2d5c:	d2800002 	mov	x2, #0x0                   	// #0
    2d60:	d2800001 	mov	x1, #0x0                   	// #0
    2d64:	9400062e 	bl	461c <utee_hash_init>
/home/pedro/devel/optee/optee_os/lib/libutee/tee_api_operations.c:776
    2d68:	34000040 	cbz	w0, 2d70 <TEE_DigestDoFinal+0x84>
/home/pedro/devel/optee/optee_os/lib/libutee/tee_api_operations.c:777
    2d6c:	94000543 	bl	4278 <TEE_Panic>
/home/pedro/devel/optee/optee_os/lib/libutee/tee_api_operations.c:779
    2d70:	b9401e60 	ldr	w0, [x19,#28]
TEE_DigestDoFinal():
/home/pedro/devel/optee/optee_os/lib/libutee/tee_api_operations.c:822
    2d74:	b900327f 	str	wzr, [x19,#48]
init_hash_operation():
/home/pedro/devel/optee/optee_os/lib/libutee/tee_api_operations.c:779
    2d78:	320f0000 	orr	w0, w0, #0x20000
/home/pedro/devel/optee/optee_os/lib/libutee/tee_api_operations.c:778
    2d7c:	f9002a7f 	str	xzr, [x19,#80]
/home/pedro/devel/optee/optee_os/lib/libutee/tee_api_operations.c:779
    2d80:	b9001e60 	str	w0, [x19,#28]
TEE_DigestDoFinal():
/home/pedro/devel/optee/optee_os/lib/libutee/tee_api_operations.c:825
    2d84:	7100029f 	cmp	w20, #0x0
    2d88:	129ffde0 	mov	w0, #0xffff0010            	// #-65520
    2d8c:	7a401284 	ccmp	w20, w0, #0x4, ne
    2d90:	54000060 	b.eq	2d9c <TEE_DigestDoFinal+0xb0>
/home/pedro/devel/optee/optee_os/lib/libutee/tee_api_operations.c:827
    2d94:	2a1403e0 	mov	w0, w20
    2d98:	94000538 	bl	4278 <TEE_Panic>
/home/pedro/devel/optee/optee_os/lib/libutee/tee_api_operations.c:830
    2d9c:	2a1403e0 	mov	w0, w20
    2da0:	f94013f5 	ldr	x21, [sp,#32]
    2da4:	a94153f3 	ldp	x19, x20, [sp,#16]
    2da8:	a8c47bfd 	ldp	x29, x30, [sp],#64
    2dac:	d65f03c0 	ret

0000000000002db0 <TEE_CipherInit>:
TEE_CipherInit():
/home/pedro/devel/optee/optee_os/lib/libutee/tee_api_operations.c:836
    2db0:	a9bd7bfd 	stp	x29, x30, [sp,#-48]!
    2db4:	910003fd 	mov	x29, sp
    2db8:	a90153f3 	stp	x19, x20, [sp,#16]
    2dbc:	aa0003f3 	mov	x19, x0
    2dc0:	f90013f5 	str	x21, [sp,#32]
    2dc4:	aa0103f4 	mov	x20, x1
    2dc8:	2a0203f5 	mov	w21, w2
/home/pedro/devel/optee/optee_os/lib/libutee/tee_api_operations.c:839
    2dcc:	b5000060 	cbnz	x0, 2dd8 <TEE_CipherInit+0x28>
/home/pedro/devel/optee/optee_os/lib/libutee/tee_api_operations.c:840
    2dd0:	52800000 	mov	w0, #0x0                   	// #0
    2dd4:	94000529 	bl	4278 <TEE_Panic>
/home/pedro/devel/optee/optee_os/lib/libutee/tee_api_operations.c:842
    2dd8:	b9400660 	ldr	w0, [x19,#4]
    2ddc:	7100041f 	cmp	w0, #0x1
    2de0:	54000060 	b.eq	2dec <TEE_CipherInit+0x3c>
/home/pedro/devel/optee/optee_os/lib/libutee/tee_api_operations.c:843
    2de4:	52800000 	mov	w0, #0x0                   	// #0
    2de8:	94000524 	bl	4278 <TEE_Panic>
/home/pedro/devel/optee/optee_os/lib/libutee/tee_api_operations.c:845
    2dec:	b9401e60 	ldr	w0, [x19,#28]
    2df0:	36900060 	tbz	w0, #18, 2dfc <TEE_CipherInit+0x4c>
/home/pedro/devel/optee/optee_os/lib/libutee/tee_api_operations.c:845 (discriminator 1)
    2df4:	f9401260 	ldr	x0, [x19,#32]
    2df8:	b5000060 	cbnz	x0, 2e04 <TEE_CipherInit+0x54>
/home/pedro/devel/optee/optee_os/lib/libutee/tee_api_operations.c:847
    2dfc:	52800000 	mov	w0, #0x0                   	// #0
    2e00:	9400051e 	bl	4278 <TEE_Panic>
/home/pedro/devel/optee/optee_os/lib/libutee/tee_api_operations.c:849
    2e04:	b9403260 	ldr	w0, [x19,#48]
    2e08:	34000060 	cbz	w0, 2e14 <TEE_CipherInit+0x64>
/home/pedro/devel/optee/optee_os/lib/libutee/tee_api_operations.c:850
    2e0c:	aa1303e0 	mov	x0, x19
    2e10:	97fffe95 	bl	2864 <TEE_ResetOperation>
/home/pedro/devel/optee/optee_os/lib/libutee/tee_api_operations.c:852
    2e14:	52800020 	mov	w0, #0x1                   	// #1
    2e18:	b9003260 	str	w0, [x19,#48]
/home/pedro/devel/optee/optee_os/lib/libutee/tee_api_operations.c:854
    2e1c:	b9405a60 	ldr	w0, [x19,#88]
    2e20:	2a1503e2 	mov	w2, w21
    2e24:	aa1403e1 	mov	x1, x20
    2e28:	94000606 	bl	4640 <utee_cipher_init>
/home/pedro/devel/optee/optee_os/lib/libutee/tee_api_operations.c:855
    2e2c:	34000040 	cbz	w0, 2e34 <TEE_CipherInit+0x84>
/home/pedro/devel/optee/optee_os/lib/libutee/tee_api_operations.c:856
    2e30:	94000512 	bl	4278 <TEE_Panic>
/home/pedro/devel/optee/optee_os/lib/libutee/tee_api_operations.c:859
    2e34:	b9401e60 	ldr	w0, [x19,#28]
/home/pedro/devel/optee/optee_os/lib/libutee/tee_api_operations.c:860
    2e38:	f94013f5 	ldr	x21, [sp,#32]
/home/pedro/devel/optee/optee_os/lib/libutee/tee_api_operations.c:859
    2e3c:	320f0000 	orr	w0, w0, #0x20000
/home/pedro/devel/optee/optee_os/lib/libutee/tee_api_operations.c:858
    2e40:	f9002a7f 	str	xzr, [x19,#80]
/home/pedro/devel/optee/optee_os/lib/libutee/tee_api_operations.c:859
    2e44:	b9001e60 	str	w0, [x19,#28]
/home/pedro/devel/optee/optee_os/lib/libutee/tee_api_operations.c:860
    2e48:	a94153f3 	ldp	x19, x20, [sp,#16]
    2e4c:	a8c37bfd 	ldp	x29, x30, [sp],#48
    2e50:	d65f03c0 	ret

0000000000002e54 <TEE_CipherUpdate>:
TEE_CipherUpdate():
/home/pedro/devel/optee/optee_os/lib/libutee/tee_api_operations.c:962
    2e54:	a9bd7bfd 	stp	x29, x30, [sp,#-48]!
    2e58:	910003fd 	mov	x29, sp
    2e5c:	a90153f3 	stp	x19, x20, [sp,#16]
/home/pedro/devel/optee/optee_os/lib/libutee/tee_api_operations.c:971
    2e60:	129fff33 	mov	w19, #0xffff0006            	// #-65530
/home/pedro/devel/optee/optee_os/lib/libutee/tee_api_operations.c:967
    2e64:	b40003c0 	cbz	x0, 2edc <TEE_CipherUpdate+0x88>
/home/pedro/devel/optee/optee_os/lib/libutee/tee_api_operations.c:968 (discriminator 1)
    2e68:	f100003f 	cmp	x1, #0x0
    2e6c:	aa0403f4 	mov	x20, x4
    2e70:	1a9f17e5 	cset	w5, eq
    2e74:	7100005f 	cmp	w2, #0x0
    2e78:	2a0203e6 	mov	w6, w2
    2e7c:	1a9f07e2 	cset	w2, ne
    2e80:	f100029f 	cmp	x20, #0x0
    2e84:	0a0200a4 	and	w4, w5, w2
    2e88:	1a9f17e2 	cset	w2, eq
    2e8c:	2a040042 	orr	w2, w2, w4
    2e90:	35000262 	cbnz	w2, 2edc <TEE_CipherUpdate+0x88>
/home/pedro/devel/optee/optee_os/lib/libutee/tee_api_operations.c:969
    2e94:	b5000063 	cbnz	x3, 2ea0 <TEE_CipherUpdate+0x4c>
/home/pedro/devel/optee/optee_os/lib/libutee/tee_api_operations.c:970
    2e98:	b9400282 	ldr	w2, [x20]
    2e9c:	35000202 	cbnz	w2, 2edc <TEE_CipherUpdate+0x88>
/home/pedro/devel/optee/optee_os/lib/libutee/tee_api_operations.c:975
    2ea0:	b9400402 	ldr	w2, [x0,#4]
/home/pedro/devel/optee/optee_os/lib/libutee/tee_api_operations.c:971
    2ea4:	129fff33 	mov	w19, #0xffff0006            	// #-65530
/home/pedro/devel/optee/optee_os/lib/libutee/tee_api_operations.c:975
    2ea8:	7100045f 	cmp	w2, #0x1
    2eac:	54000181 	b.ne	2edc <TEE_CipherUpdate+0x88>
/home/pedro/devel/optee/optee_os/lib/libutee/tee_api_operations.c:980
    2eb0:	b9401c02 	ldr	w2, [x0,#28]
    2eb4:	36880142 	tbz	w2, #17, 2edc <TEE_CipherUpdate+0x88>
/home/pedro/devel/optee/optee_os/lib/libutee/tee_api_operations.c:985
    2eb8:	b9403002 	ldr	w2, [x0,#48]
    2ebc:	7100045f 	cmp	w2, #0x1
    2ec0:	540000e1 	b.ne	2edc <TEE_CipherUpdate+0x88>
/home/pedro/devel/optee/optee_os/lib/libutee/tee_api_operations.c:990
    2ec4:	710000df 	cmp	w6, #0x0
    2ec8:	1a9f17e2 	cset	w2, eq
    2ecc:	6a0200bf 	tst	w5, w2
    2ed0:	540001a0 	b.eq	2f04 <TEE_CipherUpdate+0xb0>
/home/pedro/devel/optee/optee_os/lib/libutee/tee_api_operations.c:992
    2ed4:	52800013 	mov	w19, #0x0                   	// #0
/home/pedro/devel/optee/optee_os/lib/libutee/tee_api_operations.c:991
    2ed8:	b900029f 	str	wzr, [x20]
/home/pedro/devel/optee/optee_os/lib/libutee/tee_api_operations.c:1036
    2edc:	7100027f 	cmp	w19, #0x0
    2ee0:	129ffde0 	mov	w0, #0xffff0010            	// #-65520
    2ee4:	7a401264 	ccmp	w19, w0, #0x4, ne
    2ee8:	54000060 	b.eq	2ef4 <TEE_CipherUpdate+0xa0>
/home/pedro/devel/optee/optee_os/lib/libutee/tee_api_operations.c:1038
    2eec:	2a1303e0 	mov	w0, w19
    2ef0:	940004e2 	bl	4278 <TEE_Panic>
/home/pedro/devel/optee/optee_os/lib/libutee/tee_api_operations.c:1041
    2ef4:	2a1303e0 	mov	w0, w19
    2ef8:	a94153f3 	ldp	x19, x20, [sp,#16]
    2efc:	a8c37bfd 	ldp	x29, x30, [sp],#48
    2f00:	d65f03c0 	ret
/home/pedro/devel/optee/optee_os/lib/libutee/tee_api_operations.c:997
    2f04:	f9402405 	ldr	x5, [x0,#72]
    2f08:	2a0603e2 	mov	w2, w6
/home/pedro/devel/optee/optee_os/lib/libutee/tee_api_operations.c:1001
    2f0c:	aa0203e4 	mov	x4, x2
/home/pedro/devel/optee/optee_os/lib/libutee/tee_api_operations.c:997
    2f10:	f10004bf 	cmp	x5, #0x1
    2f14:	540000a9 	b.ls	2f28 <TEE_CipherUpdate+0xd4>
/home/pedro/devel/optee/optee_os/lib/libutee/tee_api_operations.c:998
    2f18:	f9402804 	ldr	x4, [x0,#80]
    2f1c:	8b040044 	add	x4, x2, x4
    2f20:	9ac50884 	udiv	x4, x4, x5
    2f24:	9b057c84 	mul	x4, x4, x5
/home/pedro/devel/optee/optee_os/lib/libutee/tee_api_operations.c:1003
    2f28:	39410007 	ldrb	w7, [x0,#64]
    2f2c:	340000a7 	cbz	w7, 2f40 <TEE_CipherUpdate+0xec>
/home/pedro/devel/optee/optee_os/lib/libutee/tee_api_operations.c:1004
    2f30:	d37ff8a7 	lsl	x7, x5, #1
/home/pedro/devel/optee/optee_os/lib/libutee/tee_api_operations.c:1005
    2f34:	cb070088 	sub	x8, x4, x7
    2f38:	eb07009f 	cmp	x4, x7
    2f3c:	9a9f8104 	csel	x4, x8, xzr, hi
/home/pedro/devel/optee/optee_os/lib/libutee/tee_api_operations.c:1014
    2f40:	b9400287 	ldr	w7, [x20]
    2f44:	eb07009f 	cmp	x4, x7
    2f48:	54000089 	b.ls	2f58 <TEE_CipherUpdate+0x104>
/home/pedro/devel/optee/optee_os/lib/libutee/tee_api_operations.c:1016
    2f4c:	129ffdf3 	mov	w19, #0xffff0010            	// #-65520
/home/pedro/devel/optee/optee_os/lib/libutee/tee_api_operations.c:1015
    2f50:	b9000284 	str	w4, [x20]
/home/pedro/devel/optee/optee_os/lib/libutee/tee_api_operations.c:1017
    2f54:	17ffffe2 	b	2edc <TEE_CipherUpdate+0x88>
/home/pedro/devel/optee/optee_os/lib/libutee/tee_api_operations.c:1020
    2f58:	f90017a7 	str	x7, [x29,#40]
/home/pedro/devel/optee/optee_os/lib/libutee/tee_api_operations.c:1021
    2f5c:	f10004bf 	cmp	x5, #0x1
    2f60:	54000189 	b.ls	2f90 <TEE_CipherUpdate+0x13c>
/home/pedro/devel/optee/optee_os/lib/libutee/tee_api_operations.c:1022
    2f64:	aa0303e4 	mov	x4, x3
    2f68:	aa0203e3 	mov	x3, x2
    2f6c:	aa0103e2 	mov	x2, x1
    2f70:	f0000041 	adrp	x1, d000 <__func__.3637+0xb58>
    2f74:	9100a3a5 	add	x5, x29, #0x28
    2f78:	f9415821 	ldr	x1, [x1,#688]
    2f7c:	94000438 	bl	405c <tee_buffer_update>
/home/pedro/devel/optee/optee_os/lib/libutee/tee_api_operations.c:1026
    2f80:	2a0003f3 	mov	w19, w0
/home/pedro/devel/optee/optee_os/lib/libutee/tee_api_operations.c:1033
    2f84:	f94017a0 	ldr	x0, [x29,#40]
    2f88:	b9000280 	str	w0, [x20]
    2f8c:	17ffffd4 	b	2edc <TEE_CipherUpdate+0x88>
/home/pedro/devel/optee/optee_os/lib/libutee/tee_api_operations.c:1025
    2f90:	340000a6 	cbz	w6, 2fa4 <TEE_CipherUpdate+0x150>
/home/pedro/devel/optee/optee_os/lib/libutee/tee_api_operations.c:1026
    2f94:	b9405800 	ldr	w0, [x0,#88]
    2f98:	9100a3a4 	add	x4, x29, #0x28
    2f9c:	940005ac 	bl	464c <utee_cipher_update>
    2fa0:	17fffff8 	b	2f80 <TEE_CipherUpdate+0x12c>
/home/pedro/devel/optee/optee_os/lib/libutee/tee_api_operations.c:1029
    2fa4:	52800013 	mov	w19, #0x0                   	// #0
/home/pedro/devel/optee/optee_os/lib/libutee/tee_api_operations.c:1030
    2fa8:	f90017bf 	str	xzr, [x29,#40]
    2fac:	17fffff6 	b	2f84 <TEE_CipherUpdate+0x130>

0000000000002fb0 <TEE_CipherDoFinal>:
TEE_CipherDoFinal():
/home/pedro/devel/optee/optee_os/lib/libutee/tee_api_operations.c:1046
    2fb0:	a9bb7bfd 	stp	x29, x30, [sp,#-80]!
    2fb4:	910003fd 	mov	x29, sp
    2fb8:	a90153f3 	stp	x19, x20, [sp,#16]
/home/pedro/devel/optee/optee_os/lib/libutee/tee_api_operations.c:1057
    2fbc:	129fff34 	mov	w20, #0xffff0006            	// #-65530
/home/pedro/devel/optee/optee_os/lib/libutee/tee_api_operations.c:1046
    2fc0:	a9025bf5 	stp	x21, x22, [sp,#32]
    2fc4:	a90363f7 	stp	x23, x24, [sp,#48]
/home/pedro/devel/optee/optee_os/lib/libutee/tee_api_operations.c:1053
    2fc8:	b40005e0 	cbz	x0, 3084 <TEE_CipherDoFinal+0xd4>
/home/pedro/devel/optee/optee_os/lib/libutee/tee_api_operations.c:1054 (discriminator 1)
    2fcc:	f100003f 	cmp	x1, #0x0
    2fd0:	aa0403f5 	mov	x21, x4
    2fd4:	7a400844 	ccmp	w2, #0x0, #0x4, eq
    2fd8:	fa400884 	ccmp	x4, #0x0, #0x4, eq
    2fdc:	54000540 	b.eq	3084 <TEE_CipherDoFinal+0xd4>
    2fe0:	aa0003f3 	mov	x19, x0
    2fe4:	aa0303f8 	mov	x24, x3
/home/pedro/devel/optee/optee_os/lib/libutee/tee_api_operations.c:1055
    2fe8:	b5000063 	cbnz	x3, 2ff4 <TEE_CipherDoFinal+0x44>
/home/pedro/devel/optee/optee_os/lib/libutee/tee_api_operations.c:1056
    2fec:	b9400080 	ldr	w0, [x4]
    2ff0:	350004a0 	cbnz	w0, 3084 <TEE_CipherDoFinal+0xd4>
/home/pedro/devel/optee/optee_os/lib/libutee/tee_api_operations.c:1061
    2ff4:	b9400660 	ldr	w0, [x19,#4]
/home/pedro/devel/optee/optee_os/lib/libutee/tee_api_operations.c:1057
    2ff8:	129fff34 	mov	w20, #0xffff0006            	// #-65530
/home/pedro/devel/optee/optee_os/lib/libutee/tee_api_operations.c:1061
    2ffc:	7100041f 	cmp	w0, #0x1
    3000:	54000421 	b.ne	3084 <TEE_CipherDoFinal+0xd4>
/home/pedro/devel/optee/optee_os/lib/libutee/tee_api_operations.c:1066
    3004:	b9401e60 	ldr	w0, [x19,#28]
    3008:	368803e0 	tbz	w0, #17, 3084 <TEE_CipherDoFinal+0xd4>
/home/pedro/devel/optee/optee_os/lib/libutee/tee_api_operations.c:1071
    300c:	b9403260 	ldr	w0, [x19,#48]
    3010:	7100041f 	cmp	w0, #0x1
    3014:	54000381 	b.ne	3084 <TEE_CipherDoFinal+0xd4>
/home/pedro/devel/optee/optee_os/lib/libutee/tee_api_operations.c:1080
    3018:	b9400260 	ldr	w0, [x19]
    301c:	529ffe03 	mov	w3, #0xfff0                	// #65520
    3020:	72bdffe3 	movk	w3, #0xefff, lsl #16
    3024:	2a0203e2 	mov	w2, w2
    3028:	12177800 	and	w0, w0, #0xfffffeff
    302c:	0b030003 	add	w3, w0, w3
/home/pedro/devel/optee/optee_os/lib/libutee/tee_api_operations.c:1084
    3030:	7100047f 	cmp	w3, #0x1
    3034:	52800263 	mov	w3, #0x13                  	// #19
    3038:	72a20003 	movk	w3, #0x1000, lsl #16
    303c:	7a438004 	ccmp	w0, w3, #0x4, hi
    3040:	f9402663 	ldr	x3, [x19,#72]
    3044:	540000c1 	b.ne	305c <TEE_CipherDoFinal+0xac>
/home/pedro/devel/optee/optee_os/lib/libutee/tee_api_operations.c:1086
    3048:	f9402a60 	ldr	x0, [x19,#80]
    304c:	8b000040 	add	x0, x2, x0
    3050:	9ac30804 	udiv	x4, x0, x3
    3054:	9b038080 	msub	x0, x4, x3, x0
    3058:	b5000160 	cbnz	x0, 3084 <TEE_CipherDoFinal+0xd4>
/home/pedro/devel/optee/optee_os/lib/libutee/tee_api_operations.c:1101
    305c:	aa0203e0 	mov	x0, x2
/home/pedro/devel/optee/optee_os/lib/libutee/tee_api_operations.c:1098
    3060:	f100047f 	cmp	x3, #0x1
    3064:	54000069 	b.ls	3070 <TEE_CipherDoFinal+0xc0>
/home/pedro/devel/optee/optee_os/lib/libutee/tee_api_operations.c:1099
    3068:	f9402a60 	ldr	x0, [x19,#80]
    306c:	8b000040 	add	x0, x2, x0
/home/pedro/devel/optee/optee_os/lib/libutee/tee_api_operations.c:1103
    3070:	b94002a4 	ldr	w4, [x21]
    3074:	eb04001f 	cmp	x0, x4
    3078:	540001e9 	b.ls	30b4 <TEE_CipherDoFinal+0x104>
/home/pedro/devel/optee/optee_os/lib/libutee/tee_api_operations.c:1105
    307c:	129ffdf4 	mov	w20, #0xffff0010            	// #-65520
/home/pedro/devel/optee/optee_os/lib/libutee/tee_api_operations.c:1104
    3080:	b90002a0 	str	w0, [x21]
/home/pedro/devel/optee/optee_os/lib/libutee/tee_api_operations.c:1137
    3084:	7100029f 	cmp	w20, #0x0
    3088:	129ffde0 	mov	w0, #0xffff0010            	// #-65520
    308c:	7a401284 	ccmp	w20, w0, #0x4, ne
    3090:	54000060 	b.eq	309c <TEE_CipherDoFinal+0xec>
/home/pedro/devel/optee/optee_os/lib/libutee/tee_api_operations.c:1139
    3094:	2a1403e0 	mov	w0, w20
    3098:	94000478 	bl	4278 <TEE_Panic>
/home/pedro/devel/optee/optee_os/lib/libutee/tee_api_operations.c:1142
    309c:	2a1403e0 	mov	w0, w20
    30a0:	a94153f3 	ldp	x19, x20, [sp,#16]
    30a4:	a9425bf5 	ldp	x21, x22, [sp,#32]
    30a8:	a94363f7 	ldp	x23, x24, [sp,#48]
    30ac:	a8c57bfd 	ldp	x29, x30, [sp],#80
    30b0:	d65f03c0 	ret
/home/pedro/devel/optee/optee_os/lib/libutee/tee_api_operations.c:1109
    30b4:	910143b7 	add	x23, x29, #0x50
/home/pedro/devel/optee/optee_os/lib/libutee/tee_api_operations.c:1110
    30b8:	f100047f 	cmp	x3, #0x1
/home/pedro/devel/optee/optee_os/lib/libutee/tee_api_operations.c:1109
    30bc:	f81f8ee4 	str	x4, [x23,#-8]!
/home/pedro/devel/optee/optee_os/lib/libutee/tee_api_operations.c:1110
    30c0:	540003e9 	b.ls	313c <TEE_CipherDoFinal+0x18c>
/home/pedro/devel/optee/optee_os/lib/libutee/tee_api_operations.c:1111
    30c4:	aa0203e3 	mov	x3, x2
    30c8:	aa0103e2 	mov	x2, x1
    30cc:	d0000041 	adrp	x1, d000 <__func__.3637+0xb58>
    30d0:	aa1703e5 	mov	x5, x23
    30d4:	aa1803e4 	mov	x4, x24
    30d8:	aa1303e0 	mov	x0, x19
    30dc:	f9415821 	ldr	x1, [x1,#688]
    30e0:	940003df 	bl	405c <tee_buffer_update>
    30e4:	2a0003f4 	mov	w20, w0
/home/pedro/devel/optee/optee_os/lib/libutee/tee_api_operations.c:1113
    30e8:	35fffce0 	cbnz	w0, 3084 <TEE_CipherDoFinal+0xd4>
/home/pedro/devel/optee/optee_os/lib/libutee/tee_api_operations.c:1116
    30ec:	f94027b6 	ldr	x22, [x29,#72]
/home/pedro/devel/optee/optee_os/lib/libutee/tee_api_operations.c:1120
    30f0:	aa1703e4 	mov	x4, x23
/home/pedro/devel/optee/optee_os/lib/libutee/tee_api_operations.c:1119
    30f4:	b94002a0 	ldr	w0, [x21]
/home/pedro/devel/optee/optee_os/lib/libutee/tee_api_operations.c:1120
    30f8:	f9401e61 	ldr	x1, [x19,#56]
    30fc:	8b160303 	add	x3, x24, x22
/home/pedro/devel/optee/optee_os/lib/libutee/tee_api_operations.c:1119
    3100:	cb160000 	sub	x0, x0, x22
/home/pedro/devel/optee/optee_os/lib/libutee/tee_api_operations.c:1120
    3104:	f9402a62 	ldr	x2, [x19,#80]
/home/pedro/devel/optee/optee_os/lib/libutee/tee_api_operations.c:1119
    3108:	f90027a0 	str	x0, [x29,#72]
/home/pedro/devel/optee/optee_os/lib/libutee/tee_api_operations.c:1120
    310c:	b9405a60 	ldr	w0, [x19,#88]
    3110:	94000552 	bl	4658 <utee_cipher_final>
    3114:	2a0003f4 	mov	w20, w0
/home/pedro/devel/optee/optee_os/lib/libutee/tee_api_operations.c:1126
    3118:	35fffb74 	cbnz	w20, 3084 <TEE_CipherDoFinal+0xd4>
/home/pedro/devel/optee/optee_os/lib/libutee/tee_api_operations.c:1129
    311c:	f94027a0 	ldr	x0, [x29,#72]
    3120:	8b0002d6 	add	x22, x22, x0
/home/pedro/devel/optee/optee_os/lib/libutee/tee_api_operations.c:1130
    3124:	b90002b6 	str	w22, [x21]
/home/pedro/devel/optee/optee_os/lib/libutee/tee_api_operations.c:1134
    3128:	b900327f 	str	wzr, [x19,#48]
/home/pedro/devel/optee/optee_os/lib/libutee/tee_api_operations.c:1132
    312c:	b9401e60 	ldr	w0, [x19,#28]
    3130:	120e7800 	and	w0, w0, #0xfffdffff
    3134:	b9001e60 	str	w0, [x19,#28]
    3138:	17ffffd3 	b	3084 <TEE_CipherDoFinal+0xd4>
/home/pedro/devel/optee/optee_os/lib/libutee/tee_api_operations.c:1123
    313c:	b9405a60 	ldr	w0, [x19,#88]
    3140:	aa1703e4 	mov	x4, x23
    3144:	aa1803e3 	mov	x3, x24
/home/pedro/devel/optee/optee_os/lib/libutee/tee_api_operations.c:1049
    3148:	d2800016 	mov	x22, #0x0                   	// #0
/home/pedro/devel/optee/optee_os/lib/libutee/tee_api_operations.c:1123
    314c:	94000543 	bl	4658 <utee_cipher_final>
    3150:	2a0003f4 	mov	w20, w0
    3154:	17fffff1 	b	3118 <TEE_CipherDoFinal+0x168>

0000000000003158 <TEE_MACInit>:
TEE_MACInit():
/home/pedro/devel/optee/optee_os/lib/libutee/tee_api_operations.c:1147
    3158:	a9bd7bfd 	stp	x29, x30, [sp,#-48]!
    315c:	910003fd 	mov	x29, sp
    3160:	a90153f3 	stp	x19, x20, [sp,#16]
    3164:	aa0003f3 	mov	x19, x0
    3168:	f90013f5 	str	x21, [sp,#32]
    316c:	aa0103f4 	mov	x20, x1
    3170:	2a0203f5 	mov	w21, w2
/home/pedro/devel/optee/optee_os/lib/libutee/tee_api_operations.c:1148
    3174:	b5000060 	cbnz	x0, 3180 <TEE_MACInit+0x28>
/home/pedro/devel/optee/optee_os/lib/libutee/tee_api_operations.c:1149
    3178:	52800000 	mov	w0, #0x0                   	// #0
    317c:	9400043f 	bl	4278 <TEE_Panic>
/home/pedro/devel/optee/optee_os/lib/libutee/tee_api_operations.c:1151
    3180:	b9400660 	ldr	w0, [x19,#4]
    3184:	71000c1f 	cmp	w0, #0x3
    3188:	54000060 	b.eq	3194 <TEE_MACInit+0x3c>
/home/pedro/devel/optee/optee_os/lib/libutee/tee_api_operations.c:1152
    318c:	52800000 	mov	w0, #0x0                   	// #0
    3190:	9400043a 	bl	4278 <TEE_Panic>
/home/pedro/devel/optee/optee_os/lib/libutee/tee_api_operations.c:1154
    3194:	b9401e60 	ldr	w0, [x19,#28]
    3198:	36900060 	tbz	w0, #18, 31a4 <TEE_MACInit+0x4c>
/home/pedro/devel/optee/optee_os/lib/libutee/tee_api_operations.c:1154 (discriminator 1)
    319c:	f9401260 	ldr	x0, [x19,#32]
    31a0:	b5000060 	cbnz	x0, 31ac <TEE_MACInit+0x54>
/home/pedro/devel/optee/optee_os/lib/libutee/tee_api_operations.c:1156
    31a4:	52800000 	mov	w0, #0x0                   	// #0
    31a8:	94000434 	bl	4278 <TEE_Panic>
/home/pedro/devel/optee/optee_os/lib/libutee/tee_api_operations.c:1158
    31ac:	b9403260 	ldr	w0, [x19,#48]
    31b0:	34000060 	cbz	w0, 31bc <TEE_MACInit+0x64>
/home/pedro/devel/optee/optee_os/lib/libutee/tee_api_operations.c:1159
    31b4:	aa1303e0 	mov	x0, x19
    31b8:	97fffdab 	bl	2864 <TEE_ResetOperation>
/home/pedro/devel/optee/optee_os/lib/libutee/tee_api_operations.c:1161
    31bc:	52800020 	mov	w0, #0x1                   	// #1
    31c0:	b9003260 	str	w0, [x19,#48]
init_hash_operation():
/home/pedro/devel/optee/optee_os/lib/libutee/tee_api_operations.c:775
    31c4:	b9405a60 	ldr	w0, [x19,#88]
    31c8:	2a1503e2 	mov	w2, w21
    31cc:	aa1403e1 	mov	x1, x20
    31d0:	94000513 	bl	461c <utee_hash_init>
/home/pedro/devel/optee/optee_os/lib/libutee/tee_api_operations.c:776
    31d4:	34000040 	cbz	w0, 31dc <TEE_MACInit+0x84>
/home/pedro/devel/optee/optee_os/lib/libutee/tee_api_operations.c:777
    31d8:	94000428 	bl	4278 <TEE_Panic>
/home/pedro/devel/optee/optee_os/lib/libutee/tee_api_operations.c:779
    31dc:	b9401e60 	ldr	w0, [x19,#28]
TEE_MACInit():
/home/pedro/devel/optee/optee_os/lib/libutee/tee_api_operations.c:1164
    31e0:	f94013f5 	ldr	x21, [sp,#32]
init_hash_operation():
/home/pedro/devel/optee/optee_os/lib/libutee/tee_api_operations.c:779
    31e4:	320f0000 	orr	w0, w0, #0x20000
/home/pedro/devel/optee/optee_os/lib/libutee/tee_api_operations.c:778
    31e8:	f9002a7f 	str	xzr, [x19,#80]
/home/pedro/devel/optee/optee_os/lib/libutee/tee_api_operations.c:779
    31ec:	b9001e60 	str	w0, [x19,#28]
TEE_MACInit():
/home/pedro/devel/optee/optee_os/lib/libutee/tee_api_operations.c:1164
    31f0:	a94153f3 	ldp	x19, x20, [sp,#16]
    31f4:	a8c37bfd 	ldp	x29, x30, [sp],#48
    31f8:	d65f03c0 	ret

00000000000031fc <TEE_MACUpdate>:
TEE_MACUpdate():
/home/pedro/devel/optee/optee_os/lib/libutee/tee_api_operations.c:1168
    31fc:	a9bd7bfd 	stp	x29, x30, [sp,#-48]!
    3200:	910003fd 	mov	x29, sp
    3204:	a90153f3 	stp	x19, x20, [sp,#16]
    3208:	aa0003f3 	mov	x19, x0
    320c:	f90013f5 	str	x21, [sp,#32]
    3210:	aa0103f4 	mov	x20, x1
    3214:	2a0203f5 	mov	w21, w2
/home/pedro/devel/optee/optee_os/lib/libutee/tee_api_operations.c:1171
    3218:	b4000080 	cbz	x0, 3228 <TEE_MACUpdate+0x2c>
/home/pedro/devel/optee/optee_os/lib/libutee/tee_api_operations.c:1171 (discriminator 1)
    321c:	f100003f 	cmp	x1, #0x0
    3220:	7a400844 	ccmp	w2, #0x0, #0x4, eq
    3224:	54000060 	b.eq	3230 <TEE_MACUpdate+0x34>
/home/pedro/devel/optee/optee_os/lib/libutee/tee_api_operations.c:1172
    3228:	52800000 	mov	w0, #0x0                   	// #0
    322c:	94000413 	bl	4278 <TEE_Panic>
/home/pedro/devel/optee/optee_os/lib/libutee/tee_api_operations.c:1174
    3230:	b9400660 	ldr	w0, [x19,#4]
    3234:	71000c1f 	cmp	w0, #0x3
    3238:	54000060 	b.eq	3244 <TEE_MACUpdate+0x48>
/home/pedro/devel/optee/optee_os/lib/libutee/tee_api_operations.c:1175
    323c:	52800000 	mov	w0, #0x0                   	// #0
    3240:	9400040e 	bl	4278 <TEE_Panic>
/home/pedro/devel/optee/optee_os/lib/libutee/tee_api_operations.c:1177
    3244:	b9401e60 	ldr	w0, [x19,#28]
    3248:	37880060 	tbnz	w0, #17, 3254 <TEE_MACUpdate+0x58>
/home/pedro/devel/optee/optee_os/lib/libutee/tee_api_operations.c:1178
    324c:	52800000 	mov	w0, #0x0                   	// #0
    3250:	9400040a 	bl	4278 <TEE_Panic>
/home/pedro/devel/optee/optee_os/lib/libutee/tee_api_operations.c:1180
    3254:	b9403260 	ldr	w0, [x19,#48]
    3258:	7100041f 	cmp	w0, #0x1
    325c:	54000060 	b.eq	3268 <TEE_MACUpdate+0x6c>
/home/pedro/devel/optee/optee_os/lib/libutee/tee_api_operations.c:1181
    3260:	52800000 	mov	w0, #0x0                   	// #0
    3264:	94000405 	bl	4278 <TEE_Panic>
/home/pedro/devel/optee/optee_os/lib/libutee/tee_api_operations.c:1183
    3268:	b9405a60 	ldr	w0, [x19,#88]
    326c:	2a1503e2 	mov	w2, w21
    3270:	aa1403e1 	mov	x1, x20
    3274:	940004ed 	bl	4628 <utee_hash_update>
/home/pedro/devel/optee/optee_os/lib/libutee/tee_api_operations.c:1184
    3278:	340000a0 	cbz	w0, 328c <TEE_MACUpdate+0x90>
/home/pedro/devel/optee/optee_os/lib/libutee/tee_api_operations.c:1186
    327c:	a94153f3 	ldp	x19, x20, [sp,#16]
    3280:	f94013f5 	ldr	x21, [sp,#32]
    3284:	a8c37bfd 	ldp	x29, x30, [sp],#48
/home/pedro/devel/optee/optee_os/lib/libutee/tee_api_operations.c:1185
    3288:	140003fc 	b	4278 <TEE_Panic>
/home/pedro/devel/optee/optee_os/lib/libutee/tee_api_operations.c:1186
    328c:	a94153f3 	ldp	x19, x20, [sp,#16]
    3290:	f94013f5 	ldr	x21, [sp,#32]
    3294:	a8c37bfd 	ldp	x29, x30, [sp],#48
    3298:	d65f03c0 	ret

000000000000329c <TEE_MACComputeFinal>:
TEE_MACComputeFinal():
/home/pedro/devel/optee/optee_os/lib/libutee/tee_api_operations.c:1191
    329c:	a9bc7bfd 	stp	x29, x30, [sp,#-64]!
    32a0:	910003fd 	mov	x29, sp
    32a4:	a90153f3 	stp	x19, x20, [sp,#16]
    32a8:	aa0003f3 	mov	x19, x0
    32ac:	f90013f5 	str	x21, [sp,#32]
/home/pedro/devel/optee/optee_os/lib/libutee/tee_api_operations.c:1199
    32b0:	129fff34 	mov	w20, #0xffff0006            	// #-65530
/home/pedro/devel/optee/optee_os/lib/libutee/tee_api_operations.c:1195
    32b4:	b40003c0 	cbz	x0, 332c <TEE_MACComputeFinal+0x90>
/home/pedro/devel/optee/optee_os/lib/libutee/tee_api_operations.c:1196 (discriminator 1)
    32b8:	f100003f 	cmp	x1, #0x0
/home/pedro/devel/optee/optee_os/lib/libutee/tee_api_operations.c:1195 (discriminator 1)
    32bc:	7a400844 	ccmp	w2, #0x0, #0x4, eq
    32c0:	54000361 	b.ne	332c <TEE_MACComputeFinal+0x90>
/home/pedro/devel/optee/optee_os/lib/libutee/tee_api_operations.c:1197
    32c4:	f100007f 	cmp	x3, #0x0
    32c8:	aa0403f5 	mov	x21, x4
    32cc:	fa401884 	ccmp	x4, #0x0, #0x4, ne
    32d0:	540002e0 	b.eq	332c <TEE_MACComputeFinal+0x90>
/home/pedro/devel/optee/optee_os/lib/libutee/tee_api_operations.c:1203
    32d4:	b9400660 	ldr	w0, [x19,#4]
    32d8:	71000c1f 	cmp	w0, #0x3
    32dc:	54000281 	b.ne	332c <TEE_MACComputeFinal+0x90>
/home/pedro/devel/optee/optee_os/lib/libutee/tee_api_operations.c:1208
    32e0:	b9401e60 	ldr	w0, [x19,#28]
    32e4:	36880240 	tbz	w0, #17, 332c <TEE_MACComputeFinal+0x90>
/home/pedro/devel/optee/optee_os/lib/libutee/tee_api_operations.c:1213
    32e8:	b9403260 	ldr	w0, [x19,#48]
    32ec:	7100041f 	cmp	w0, #0x1
    32f0:	540001e1 	b.ne	332c <TEE_MACComputeFinal+0x90>
/home/pedro/devel/optee/optee_os/lib/libutee/tee_api_operations.c:1218
    32f4:	910103a4 	add	x4, x29, #0x40
    32f8:	b94002a0 	ldr	w0, [x21]
/home/pedro/devel/optee/optee_os/lib/libutee/tee_api_operations.c:1219
    32fc:	2a0203e2 	mov	w2, w2
/home/pedro/devel/optee/optee_os/lib/libutee/tee_api_operations.c:1218
    3300:	f81f8c80 	str	x0, [x4,#-8]!
/home/pedro/devel/optee/optee_os/lib/libutee/tee_api_operations.c:1219
    3304:	b9405a60 	ldr	w0, [x19,#88]
    3308:	940004cb 	bl	4634 <utee_hash_final>
    330c:	2a0003f4 	mov	w20, w0
/home/pedro/devel/optee/optee_os/lib/libutee/tee_api_operations.c:1220
    3310:	f9401fa0 	ldr	x0, [x29,#56]
    3314:	b90002a0 	str	w0, [x21]
/home/pedro/devel/optee/optee_os/lib/libutee/tee_api_operations.c:1221
    3318:	350000b4 	cbnz	w20, 332c <TEE_MACComputeFinal+0x90>
/home/pedro/devel/optee/optee_os/lib/libutee/tee_api_operations.c:1224
    331c:	b9401e60 	ldr	w0, [x19,#28]
/home/pedro/devel/optee/optee_os/lib/libutee/tee_api_operations.c:1226
    3320:	b900327f 	str	wzr, [x19,#48]
/home/pedro/devel/optee/optee_os/lib/libutee/tee_api_operations.c:1224
    3324:	120e7800 	and	w0, w0, #0xfffdffff
    3328:	b9001e60 	str	w0, [x19,#28]
/home/pedro/devel/optee/optee_os/lib/libutee/tee_api_operations.c:1229
    332c:	7100029f 	cmp	w20, #0x0
    3330:	129ffde0 	mov	w0, #0xffff0010            	// #-65520
    3334:	7a401284 	ccmp	w20, w0, #0x4, ne
    3338:	54000060 	b.eq	3344 <TEE_MACComputeFinal+0xa8>
/home/pedro/devel/optee/optee_os/lib/libutee/tee_api_operations.c:1231
    333c:	2a1403e0 	mov	w0, w20
    3340:	940003ce 	bl	4278 <TEE_Panic>
/home/pedro/devel/optee/optee_os/lib/libutee/tee_api_operations.c:1234
    3344:	2a1403e0 	mov	w0, w20
    3348:	f94013f5 	ldr	x21, [sp,#32]
    334c:	a94153f3 	ldp	x19, x20, [sp,#16]
    3350:	a8c47bfd 	ldp	x29, x30, [sp],#64
    3354:	d65f03c0 	ret

0000000000003358 <TEE_MACCompareFinal>:
TEE_MACCompareFinal():
/home/pedro/devel/optee/optee_os/lib/libutee/tee_api_operations.c:1239
    3358:	a9b77bfd 	stp	x29, x30, [sp,#-144]!
    335c:	910003fd 	mov	x29, sp
    3360:	a9025bf5 	stp	x21, x22, [sp,#32]
    3364:	aa0303f6 	mov	x22, x3
/home/pedro/devel/optee/optee_os/lib/libutee/tee_api_operations.c:1242
    3368:	52800803 	mov	w3, #0x40                  	// #64
/home/pedro/devel/optee/optee_os/lib/libutee/tee_api_operations.c:1239
    336c:	a90153f3 	stp	x19, x20, [sp,#16]
/home/pedro/devel/optee/optee_os/lib/libutee/tee_api_operations.c:1242
    3370:	b9004fa3 	str	w3, [x29,#76]
/home/pedro/devel/optee/optee_os/lib/libutee/tee_api_operations.c:1245
    3374:	129fff33 	mov	w19, #0xffff0006            	// #-65530
/home/pedro/devel/optee/optee_os/lib/libutee/tee_api_operations.c:1244
    3378:	b9400403 	ldr	w3, [x0,#4]
/home/pedro/devel/optee/optee_os/lib/libutee/tee_api_operations.c:1239
    337c:	f9001bf7 	str	x23, [sp,#48]
/home/pedro/devel/optee/optee_os/lib/libutee/tee_api_operations.c:1244
    3380:	71000c7f 	cmp	w3, #0x3
    3384:	54000241 	b.ne	33cc <TEE_MACCompareFinal+0x74>
/home/pedro/devel/optee/optee_os/lib/libutee/tee_api_operations.c:1249
    3388:	b9401c03 	ldr	w3, [x0,#28]
    338c:	aa0003f4 	mov	x20, x0
    3390:	368801e3 	tbz	w3, #17, 33cc <TEE_MACCompareFinal+0x74>
/home/pedro/devel/optee/optee_os/lib/libutee/tee_api_operations.c:1254
    3394:	b9403003 	ldr	w3, [x0,#48]
    3398:	7100047f 	cmp	w3, #0x1
    339c:	54000181 	b.ne	33cc <TEE_MACCompareFinal+0x74>
/home/pedro/devel/optee/optee_os/lib/libutee/tee_api_operations.c:1259
    33a0:	910143b5 	add	x21, x29, #0x50
    33a4:	2a0403f7 	mov	w23, w4
    33a8:	aa1503e3 	mov	x3, x21
    33ac:	910133a4 	add	x4, x29, #0x4c
    33b0:	97ffffbb 	bl	329c <TEE_MACComputeFinal>
    33b4:	2a0003f3 	mov	w19, w0
/home/pedro/devel/optee/optee_os/lib/libutee/tee_api_operations.c:1261
    33b8:	350000a0 	cbnz	w0, 33cc <TEE_MACCompareFinal+0x74>
/home/pedro/devel/optee/optee_os/lib/libutee/tee_api_operations.c:1264
    33bc:	b9404fa2 	ldr	w2, [x29,#76]
    33c0:	6b17005f 	cmp	w2, w23
    33c4:	540001c0 	b.eq	33fc <TEE_MACCompareFinal+0xa4>
/home/pedro/devel/optee/optee_os/lib/libutee/tee_api_operations.c:1265
    33c8:	1299f1d3 	mov	w19, #0xffff3071            	// #-53135
/home/pedro/devel/optee/optee_os/lib/libutee/tee_api_operations.c:1277
    33cc:	7100027f 	cmp	w19, #0x0
    33d0:	1299f1c0 	mov	w0, #0xffff3071            	// #-53135
    33d4:	7a401264 	ccmp	w19, w0, #0x4, ne
    33d8:	54000060 	b.eq	33e4 <TEE_MACCompareFinal+0x8c>
/home/pedro/devel/optee/optee_os/lib/libutee/tee_api_operations.c:1279
    33dc:	2a1303e0 	mov	w0, w19
    33e0:	940003a6 	bl	4278 <TEE_Panic>
/home/pedro/devel/optee/optee_os/lib/libutee/tee_api_operations.c:1282
    33e4:	2a1303e0 	mov	w0, w19
    33e8:	f9401bf7 	ldr	x23, [sp,#48]
    33ec:	a94153f3 	ldp	x19, x20, [sp,#16]
    33f0:	a9425bf5 	ldp	x21, x22, [sp,#32]
    33f4:	a8c97bfd 	ldp	x29, x30, [sp],#144
    33f8:	d65f03c0 	ret
/home/pedro/devel/optee/optee_os/lib/libutee/tee_api_operations.c:1269
    33fc:	2a0203e2 	mov	w2, w2
    3400:	aa1503e1 	mov	x1, x21
    3404:	aa1603e0 	mov	x0, x22
    3408:	9400104c 	bl	7538 <buf_compare_ct>
    340c:	35fffde0 	cbnz	w0, 33c8 <TEE_MACCompareFinal+0x70>
/home/pedro/devel/optee/optee_os/lib/libutee/tee_api_operations.c:1274
    3410:	b900329f 	str	wzr, [x20,#48]
    3414:	17ffffee 	b	33cc <TEE_MACCompareFinal+0x74>

0000000000003418 <TEE_AEInit>:
TEE_AEInit():
/home/pedro/devel/optee/optee_os/lib/libutee/tee_api_operations.c:1289
    3418:	a9bd7bfd 	stp	x29, x30, [sp,#-48]!
/home/pedro/devel/optee/optee_os/lib/libutee/tee_api_operations.c:1292
    341c:	f100001f 	cmp	x0, #0x0
    3420:	fa401824 	ccmp	x1, #0x0, #0x4, ne
/home/pedro/devel/optee/optee_os/lib/libutee/tee_api_operations.c:1289
    3424:	910003fd 	mov	x29, sp
    3428:	a90153f3 	stp	x19, x20, [sp,#16]
/home/pedro/devel/optee/optee_os/lib/libutee/tee_api_operations.c:1293
    342c:	129fff34 	mov	w20, #0xffff0006            	// #-65530
/home/pedro/devel/optee/optee_os/lib/libutee/tee_api_operations.c:1289
    3430:	f90013f5 	str	x21, [sp,#32]
/home/pedro/devel/optee/optee_os/lib/libutee/tee_api_operations.c:1292
    3434:	540003e0 	b.eq	34b0 <TEE_AEInit+0x98>
    3438:	aa0003f3 	mov	x19, x0
/home/pedro/devel/optee/optee_os/lib/libutee/tee_api_operations.c:1297
    343c:	b9400400 	ldr	w0, [x0,#4]
    3440:	7100101f 	cmp	w0, #0x4
    3444:	54000361 	b.ne	34b0 <TEE_AEInit+0x98>
/home/pedro/devel/optee/optee_os/lib/libutee/tee_api_operations.c:1302
    3448:	b9403260 	ldr	w0, [x19,#48]
    344c:	35000320 	cbnz	w0, 34b0 <TEE_AEInit+0x98>
/home/pedro/devel/optee/optee_os/lib/libutee/tee_api_operations.c:1313
    3450:	b9400266 	ldr	w6, [x19]
    3454:	52810200 	mov	w0, #0x810                 	// #2064
    3458:	72a80000 	movk	w0, #0x4000, lsl #16
    345c:	6b0000df 	cmp	w6, w0
    3460:	540000e1 	b.ne	347c <TEE_AEInit+0x64>
/home/pedro/devel/optee/optee_os/lib/libutee/tee_api_operations.c:1317
    3464:	51018060 	sub	w0, w3, #0x60
/home/pedro/devel/optee/optee_os/lib/libutee/tee_api_operations.c:1318
    3468:	129ffeb4 	mov	w20, #0xffff000a            	// #-65526
/home/pedro/devel/optee/optee_os/lib/libutee/tee_api_operations.c:1317
    346c:	7100801f 	cmp	w0, #0x20
    3470:	54000208 	b.hi	34b0 <TEE_AEInit+0x98>
/home/pedro/devel/optee/optee_os/lib/libutee/tee_api_operations.c:1317 (discriminator 1)
    3474:	f240087f 	tst	x3, #0x7
    3478:	540001c1 	b.ne	34b0 <TEE_AEInit+0x98>
/home/pedro/devel/optee/optee_os/lib/libutee/tee_api_operations.c:1323
    347c:	b9405a60 	ldr	w0, [x19,#88]
/home/pedro/devel/optee/optee_os/lib/libutee/tee_api_operations.c:1324
    3480:	53037c75 	lsr	w21, w3, #3
/home/pedro/devel/optee/optee_os/lib/libutee/tee_api_operations.c:1323
    3484:	2a0503e5 	mov	w5, w5
    3488:	2a0403e4 	mov	w4, w4
    348c:	924072a3 	and	x3, x21, #0x1fffffff
    3490:	2a0203e2 	mov	w2, w2
    3494:	94000492 	bl	46dc <utee_authenc_init>
    3498:	2a0003f4 	mov	w20, w0
/home/pedro/devel/optee/optee_os/lib/libutee/tee_api_operations.c:1325
    349c:	350000a0 	cbnz	w0, 34b0 <TEE_AEInit+0x98>
/home/pedro/devel/optee/optee_os/lib/libutee/tee_api_operations.c:1329
    34a0:	b9401e60 	ldr	w0, [x19,#28]
/home/pedro/devel/optee/optee_os/lib/libutee/tee_api_operations.c:1328
    34a4:	b9005e75 	str	w21, [x19,#92]
/home/pedro/devel/optee/optee_os/lib/libutee/tee_api_operations.c:1329
    34a8:	320f0000 	orr	w0, w0, #0x20000
    34ac:	b9001e60 	str	w0, [x19,#28]
/home/pedro/devel/optee/optee_os/lib/libutee/tee_api_operations.c:1332
    34b0:	7100029f 	cmp	w20, #0x0
    34b4:	129ffea0 	mov	w0, #0xffff000a            	// #-65526
    34b8:	7a401284 	ccmp	w20, w0, #0x4, ne
    34bc:	54000060 	b.eq	34c8 <TEE_AEInit+0xb0>
/home/pedro/devel/optee/optee_os/lib/libutee/tee_api_operations.c:1334
    34c0:	2a1403e0 	mov	w0, w20
    34c4:	9400036d 	bl	4278 <TEE_Panic>
/home/pedro/devel/optee/optee_os/lib/libutee/tee_api_operations.c:1337
    34c8:	2a1403e0 	mov	w0, w20
    34cc:	f94013f5 	ldr	x21, [sp,#32]
    34d0:	a94153f3 	ldp	x19, x20, [sp,#16]
    34d4:	a8c37bfd 	ldp	x29, x30, [sp],#48
    34d8:	d65f03c0 	ret

00000000000034dc <TEE_AEUpdateAAD>:
TEE_AEUpdateAAD():
/home/pedro/devel/optee/optee_os/lib/libutee/tee_api_operations.c:1341
    34dc:	a9bd7bfd 	stp	x29, x30, [sp,#-48]!
    34e0:	910003fd 	mov	x29, sp
    34e4:	a90153f3 	stp	x19, x20, [sp,#16]
    34e8:	aa0003f3 	mov	x19, x0
    34ec:	f90013f5 	str	x21, [sp,#32]
    34f0:	aa0103f4 	mov	x20, x1
    34f4:	2a0203f5 	mov	w21, w2
/home/pedro/devel/optee/optee_os/lib/libutee/tee_api_operations.c:1344
    34f8:	b4000080 	cbz	x0, 3508 <TEE_AEUpdateAAD+0x2c>
/home/pedro/devel/optee/optee_os/lib/libutee/tee_api_operations.c:1345 (discriminator 1)
    34fc:	f100003f 	cmp	x1, #0x0
/home/pedro/devel/optee/optee_os/lib/libutee/tee_api_operations.c:1344 (discriminator 1)
    3500:	7a400844 	ccmp	w2, #0x0, #0x4, eq
    3504:	54000060 	b.eq	3510 <TEE_AEUpdateAAD+0x34>
/home/pedro/devel/optee/optee_os/lib/libutee/tee_api_operations.c:1346
    3508:	52800000 	mov	w0, #0x0                   	// #0
    350c:	9400035b 	bl	4278 <TEE_Panic>
/home/pedro/devel/optee/optee_os/lib/libutee/tee_api_operations.c:1348
    3510:	b9400660 	ldr	w0, [x19,#4]
    3514:	7100101f 	cmp	w0, #0x4
    3518:	54000060 	b.eq	3524 <TEE_AEUpdateAAD+0x48>
/home/pedro/devel/optee/optee_os/lib/libutee/tee_api_operations.c:1349
    351c:	52800000 	mov	w0, #0x0                   	// #0
    3520:	94000356 	bl	4278 <TEE_Panic>
/home/pedro/devel/optee/optee_os/lib/libutee/tee_api_operations.c:1351
    3524:	b9401e60 	ldr	w0, [x19,#28]
    3528:	37880060 	tbnz	w0, #17, 3534 <TEE_AEUpdateAAD+0x58>
/home/pedro/devel/optee/optee_os/lib/libutee/tee_api_operations.c:1352
    352c:	52800000 	mov	w0, #0x0                   	// #0
    3530:	94000352 	bl	4278 <TEE_Panic>
/home/pedro/devel/optee/optee_os/lib/libutee/tee_api_operations.c:1354
    3534:	b9405a60 	ldr	w0, [x19,#88]
    3538:	aa1403e1 	mov	x1, x20
    353c:	2a1503e2 	mov	w2, w21
    3540:	9400046a 	bl	46e8 <utee_authenc_update_aad>
/home/pedro/devel/optee/optee_os/lib/libutee/tee_api_operations.c:1356
    3544:	52800021 	mov	w1, #0x1                   	// #1
    3548:	b9003261 	str	w1, [x19,#48]
/home/pedro/devel/optee/optee_os/lib/libutee/tee_api_operations.c:1358
    354c:	340000a0 	cbz	w0, 3560 <TEE_AEUpdateAAD+0x84>
/home/pedro/devel/optee/optee_os/lib/libutee/tee_api_operations.c:1360
    3550:	a94153f3 	ldp	x19, x20, [sp,#16]
    3554:	f94013f5 	ldr	x21, [sp,#32]
    3558:	a8c37bfd 	ldp	x29, x30, [sp],#48
/home/pedro/devel/optee/optee_os/lib/libutee/tee_api_operations.c:1359
    355c:	14000347 	b	4278 <TEE_Panic>
/home/pedro/devel/optee/optee_os/lib/libutee/tee_api_operations.c:1360
    3560:	a94153f3 	ldp	x19, x20, [sp,#16]
    3564:	f94013f5 	ldr	x21, [sp,#32]
    3568:	a8c37bfd 	ldp	x29, x30, [sp],#48
    356c:	d65f03c0 	ret

0000000000003570 <TEE_AEUpdate>:
TEE_AEUpdate():
/home/pedro/devel/optee/optee_os/lib/libutee/tee_api_operations.c:1364
    3570:	a9bc7bfd 	stp	x29, x30, [sp,#-64]!
    3574:	910003fd 	mov	x29, sp
    3578:	a90153f3 	stp	x19, x20, [sp,#16]
/home/pedro/devel/optee/optee_os/lib/libutee/tee_api_operations.c:1373
    357c:	129fff33 	mov	w19, #0xffff0006            	// #-65530
/home/pedro/devel/optee/optee_os/lib/libutee/tee_api_operations.c:1364
    3580:	f90013f5 	str	x21, [sp,#32]
/home/pedro/devel/optee/optee_os/lib/libutee/tee_api_operations.c:1369
    3584:	b4000560 	cbz	x0, 3630 <TEE_AEUpdate+0xc0>
/home/pedro/devel/optee/optee_os/lib/libutee/tee_api_operations.c:1370 (discriminator 1)
    3588:	f100003f 	cmp	x1, #0x0
    358c:	aa0403f5 	mov	x21, x4
    3590:	1a9f17e4 	cset	w4, eq
    3594:	7100005f 	cmp	w2, #0x0
    3598:	aa0003f4 	mov	x20, x0
    359c:	1a9f07e0 	cset	w0, ne
    35a0:	f10002bf 	cmp	x21, #0x0
    35a4:	2a0203e5 	mov	w5, w2
    35a8:	0a000082 	and	w2, w4, w0
    35ac:	1a9f17e0 	cset	w0, eq
    35b0:	2a020000 	orr	w0, w0, w2
    35b4:	350003e0 	cbnz	w0, 3630 <TEE_AEUpdate+0xc0>
/home/pedro/devel/optee/optee_os/lib/libutee/tee_api_operations.c:1371
    35b8:	b5000063 	cbnz	x3, 35c4 <TEE_AEUpdate+0x54>
/home/pedro/devel/optee/optee_os/lib/libutee/tee_api_operations.c:1372
    35bc:	b94002a0 	ldr	w0, [x21]
    35c0:	35000380 	cbnz	w0, 3630 <TEE_AEUpdate+0xc0>
/home/pedro/devel/optee/optee_os/lib/libutee/tee_api_operations.c:1377
    35c4:	b9400680 	ldr	w0, [x20,#4]
/home/pedro/devel/optee/optee_os/lib/libutee/tee_api_operations.c:1373
    35c8:	129fff33 	mov	w19, #0xffff0006            	// #-65530
/home/pedro/devel/optee/optee_os/lib/libutee/tee_api_operations.c:1377
    35cc:	7100101f 	cmp	w0, #0x4
    35d0:	54000301 	b.ne	3630 <TEE_AEUpdate+0xc0>
/home/pedro/devel/optee/optee_os/lib/libutee/tee_api_operations.c:1382
    35d4:	b9401e80 	ldr	w0, [x20,#28]
    35d8:	368802c0 	tbz	w0, #17, 3630 <TEE_AEUpdate+0xc0>
/home/pedro/devel/optee/optee_os/lib/libutee/tee_api_operations.c:1387
    35dc:	710000bf 	cmp	w5, #0x0
    35e0:	1a9f17e0 	cset	w0, eq
    35e4:	6a00009f 	tst	w4, w0
    35e8:	54000080 	b.eq	35f8 <TEE_AEUpdate+0x88>
/home/pedro/devel/optee/optee_os/lib/libutee/tee_api_operations.c:1388
    35ec:	b90002bf 	str	wzr, [x21]
/home/pedro/devel/optee/optee_os/lib/libutee/tee_api_operations.c:1430
    35f0:	52800013 	mov	w19, #0x0                   	// #0
    35f4:	1400000f 	b	3630 <TEE_AEUpdate+0xc0>
/home/pedro/devel/optee/optee_os/lib/libutee/tee_api_operations.c:1398
    35f8:	f9402684 	ldr	x4, [x20,#72]
    35fc:	2a0503e2 	mov	w2, w5
/home/pedro/devel/optee/optee_os/lib/libutee/tee_api_operations.c:1402
    3600:	aa0203e0 	mov	x0, x2
/home/pedro/devel/optee/optee_os/lib/libutee/tee_api_operations.c:1398
    3604:	f100049f 	cmp	x4, #0x1
    3608:	540000a9 	b.ls	361c <TEE_AEUpdate+0xac>
/home/pedro/devel/optee/optee_os/lib/libutee/tee_api_operations.c:1399
    360c:	f9402a80 	ldr	x0, [x20,#80]
    3610:	cb0403e6 	neg	x6, x4
    3614:	8b000040 	add	x0, x2, x0
    3618:	8a060000 	and	x0, x0, x6
/home/pedro/devel/optee/optee_os/lib/libutee/tee_api_operations.c:1405
    361c:	b94002a6 	ldr	w6, [x21]
    3620:	eb06001f 	cmp	x0, x6
    3624:	540001c9 	b.ls	365c <TEE_AEUpdate+0xec>
/home/pedro/devel/optee/optee_os/lib/libutee/tee_api_operations.c:1407
    3628:	129ffdf3 	mov	w19, #0xffff0010            	// #-65520
/home/pedro/devel/optee/optee_os/lib/libutee/tee_api_operations.c:1406
    362c:	b90002a0 	str	w0, [x21]
/home/pedro/devel/optee/optee_os/lib/libutee/tee_api_operations.c:1433
    3630:	7100027f 	cmp	w19, #0x0
    3634:	129ffde0 	mov	w0, #0xffff0010            	// #-65520
    3638:	7a401264 	ccmp	w19, w0, #0x4, ne
    363c:	54000060 	b.eq	3648 <TEE_AEUpdate+0xd8>
/home/pedro/devel/optee/optee_os/lib/libutee/tee_api_operations.c:1435
    3640:	2a1303e0 	mov	w0, w19
    3644:	9400030d 	bl	4278 <TEE_Panic>
/home/pedro/devel/optee/optee_os/lib/libutee/tee_api_operations.c:1438
    3648:	2a1303e0 	mov	w0, w19
    364c:	f94013f5 	ldr	x21, [sp,#32]
    3650:	a94153f3 	ldp	x19, x20, [sp,#16]
    3654:	a8c47bfd 	ldp	x29, x30, [sp],#64
    3658:	d65f03c0 	ret
/home/pedro/devel/optee/optee_os/lib/libutee/tee_api_operations.c:1411
    365c:	f9001fa6 	str	x6, [x29,#56]
/home/pedro/devel/optee/optee_os/lib/libutee/tee_api_operations.c:1412
    3660:	f100049f 	cmp	x4, #0x1
    3664:	54000209 	b.ls	36a4 <TEE_AEUpdate+0x134>
/home/pedro/devel/optee/optee_os/lib/libutee/tee_api_operations.c:1413
    3668:	aa0303e4 	mov	x4, x3
    366c:	aa0203e3 	mov	x3, x2
    3670:	aa0103e2 	mov	x2, x1
    3674:	d0000041 	adrp	x1, d000 <__func__.3637+0xb58>
    3678:	9100e3a5 	add	x5, x29, #0x38
    367c:	aa1403e0 	mov	x0, x20
    3680:	f9414821 	ldr	x1, [x1,#656]
    3684:	94000276 	bl	405c <tee_buffer_update>
/home/pedro/devel/optee/optee_os/lib/libutee/tee_api_operations.c:1417
    3688:	2a0003f3 	mov	w19, w0
/home/pedro/devel/optee/optee_os/lib/libutee/tee_api_operations.c:1425
    368c:	35fffd20 	cbnz	w0, 3630 <TEE_AEUpdate+0xc0>
/home/pedro/devel/optee/optee_os/lib/libutee/tee_api_operations.c:1428
    3690:	f9401fa0 	ldr	x0, [x29,#56]
    3694:	b90002a0 	str	w0, [x21]
/home/pedro/devel/optee/optee_os/lib/libutee/tee_api_operations.c:1430
    3698:	52800020 	mov	w0, #0x1                   	// #1
    369c:	b9003280 	str	w0, [x20,#48]
    36a0:	17ffffd4 	b	35f0 <TEE_AEUpdate+0x80>
/home/pedro/devel/optee/optee_os/lib/libutee/tee_api_operations.c:1416
    36a4:	340000a5 	cbz	w5, 36b8 <TEE_AEUpdate+0x148>
/home/pedro/devel/optee/optee_os/lib/libutee/tee_api_operations.c:1417
    36a8:	b9405a80 	ldr	w0, [x20,#88]
    36ac:	9100e3a4 	add	x4, x29, #0x38
    36b0:	94000411 	bl	46f4 <utee_authenc_update_payload>
    36b4:	17fffff5 	b	3688 <TEE_AEUpdate+0x118>
/home/pedro/devel/optee/optee_os/lib/libutee/tee_api_operations.c:1421
    36b8:	f9001fbf 	str	xzr, [x29,#56]
    36bc:	17fffff5 	b	3690 <TEE_AEUpdate+0x120>

00000000000036c0 <TEE_AEEncryptFinal>:
TEE_AEEncryptFinal():
/home/pedro/devel/optee/optee_os/lib/libutee/tee_api_operations.c:1444
    36c0:	a9ba7bfd 	stp	x29, x30, [sp,#-96]!
    36c4:	910003fd 	mov	x29, sp
    36c8:	a90153f3 	stp	x19, x20, [sp,#16]
/home/pedro/devel/optee/optee_os/lib/libutee/tee_api_operations.c:1457
    36cc:	129fff33 	mov	w19, #0xffff0006            	// #-65530
/home/pedro/devel/optee/optee_os/lib/libutee/tee_api_operations.c:1444
    36d0:	a9025bf5 	stp	x21, x22, [sp,#32]
    36d4:	a90363f7 	stp	x23, x24, [sp,#48]
    36d8:	a9046bf9 	stp	x25, x26, [sp,#64]
/home/pedro/devel/optee/optee_os/lib/libutee/tee_api_operations.c:1452
    36dc:	b40003c0 	cbz	x0, 3754 <TEE_AEEncryptFinal+0x94>
/home/pedro/devel/optee/optee_os/lib/libutee/tee_api_operations.c:1453 (discriminator 1)
    36e0:	f100003f 	cmp	x1, #0x0
    36e4:	aa0403f5 	mov	x21, x4
    36e8:	7a400844 	ccmp	w2, #0x0, #0x4, eq
    36ec:	fa400884 	ccmp	x4, #0x0, #0x4, eq
    36f0:	54000320 	b.eq	3754 <TEE_AEEncryptFinal+0x94>
    36f4:	aa0003f4 	mov	x20, x0
    36f8:	aa0303f9 	mov	x25, x3
    36fc:	aa0503fa 	mov	x26, x5
    3700:	aa0603f8 	mov	x24, x6
/home/pedro/devel/optee/optee_os/lib/libutee/tee_api_operations.c:1454
    3704:	b5000063 	cbnz	x3, 3710 <TEE_AEEncryptFinal+0x50>
/home/pedro/devel/optee/optee_os/lib/libutee/tee_api_operations.c:1455
    3708:	b9400080 	ldr	w0, [x4]
    370c:	35000240 	cbnz	w0, 3754 <TEE_AEEncryptFinal+0x94>
/home/pedro/devel/optee/optee_os/lib/libutee/tee_api_operations.c:1456
    3710:	f100035f 	cmp	x26, #0x0
/home/pedro/devel/optee/optee_os/lib/libutee/tee_api_operations.c:1457
    3714:	129fff33 	mov	w19, #0xffff0006            	// #-65530
/home/pedro/devel/optee/optee_os/lib/libutee/tee_api_operations.c:1456
    3718:	fa401b04 	ccmp	x24, #0x0, #0x4, ne
    371c:	540001c0 	b.eq	3754 <TEE_AEEncryptFinal+0x94>
/home/pedro/devel/optee/optee_os/lib/libutee/tee_api_operations.c:1461
    3720:	b9400680 	ldr	w0, [x20,#4]
    3724:	7100101f 	cmp	w0, #0x4
    3728:	54000161 	b.ne	3754 <TEE_AEEncryptFinal+0x94>
/home/pedro/devel/optee/optee_os/lib/libutee/tee_api_operations.c:1466
    372c:	b9401e80 	ldr	w0, [x20,#28]
    3730:	36880120 	tbz	w0, #17, 3754 <TEE_AEEncryptFinal+0x94>
/home/pedro/devel/optee/optee_os/lib/libutee/tee_api_operations.c:1476
    3734:	f9402a80 	ldr	x0, [x20,#80]
    3738:	2a0203e2 	mov	w2, w2
/home/pedro/devel/optee/optee_os/lib/libutee/tee_api_operations.c:1477
    373c:	b94002a3 	ldr	w3, [x21]
/home/pedro/devel/optee/optee_os/lib/libutee/tee_api_operations.c:1476
    3740:	8b000040 	add	x0, x2, x0
/home/pedro/devel/optee/optee_os/lib/libutee/tee_api_operations.c:1477
    3744:	eb03001f 	cmp	x0, x3
    3748:	54000209 	b.ls	3788 <TEE_AEEncryptFinal+0xc8>
/home/pedro/devel/optee/optee_os/lib/libutee/tee_api_operations.c:1478
    374c:	b90002a0 	str	w0, [x21]
/home/pedro/devel/optee/optee_os/lib/libutee/tee_api_operations.c:1489
    3750:	129ffdf3 	mov	w19, #0xffff0010            	// #-65520
/home/pedro/devel/optee/optee_os/lib/libutee/tee_api_operations.c:1526
    3754:	7100027f 	cmp	w19, #0x0
    3758:	129ffde0 	mov	w0, #0xffff0010            	// #-65520
    375c:	7a401264 	ccmp	w19, w0, #0x4, ne
    3760:	54000060 	b.eq	376c <TEE_AEEncryptFinal+0xac>
/home/pedro/devel/optee/optee_os/lib/libutee/tee_api_operations.c:1528
    3764:	2a1303e0 	mov	w0, w19
    3768:	940002c4 	bl	4278 <TEE_Panic>
/home/pedro/devel/optee/optee_os/lib/libutee/tee_api_operations.c:1531
    376c:	2a1303e0 	mov	w0, w19
    3770:	a94153f3 	ldp	x19, x20, [sp,#16]
    3774:	a9425bf5 	ldp	x21, x22, [sp,#32]
    3778:	a94363f7 	ldp	x23, x24, [sp,#48]
    377c:	a9446bf9 	ldp	x25, x26, [sp,#64]
    3780:	a8c67bfd 	ldp	x29, x30, [sp],#96
    3784:	d65f03c0 	ret
/home/pedro/devel/optee/optee_os/lib/libutee/tee_api_operations.c:1487
    3788:	b9405e84 	ldr	w4, [x20,#92]
    378c:	b9400300 	ldr	w0, [x24]
    3790:	6b04001f 	cmp	w0, w4
    3794:	54000062 	b.cs	37a0 <TEE_AEEncryptFinal+0xe0>
/home/pedro/devel/optee/optee_os/lib/libutee/tee_api_operations.c:1488
    3798:	b9000304 	str	w4, [x24]
    379c:	17ffffed 	b	3750 <TEE_AEEncryptFinal+0x90>
/home/pedro/devel/optee/optee_os/lib/libutee/tee_api_operations.c:1494
    37a0:	910183b7 	add	x23, x29, #0x60
/home/pedro/devel/optee/optee_os/lib/libutee/tee_api_operations.c:1493
    37a4:	2a0003e0 	mov	w0, w0
    37a8:	f9002fa0 	str	x0, [x29,#88]
/home/pedro/devel/optee/optee_os/lib/libutee/tee_api_operations.c:1495
    37ac:	f9402680 	ldr	x0, [x20,#72]
/home/pedro/devel/optee/optee_os/lib/libutee/tee_api_operations.c:1494
    37b0:	f81f0ee3 	str	x3, [x23,#-16]!
/home/pedro/devel/optee/optee_os/lib/libutee/tee_api_operations.c:1495
    37b4:	f100041f 	cmp	x0, #0x1
    37b8:	54000469 	b.ls	3844 <TEE_AEEncryptFinal+0x184>
/home/pedro/devel/optee/optee_os/lib/libutee/tee_api_operations.c:1496
    37bc:	aa0203e3 	mov	x3, x2
    37c0:	aa0103e2 	mov	x2, x1
    37c4:	d0000041 	adrp	x1, d000 <__func__.3637+0xb58>
    37c8:	aa1703e5 	mov	x5, x23
    37cc:	aa1903e4 	mov	x4, x25
    37d0:	aa1403e0 	mov	x0, x20
    37d4:	f9414821 	ldr	x1, [x1,#656]
    37d8:	94000221 	bl	405c <tee_buffer_update>
    37dc:	2a0003f3 	mov	w19, w0
/home/pedro/devel/optee/optee_os/lib/libutee/tee_api_operations.c:1498
    37e0:	35fffba0 	cbnz	w0, 3754 <TEE_AEEncryptFinal+0x94>
/home/pedro/devel/optee/optee_os/lib/libutee/tee_api_operations.c:1501
    37e4:	f9402bb6 	ldr	x22, [x29,#80]
/home/pedro/devel/optee/optee_os/lib/libutee/tee_api_operations.c:1505
    37e8:	910163a6 	add	x6, x29, #0x58
/home/pedro/devel/optee/optee_os/lib/libutee/tee_api_operations.c:1504
    37ec:	b94002a0 	ldr	w0, [x21]
/home/pedro/devel/optee/optee_os/lib/libutee/tee_api_operations.c:1505
    37f0:	aa1a03e5 	mov	x5, x26
    37f4:	f9401e81 	ldr	x1, [x20,#56]
    37f8:	aa1703e4 	mov	x4, x23
/home/pedro/devel/optee/optee_os/lib/libutee/tee_api_operations.c:1504
    37fc:	cb160000 	sub	x0, x0, x22
/home/pedro/devel/optee/optee_os/lib/libutee/tee_api_operations.c:1505
    3800:	f9402a82 	ldr	x2, [x20,#80]
/home/pedro/devel/optee/optee_os/lib/libutee/tee_api_operations.c:1504
    3804:	f9002ba0 	str	x0, [x29,#80]
/home/pedro/devel/optee/optee_os/lib/libutee/tee_api_operations.c:1505
    3808:	8b160323 	add	x3, x25, x22
    380c:	b9405a80 	ldr	w0, [x20,#88]
    3810:	940003bc 	bl	4700 <utee_authenc_enc_final>
    3814:	2a0003f3 	mov	w19, w0
/home/pedro/devel/optee/optee_os/lib/libutee/tee_api_operations.c:1514
    3818:	f9402fa0 	ldr	x0, [x29,#88]
    381c:	b9000300 	str	w0, [x24]
/home/pedro/devel/optee/optee_os/lib/libutee/tee_api_operations.c:1515
    3820:	35fff9b3 	cbnz	w19, 3754 <TEE_AEEncryptFinal+0x94>
/home/pedro/devel/optee/optee_os/lib/libutee/tee_api_operations.c:1518
    3824:	f9402ba0 	ldr	x0, [x29,#80]
    3828:	8b0002d6 	add	x22, x22, x0
/home/pedro/devel/optee/optee_os/lib/libutee/tee_api_operations.c:1519
    382c:	b90002b6 	str	w22, [x21]
/home/pedro/devel/optee/optee_os/lib/libutee/tee_api_operations.c:1523
    3830:	b900329f 	str	wzr, [x20,#48]
/home/pedro/devel/optee/optee_os/lib/libutee/tee_api_operations.c:1521
    3834:	b9401e80 	ldr	w0, [x20,#28]
    3838:	120e7800 	and	w0, w0, #0xfffdffff
    383c:	b9001e80 	str	w0, [x20,#28]
    3840:	17ffffc5 	b	3754 <TEE_AEEncryptFinal+0x94>
/home/pedro/devel/optee/optee_os/lib/libutee/tee_api_operations.c:1510
    3844:	b9405a80 	ldr	w0, [x20,#88]
    3848:	910163a6 	add	x6, x29, #0x58
    384c:	aa1a03e5 	mov	x5, x26
    3850:	aa1703e4 	mov	x4, x23
    3854:	aa1903e3 	mov	x3, x25
/home/pedro/devel/optee/optee_os/lib/libutee/tee_api_operations.c:1447
    3858:	d2800016 	mov	x22, #0x0                   	// #0
/home/pedro/devel/optee/optee_os/lib/libutee/tee_api_operations.c:1510
    385c:	940003a9 	bl	4700 <utee_authenc_enc_final>
    3860:	2a0003f3 	mov	w19, w0
    3864:	17ffffed 	b	3818 <TEE_AEEncryptFinal+0x158>

0000000000003868 <TEE_AEDecryptFinal>:
TEE_AEDecryptFinal():
/home/pedro/devel/optee/optee_os/lib/libutee/tee_api_operations.c:1537
    3868:	a9ba7bfd 	stp	x29, x30, [sp,#-96]!
    386c:	910003fd 	mov	x29, sp
    3870:	a90153f3 	stp	x19, x20, [sp,#16]
/home/pedro/devel/optee/optee_os/lib/libutee/tee_api_operations.c:1549
    3874:	129fff33 	mov	w19, #0xffff0006            	// #-65530
/home/pedro/devel/optee/optee_os/lib/libutee/tee_api_operations.c:1537
    3878:	a9025bf5 	stp	x21, x22, [sp,#32]
    387c:	a90363f7 	stp	x23, x24, [sp,#48]
    3880:	a9046bf9 	stp	x25, x26, [sp,#64]
/home/pedro/devel/optee/optee_os/lib/libutee/tee_api_operations.c:1544
    3884:	b40003c0 	cbz	x0, 38fc <TEE_AEDecryptFinal+0x94>
/home/pedro/devel/optee/optee_os/lib/libutee/tee_api_operations.c:1545 (discriminator 1)
    3888:	f100003f 	cmp	x1, #0x0
    388c:	aa0403f5 	mov	x21, x4
    3890:	7a400844 	ccmp	w2, #0x0, #0x4, eq
    3894:	fa400884 	ccmp	x4, #0x0, #0x4, eq
    3898:	54000320 	b.eq	38fc <TEE_AEDecryptFinal+0x94>
    389c:	aa0003f4 	mov	x20, x0
    38a0:	aa0303f9 	mov	x25, x3
    38a4:	aa0503fa 	mov	x26, x5
    38a8:	2a0603f8 	mov	w24, w6
/home/pedro/devel/optee/optee_os/lib/libutee/tee_api_operations.c:1546
    38ac:	b5000063 	cbnz	x3, 38b8 <TEE_AEDecryptFinal+0x50>
/home/pedro/devel/optee/optee_os/lib/libutee/tee_api_operations.c:1547
    38b0:	b9400080 	ldr	w0, [x4]
    38b4:	35000240 	cbnz	w0, 38fc <TEE_AEDecryptFinal+0x94>
/home/pedro/devel/optee/optee_os/lib/libutee/tee_api_operations.c:1548 (discriminator 1)
    38b8:	f100035f 	cmp	x26, #0x0
/home/pedro/devel/optee/optee_os/lib/libutee/tee_api_operations.c:1549 (discriminator 1)
    38bc:	129fff33 	mov	w19, #0xffff0006            	// #-65530
/home/pedro/devel/optee/optee_os/lib/libutee/tee_api_operations.c:1547 (discriminator 1)
    38c0:	7a400b04 	ccmp	w24, #0x0, #0x4, eq
    38c4:	540001c1 	b.ne	38fc <TEE_AEDecryptFinal+0x94>
/home/pedro/devel/optee/optee_os/lib/libutee/tee_api_operations.c:1553
    38c8:	b9400680 	ldr	w0, [x20,#4]
    38cc:	7100101f 	cmp	w0, #0x4
    38d0:	54000161 	b.ne	38fc <TEE_AEDecryptFinal+0x94>
/home/pedro/devel/optee/optee_os/lib/libutee/tee_api_operations.c:1558
    38d4:	b9401e80 	ldr	w0, [x20,#28]
    38d8:	36880120 	tbz	w0, #17, 38fc <TEE_AEDecryptFinal+0x94>
/home/pedro/devel/optee/optee_os/lib/libutee/tee_api_operations.c:1568
    38dc:	f9402a80 	ldr	x0, [x20,#80]
    38e0:	2a0203e2 	mov	w2, w2
/home/pedro/devel/optee/optee_os/lib/libutee/tee_api_operations.c:1569
    38e4:	b94002a3 	ldr	w3, [x21]
/home/pedro/devel/optee/optee_os/lib/libutee/tee_api_operations.c:1568
    38e8:	8b000040 	add	x0, x2, x0
/home/pedro/devel/optee/optee_os/lib/libutee/tee_api_operations.c:1569
    38ec:	eb03001f 	cmp	x0, x3
    38f0:	54000249 	b.ls	3938 <TEE_AEDecryptFinal+0xd0>
/home/pedro/devel/optee/optee_os/lib/libutee/tee_api_operations.c:1571
    38f4:	129ffdf3 	mov	w19, #0xffff0010            	// #-65520
/home/pedro/devel/optee/optee_os/lib/libutee/tee_api_operations.c:1570
    38f8:	b90002a0 	str	w0, [x21]
/home/pedro/devel/optee/optee_os/lib/libutee/tee_api_operations.c:1611
    38fc:	7100027f 	cmp	w19, #0x0
    3900:	129ffde0 	mov	w0, #0xffff0010            	// #-65520
    3904:	7a401264 	ccmp	w19, w0, #0x4, ne
    3908:	1299f1c0 	mov	w0, #0xffff3071            	// #-53135
    390c:	7a401264 	ccmp	w19, w0, #0x4, ne
    3910:	54000060 	b.eq	391c <TEE_AEDecryptFinal+0xb4>
/home/pedro/devel/optee/optee_os/lib/libutee/tee_api_operations.c:1613
    3914:	2a1303e0 	mov	w0, w19
    3918:	94000258 	bl	4278 <TEE_Panic>
/home/pedro/devel/optee/optee_os/lib/libutee/tee_api_operations.c:1616
    391c:	2a1303e0 	mov	w0, w19
    3920:	a94153f3 	ldp	x19, x20, [sp,#16]
    3924:	a9425bf5 	ldp	x21, x22, [sp,#32]
    3928:	a94363f7 	ldp	x23, x24, [sp,#48]
    392c:	a9446bf9 	ldp	x25, x26, [sp,#64]
    3930:	a8c67bfd 	ldp	x29, x30, [sp],#96
    3934:	d65f03c0 	ret
/home/pedro/devel/optee/optee_os/lib/libutee/tee_api_operations.c:1575
    3938:	910183b7 	add	x23, x29, #0x60
/home/pedro/devel/optee/optee_os/lib/libutee/tee_api_operations.c:1576
    393c:	f9402680 	ldr	x0, [x20,#72]
    3940:	f100041f 	cmp	x0, #0x1
/home/pedro/devel/optee/optee_os/lib/libutee/tee_api_operations.c:1575
    3944:	f81f8ee3 	str	x3, [x23,#-8]!
/home/pedro/devel/optee/optee_os/lib/libutee/tee_api_operations.c:1576
    3948:	540004a9 	b.ls	39dc <TEE_AEDecryptFinal+0x174>
/home/pedro/devel/optee/optee_os/lib/libutee/tee_api_operations.c:1577
    394c:	aa0203e3 	mov	x3, x2
    3950:	aa0103e2 	mov	x2, x1
    3954:	d0000041 	adrp	x1, d000 <__func__.3637+0xb58>
    3958:	aa1703e5 	mov	x5, x23
    395c:	aa1903e4 	mov	x4, x25
    3960:	aa1403e0 	mov	x0, x20
    3964:	f9414821 	ldr	x1, [x1,#656]
    3968:	940001bd 	bl	405c <tee_buffer_update>
    396c:	2a0003f3 	mov	w19, w0
/home/pedro/devel/optee/optee_os/lib/libutee/tee_api_operations.c:1579
    3970:	35fffc60 	cbnz	w0, 38fc <TEE_AEDecryptFinal+0x94>
/home/pedro/devel/optee/optee_os/lib/libutee/tee_api_operations.c:1582
    3974:	f9402fb6 	ldr	x22, [x29,#88]
/home/pedro/devel/optee/optee_os/lib/libutee/tee_api_operations.c:1586
    3978:	2a1803e6 	mov	w6, w24
/home/pedro/devel/optee/optee_os/lib/libutee/tee_api_operations.c:1585
    397c:	b94002a0 	ldr	w0, [x21]
/home/pedro/devel/optee/optee_os/lib/libutee/tee_api_operations.c:1586
    3980:	aa1a03e5 	mov	x5, x26
    3984:	f9401e81 	ldr	x1, [x20,#56]
    3988:	aa1703e4 	mov	x4, x23
/home/pedro/devel/optee/optee_os/lib/libutee/tee_api_operations.c:1585
    398c:	cb160000 	sub	x0, x0, x22
/home/pedro/devel/optee/optee_os/lib/libutee/tee_api_operations.c:1586
    3990:	f9402a82 	ldr	x2, [x20,#80]
/home/pedro/devel/optee/optee_os/lib/libutee/tee_api_operations.c:1585
    3994:	f9002fa0 	str	x0, [x29,#88]
/home/pedro/devel/optee/optee_os/lib/libutee/tee_api_operations.c:1586
    3998:	8b160323 	add	x3, x25, x22
    399c:	b9405a80 	ldr	w0, [x20,#88]
    39a0:	9400035b 	bl	470c <utee_authenc_dec_final>
    39a4:	2a0003f3 	mov	w19, w0
/home/pedro/devel/optee/optee_os/lib/libutee/tee_api_operations.c:1595
    39a8:	35fffab3 	cbnz	w19, 38fc <TEE_AEDecryptFinal+0x94>
/home/pedro/devel/optee/optee_os/lib/libutee/tee_api_operations.c:1599
    39ac:	b9405e80 	ldr	w0, [x20,#92]
/home/pedro/devel/optee/optee_os/lib/libutee/tee_api_operations.c:1600
    39b0:	1299f1d3 	mov	w19, #0xffff3071            	// #-53135
    39b4:	6b00031f 	cmp	w24, w0
/home/pedro/devel/optee/optee_os/lib/libutee/tee_api_operations.c:1602
    39b8:	f9402fa0 	ldr	x0, [x29,#88]
/home/pedro/devel/optee/optee_os/lib/libutee/tee_api_operations.c:1600
    39bc:	1a9303f3 	csel	w19, wzr, w19, eq
/home/pedro/devel/optee/optee_os/lib/libutee/tee_api_operations.c:1602
    39c0:	8b0002d6 	add	x22, x22, x0
/home/pedro/devel/optee/optee_os/lib/libutee/tee_api_operations.c:1603
    39c4:	b90002b6 	str	w22, [x21]
/home/pedro/devel/optee/optee_os/lib/libutee/tee_api_operations.c:1607
    39c8:	b900329f 	str	wzr, [x20,#48]
/home/pedro/devel/optee/optee_os/lib/libutee/tee_api_operations.c:1605
    39cc:	b9401e80 	ldr	w0, [x20,#28]
    39d0:	120e7800 	and	w0, w0, #0xfffdffff
    39d4:	b9001e80 	str	w0, [x20,#28]
    39d8:	17ffffc9 	b	38fc <TEE_AEDecryptFinal+0x94>
/home/pedro/devel/optee/optee_os/lib/libutee/tee_api_operations.c:1591
    39dc:	b9405a80 	ldr	w0, [x20,#88]
    39e0:	2a1803e6 	mov	w6, w24
    39e4:	aa1a03e5 	mov	x5, x26
    39e8:	aa1703e4 	mov	x4, x23
    39ec:	aa1903e3 	mov	x3, x25
/home/pedro/devel/optee/optee_os/lib/libutee/tee_api_operations.c:1540
    39f0:	d2800016 	mov	x22, #0x0                   	// #0
/home/pedro/devel/optee/optee_os/lib/libutee/tee_api_operations.c:1591
    39f4:	94000346 	bl	470c <utee_authenc_dec_final>
    39f8:	2a0003f3 	mov	w19, w0
    39fc:	17ffffeb 	b	39a8 <TEE_AEDecryptFinal+0x140>

0000000000003a00 <TEE_AsymmetricEncrypt>:
TEE_AsymmetricEncrypt():
/home/pedro/devel/optee/optee_os/lib/libutee/tee_api_operations.c:1625
    3a00:	a9b97bfd 	stp	x29, x30, [sp,#-112]!
    3a04:	910003fd 	mov	x29, sp
    3a08:	a9046bf9 	stp	x25, x26, [sp,#64]
    3a0c:	2a0203fa 	mov	w26, w2
    3a10:	a90153f3 	stp	x19, x20, [sp,#16]
    3a14:	aa0003f3 	mov	x19, x0
/home/pedro/devel/optee/optee_os/lib/libutee/tee_api_operations.c:1627
    3a18:	52800300 	mov	w0, #0x18                  	// #24
/home/pedro/devel/optee/optee_os/lib/libutee/tee_api_operations.c:1625
    3a1c:	a9025bf5 	stp	x21, x22, [sp,#32]
    3a20:	a90363f7 	stp	x23, x24, [sp,#48]
    3a24:	aa0103f9 	mov	x25, x1
/home/pedro/devel/optee/optee_os/lib/libutee/tee_api_operations.c:1627
    3a28:	9ba07f40 	umull	x0, w26, w0
/home/pedro/devel/optee/optee_os/lib/libutee/tee_api_operations.c:1625
    3a2c:	f9002bfb 	str	x27, [sp,#80]
    3a30:	aa1a03f5 	mov	x21, x26
    3a34:	aa0303f6 	mov	x22, x3
/home/pedro/devel/optee/optee_os/lib/libutee/tee_api_operations.c:1627
    3a38:	91005800 	add	x0, x0, #0x16
/home/pedro/devel/optee/optee_os/lib/libutee/tee_api_operations.c:1625
    3a3c:	2a0403f7 	mov	w23, w4
/home/pedro/devel/optee/optee_os/lib/libutee/tee_api_operations.c:1627
    3a40:	927c8400 	and	x0, x0, #0x3ffffffff0
/home/pedro/devel/optee/optee_os/lib/libutee/tee_api_operations.c:1625
    3a44:	aa0503f8 	mov	x24, x5
/home/pedro/devel/optee/optee_os/lib/libutee/tee_api_operations.c:1627
    3a48:	cb2063ff 	sub	sp, sp, x0
/home/pedro/devel/optee/optee_os/lib/libutee/tee_api_operations.c:1625
    3a4c:	aa0603f4 	mov	x20, x6
/home/pedro/devel/optee/optee_os/lib/libutee/tee_api_operations.c:1627
    3a50:	910003fb 	mov	x27, sp
/home/pedro/devel/optee/optee_os/lib/libutee/tee_api_operations.c:1630
    3a54:	b4000113 	cbz	x19, 3a74 <TEE_AsymmetricEncrypt+0x74>
/home/pedro/devel/optee/optee_os/lib/libutee/tee_api_operations.c:1630 (discriminator 1)
    3a58:	f100007f 	cmp	x3, #0x0
    3a5c:	7a400884 	ccmp	w4, #0x0, #0x4, eq
    3a60:	fa4008c4 	ccmp	x6, #0x0, #0x4, eq
    3a64:	54000080 	b.eq	3a74 <TEE_AsymmetricEncrypt+0x74>
/home/pedro/devel/optee/optee_os/lib/libutee/tee_api_operations.c:1631
    3a68:	b50000a5 	cbnz	x5, 3a7c <TEE_AsymmetricEncrypt+0x7c>
/home/pedro/devel/optee/optee_os/lib/libutee/tee_api_operations.c:1631 (discriminator 1)
    3a6c:	b94000c0 	ldr	w0, [x6]
    3a70:	34000060 	cbz	w0, 3a7c <TEE_AsymmetricEncrypt+0x7c>
/home/pedro/devel/optee/optee_os/lib/libutee/tee_api_operations.c:1632
    3a74:	52800000 	mov	w0, #0x0                   	// #0
    3a78:	94000200 	bl	4278 <TEE_Panic>
/home/pedro/devel/optee/optee_os/lib/libutee/tee_api_operations.c:1633
    3a7c:	f100033f 	cmp	x25, #0x0
    3a80:	7a400aa4 	ccmp	w21, #0x0, #0x4, eq
    3a84:	54000060 	b.eq	3a90 <TEE_AsymmetricEncrypt+0x90>
/home/pedro/devel/optee/optee_os/lib/libutee/tee_api_operations.c:1634
    3a88:	52800000 	mov	w0, #0x0                   	// #0
    3a8c:	940001fb 	bl	4278 <TEE_Panic>
/home/pedro/devel/optee/optee_os/lib/libutee/tee_api_operations.c:1635
    3a90:	f9401260 	ldr	x0, [x19,#32]
    3a94:	b5000040 	cbnz	x0, 3a9c <TEE_AsymmetricEncrypt+0x9c>
/home/pedro/devel/optee/optee_os/lib/libutee/tee_api_operations.c:1636
    3a98:	940001f8 	bl	4278 <TEE_Panic>
/home/pedro/devel/optee/optee_os/lib/libutee/tee_api_operations.c:1637
    3a9c:	b9400660 	ldr	w0, [x19,#4]
    3aa0:	7100181f 	cmp	w0, #0x6
    3aa4:	54000060 	b.eq	3ab0 <TEE_AsymmetricEncrypt+0xb0>
/home/pedro/devel/optee/optee_os/lib/libutee/tee_api_operations.c:1638
    3aa8:	52800000 	mov	w0, #0x0                   	// #0
    3aac:	940001f3 	bl	4278 <TEE_Panic>
/home/pedro/devel/optee/optee_os/lib/libutee/tee_api_operations.c:1639
    3ab0:	b9400a60 	ldr	w0, [x19,#8]
    3ab4:	34000060 	cbz	w0, 3ac0 <TEE_AsymmetricEncrypt+0xc0>
/home/pedro/devel/optee/optee_os/lib/libutee/tee_api_operations.c:1640
    3ab8:	52800000 	mov	w0, #0x0                   	// #0
    3abc:	940001ef 	bl	4278 <TEE_Panic>
/home/pedro/devel/optee/optee_os/lib/libutee/tee_api_operations.c:1642
    3ac0:	2a1503e2 	mov	w2, w21
    3ac4:	aa1903e1 	mov	x1, x25
    3ac8:	aa1b03e0 	mov	x0, x27
    3acc:	97fff5bb 	bl	11b8 <__utee_from_attr>
/home/pedro/devel/optee/optee_os/lib/libutee/tee_api_operations.c:1643
    3ad0:	9101c3a6 	add	x6, x29, #0x70
    3ad4:	b9400280 	ldr	w0, [x20]
/home/pedro/devel/optee/optee_os/lib/libutee/tee_api_operations.c:1644
    3ad8:	aa1b03e1 	mov	x1, x27
    3adc:	aa1803e5 	mov	x5, x24
    3ae0:	2a1703e4 	mov	w4, w23
    3ae4:	aa1603e3 	mov	x3, x22
/home/pedro/devel/optee/optee_os/lib/libutee/tee_api_operations.c:1643
    3ae8:	f81f8cc0 	str	x0, [x6,#-8]!
/home/pedro/devel/optee/optee_os/lib/libutee/tee_api_operations.c:1644
    3aec:	aa1a03e2 	mov	x2, x26
    3af0:	b9405a60 	ldr	w0, [x19,#88]
    3af4:	94000309 	bl	4718 <utee_asymm_operate>
/home/pedro/devel/optee/optee_os/lib/libutee/tee_api_operations.c:1649
    3af8:	7100001f 	cmp	w0, #0x0
/home/pedro/devel/optee/optee_os/lib/libutee/tee_api_operations.c:1646
    3afc:	f94037a1 	ldr	x1, [x29,#104]
/home/pedro/devel/optee/optee_os/lib/libutee/tee_api_operations.c:1644
    3b00:	2a0003f3 	mov	w19, w0
/home/pedro/devel/optee/optee_os/lib/libutee/tee_api_operations.c:1646
    3b04:	b9000281 	str	w1, [x20]
/home/pedro/devel/optee/optee_os/lib/libutee/tee_api_operations.c:1649
    3b08:	129ffde1 	mov	w1, #0xffff0010            	// #-65520
    3b0c:	7a411004 	ccmp	w0, w1, #0x4, ne
    3b10:	129fff21 	mov	w1, #0xffff0006            	// #-65530
    3b14:	7a411004 	ccmp	w0, w1, #0x4, ne
    3b18:	54000040 	b.eq	3b20 <TEE_AsymmetricEncrypt+0x120>
/home/pedro/devel/optee/optee_os/lib/libutee/tee_api_operations.c:1651
    3b1c:	940001d7 	bl	4278 <TEE_Panic>
/home/pedro/devel/optee/optee_os/lib/libutee/tee_api_operations.c:1654
    3b20:	910003bf 	mov	sp, x29
    3b24:	2a1303e0 	mov	w0, w19
    3b28:	f9402bfb 	ldr	x27, [sp,#80]
    3b2c:	a94153f3 	ldp	x19, x20, [sp,#16]
    3b30:	a9425bf5 	ldp	x21, x22, [sp,#32]
    3b34:	a94363f7 	ldp	x23, x24, [sp,#48]
    3b38:	a9446bf9 	ldp	x25, x26, [sp,#64]
    3b3c:	a8c77bfd 	ldp	x29, x30, [sp],#112
    3b40:	d65f03c0 	ret

0000000000003b44 <TEE_AsymmetricDecrypt>:
TEE_AsymmetricDecrypt():
/home/pedro/devel/optee/optee_os/lib/libutee/tee_api_operations.c:1661
    3b44:	a9b97bfd 	stp	x29, x30, [sp,#-112]!
    3b48:	910003fd 	mov	x29, sp
    3b4c:	a9046bf9 	stp	x25, x26, [sp,#64]
    3b50:	2a0203fa 	mov	w26, w2
    3b54:	a90153f3 	stp	x19, x20, [sp,#16]
    3b58:	aa0003f3 	mov	x19, x0
/home/pedro/devel/optee/optee_os/lib/libutee/tee_api_operations.c:1663
    3b5c:	52800300 	mov	w0, #0x18                  	// #24
/home/pedro/devel/optee/optee_os/lib/libutee/tee_api_operations.c:1661
    3b60:	a9025bf5 	stp	x21, x22, [sp,#32]
    3b64:	a90363f7 	stp	x23, x24, [sp,#48]
    3b68:	aa0103f9 	mov	x25, x1
/home/pedro/devel/optee/optee_os/lib/libutee/tee_api_operations.c:1663
    3b6c:	9ba07f40 	umull	x0, w26, w0
/home/pedro/devel/optee/optee_os/lib/libutee/tee_api_operations.c:1661
    3b70:	f9002bfb 	str	x27, [sp,#80]
    3b74:	aa1a03f5 	mov	x21, x26
    3b78:	aa0303f6 	mov	x22, x3
/home/pedro/devel/optee/optee_os/lib/libutee/tee_api_operations.c:1663
    3b7c:	91005800 	add	x0, x0, #0x16
/home/pedro/devel/optee/optee_os/lib/libutee/tee_api_operations.c:1661
    3b80:	2a0403f7 	mov	w23, w4
/home/pedro/devel/optee/optee_os/lib/libutee/tee_api_operations.c:1663
    3b84:	927c8400 	and	x0, x0, #0x3ffffffff0
/home/pedro/devel/optee/optee_os/lib/libutee/tee_api_operations.c:1661
    3b88:	aa0503f8 	mov	x24, x5
/home/pedro/devel/optee/optee_os/lib/libutee/tee_api_operations.c:1663
    3b8c:	cb2063ff 	sub	sp, sp, x0
/home/pedro/devel/optee/optee_os/lib/libutee/tee_api_operations.c:1661
    3b90:	aa0603f4 	mov	x20, x6
/home/pedro/devel/optee/optee_os/lib/libutee/tee_api_operations.c:1663
    3b94:	910003fb 	mov	x27, sp
/home/pedro/devel/optee/optee_os/lib/libutee/tee_api_operations.c:1666
    3b98:	b4000113 	cbz	x19, 3bb8 <TEE_AsymmetricDecrypt+0x74>
/home/pedro/devel/optee/optee_os/lib/libutee/tee_api_operations.c:1666 (discriminator 1)
    3b9c:	f100007f 	cmp	x3, #0x0
    3ba0:	7a400884 	ccmp	w4, #0x0, #0x4, eq
    3ba4:	fa4008c4 	ccmp	x6, #0x0, #0x4, eq
    3ba8:	54000080 	b.eq	3bb8 <TEE_AsymmetricDecrypt+0x74>
/home/pedro/devel/optee/optee_os/lib/libutee/tee_api_operations.c:1667
    3bac:	b50000a5 	cbnz	x5, 3bc0 <TEE_AsymmetricDecrypt+0x7c>
/home/pedro/devel/optee/optee_os/lib/libutee/tee_api_operations.c:1667 (discriminator 1)
    3bb0:	b94000c0 	ldr	w0, [x6]
    3bb4:	34000060 	cbz	w0, 3bc0 <TEE_AsymmetricDecrypt+0x7c>
/home/pedro/devel/optee/optee_os/lib/libutee/tee_api_operations.c:1668
    3bb8:	52800000 	mov	w0, #0x0                   	// #0
    3bbc:	940001af 	bl	4278 <TEE_Panic>
/home/pedro/devel/optee/optee_os/lib/libutee/tee_api_operations.c:1669
    3bc0:	f100033f 	cmp	x25, #0x0
    3bc4:	7a400aa4 	ccmp	w21, #0x0, #0x4, eq
    3bc8:	54000060 	b.eq	3bd4 <TEE_AsymmetricDecrypt+0x90>
/home/pedro/devel/optee/optee_os/lib/libutee/tee_api_operations.c:1670
    3bcc:	52800000 	mov	w0, #0x0                   	// #0
    3bd0:	940001aa 	bl	4278 <TEE_Panic>
/home/pedro/devel/optee/optee_os/lib/libutee/tee_api_operations.c:1671
    3bd4:	f9401260 	ldr	x0, [x19,#32]
    3bd8:	b5000040 	cbnz	x0, 3be0 <TEE_AsymmetricDecrypt+0x9c>
/home/pedro/devel/optee/optee_os/lib/libutee/tee_api_operations.c:1672
    3bdc:	940001a7 	bl	4278 <TEE_Panic>
/home/pedro/devel/optee/optee_os/lib/libutee/tee_api_operations.c:1673
    3be0:	b9400660 	ldr	w0, [x19,#4]
    3be4:	7100181f 	cmp	w0, #0x6
    3be8:	54000060 	b.eq	3bf4 <TEE_AsymmetricDecrypt+0xb0>
/home/pedro/devel/optee/optee_os/lib/libutee/tee_api_operations.c:1674
    3bec:	52800000 	mov	w0, #0x0                   	// #0
    3bf0:	940001a2 	bl	4278 <TEE_Panic>
/home/pedro/devel/optee/optee_os/lib/libutee/tee_api_operations.c:1675
    3bf4:	b9400a60 	ldr	w0, [x19,#8]
    3bf8:	7100041f 	cmp	w0, #0x1
    3bfc:	54000060 	b.eq	3c08 <TEE_AsymmetricDecrypt+0xc4>
/home/pedro/devel/optee/optee_os/lib/libutee/tee_api_operations.c:1676
    3c00:	52800000 	mov	w0, #0x0                   	// #0
    3c04:	9400019d 	bl	4278 <TEE_Panic>
/home/pedro/devel/optee/optee_os/lib/libutee/tee_api_operations.c:1678
    3c08:	2a1503e2 	mov	w2, w21
    3c0c:	aa1903e1 	mov	x1, x25
    3c10:	aa1b03e0 	mov	x0, x27
    3c14:	97fff569 	bl	11b8 <__utee_from_attr>
/home/pedro/devel/optee/optee_os/lib/libutee/tee_api_operations.c:1679
    3c18:	9101c3a6 	add	x6, x29, #0x70
    3c1c:	b9400280 	ldr	w0, [x20]
/home/pedro/devel/optee/optee_os/lib/libutee/tee_api_operations.c:1680
    3c20:	aa1b03e1 	mov	x1, x27
    3c24:	aa1803e5 	mov	x5, x24
    3c28:	2a1703e4 	mov	w4, w23
    3c2c:	aa1603e3 	mov	x3, x22
/home/pedro/devel/optee/optee_os/lib/libutee/tee_api_operations.c:1679
    3c30:	f81f8cc0 	str	x0, [x6,#-8]!
/home/pedro/devel/optee/optee_os/lib/libutee/tee_api_operations.c:1680
    3c34:	aa1a03e2 	mov	x2, x26
    3c38:	b9405a60 	ldr	w0, [x19,#88]
    3c3c:	940002b7 	bl	4718 <utee_asymm_operate>
/home/pedro/devel/optee/optee_os/lib/libutee/tee_api_operations.c:1685
    3c40:	7100001f 	cmp	w0, #0x0
/home/pedro/devel/optee/optee_os/lib/libutee/tee_api_operations.c:1682
    3c44:	f94037a1 	ldr	x1, [x29,#104]
/home/pedro/devel/optee/optee_os/lib/libutee/tee_api_operations.c:1680
    3c48:	2a0003f3 	mov	w19, w0
/home/pedro/devel/optee/optee_os/lib/libutee/tee_api_operations.c:1682
    3c4c:	b9000281 	str	w1, [x20]
/home/pedro/devel/optee/optee_os/lib/libutee/tee_api_operations.c:1685
    3c50:	129ffde1 	mov	w1, #0xffff0010            	// #-65520
    3c54:	7a411004 	ccmp	w0, w1, #0x4, ne
    3c58:	129fff21 	mov	w1, #0xffff0006            	// #-65530
    3c5c:	7a411004 	ccmp	w0, w1, #0x4, ne
    3c60:	54000040 	b.eq	3c68 <TEE_AsymmetricDecrypt+0x124>
/home/pedro/devel/optee/optee_os/lib/libutee/tee_api_operations.c:1687
    3c64:	94000185 	bl	4278 <TEE_Panic>
/home/pedro/devel/optee/optee_os/lib/libutee/tee_api_operations.c:1690
    3c68:	910003bf 	mov	sp, x29
    3c6c:	2a1303e0 	mov	w0, w19
    3c70:	f9402bfb 	ldr	x27, [sp,#80]
    3c74:	a94153f3 	ldp	x19, x20, [sp,#16]
    3c78:	a9425bf5 	ldp	x21, x22, [sp,#32]
    3c7c:	a94363f7 	ldp	x23, x24, [sp,#48]
    3c80:	a9446bf9 	ldp	x25, x26, [sp,#64]
    3c84:	a8c77bfd 	ldp	x29, x30, [sp],#112
    3c88:	d65f03c0 	ret

0000000000003c8c <TEE_AsymmetricSignDigest>:
TEE_AsymmetricSignDigest():
/home/pedro/devel/optee/optee_os/lib/libutee/tee_api_operations.c:1697
    3c8c:	a9b97bfd 	stp	x29, x30, [sp,#-112]!
    3c90:	910003fd 	mov	x29, sp
    3c94:	a9046bf9 	stp	x25, x26, [sp,#64]
    3c98:	2a0203fa 	mov	w26, w2
    3c9c:	a90153f3 	stp	x19, x20, [sp,#16]
    3ca0:	aa0003f3 	mov	x19, x0
/home/pedro/devel/optee/optee_os/lib/libutee/tee_api_operations.c:1699
    3ca4:	52800300 	mov	w0, #0x18                  	// #24
/home/pedro/devel/optee/optee_os/lib/libutee/tee_api_operations.c:1697
    3ca8:	a9025bf5 	stp	x21, x22, [sp,#32]
    3cac:	a90363f7 	stp	x23, x24, [sp,#48]
    3cb0:	aa0103f9 	mov	x25, x1
/home/pedro/devel/optee/optee_os/lib/libutee/tee_api_operations.c:1699
    3cb4:	9ba07f40 	umull	x0, w26, w0
/home/pedro/devel/optee/optee_os/lib/libutee/tee_api_operations.c:1697
    3cb8:	f9002bfb 	str	x27, [sp,#80]
    3cbc:	aa1a03f4 	mov	x20, x26
    3cc0:	aa0303f6 	mov	x22, x3
/home/pedro/devel/optee/optee_os/lib/libutee/tee_api_operations.c:1699
    3cc4:	91005800 	add	x0, x0, #0x16
/home/pedro/devel/optee/optee_os/lib/libutee/tee_api_operations.c:1697
    3cc8:	2a0403f7 	mov	w23, w4
/home/pedro/devel/optee/optee_os/lib/libutee/tee_api_operations.c:1699
    3ccc:	927c8400 	and	x0, x0, #0x3ffffffff0
/home/pedro/devel/optee/optee_os/lib/libutee/tee_api_operations.c:1697
    3cd0:	aa0503f8 	mov	x24, x5
/home/pedro/devel/optee/optee_os/lib/libutee/tee_api_operations.c:1699
    3cd4:	cb2063ff 	sub	sp, sp, x0
/home/pedro/devel/optee/optee_os/lib/libutee/tee_api_operations.c:1697
    3cd8:	aa0603f5 	mov	x21, x6
/home/pedro/devel/optee/optee_os/lib/libutee/tee_api_operations.c:1699
    3cdc:	910003fb 	mov	x27, sp
/home/pedro/devel/optee/optee_os/lib/libutee/tee_api_operations.c:1702
    3ce0:	b40000f3 	cbz	x19, 3cfc <TEE_AsymmetricSignDigest+0x70>
/home/pedro/devel/optee/optee_os/lib/libutee/tee_api_operations.c:1703 (discriminator 1)
    3ce4:	f100007f 	cmp	x3, #0x0
/home/pedro/devel/optee/optee_os/lib/libutee/tee_api_operations.c:1702 (discriminator 1)
    3ce8:	7a400884 	ccmp	w4, #0x0, #0x4, eq
    3cec:	54000081 	b.ne	3cfc <TEE_AsymmetricSignDigest+0x70>
/home/pedro/devel/optee/optee_os/lib/libutee/tee_api_operations.c:1704
    3cf0:	f10000bf 	cmp	x5, #0x0
    3cf4:	fa4018c4 	ccmp	x6, #0x0, #0x4, ne
    3cf8:	54000061 	b.ne	3d04 <TEE_AsymmetricSignDigest+0x78>
/home/pedro/devel/optee/optee_os/lib/libutee/tee_api_operations.c:1705
    3cfc:	52800000 	mov	w0, #0x0                   	// #0
    3d00:	9400015e 	bl	4278 <TEE_Panic>
/home/pedro/devel/optee/optee_os/lib/libutee/tee_api_operations.c:1706
    3d04:	f100033f 	cmp	x25, #0x0
    3d08:	7a400a84 	ccmp	w20, #0x0, #0x4, eq
    3d0c:	54000060 	b.eq	3d18 <TEE_AsymmetricSignDigest+0x8c>
/home/pedro/devel/optee/optee_os/lib/libutee/tee_api_operations.c:1707
    3d10:	52800000 	mov	w0, #0x0                   	// #0
    3d14:	94000159 	bl	4278 <TEE_Panic>
/home/pedro/devel/optee/optee_os/lib/libutee/tee_api_operations.c:1708
    3d18:	f9401260 	ldr	x0, [x19,#32]
    3d1c:	b5000040 	cbnz	x0, 3d24 <TEE_AsymmetricSignDigest+0x98>
/home/pedro/devel/optee/optee_os/lib/libutee/tee_api_operations.c:1709
    3d20:	94000156 	bl	4278 <TEE_Panic>
/home/pedro/devel/optee/optee_os/lib/libutee/tee_api_operations.c:1710
    3d24:	b9400660 	ldr	w0, [x19,#4]
    3d28:	71001c1f 	cmp	w0, #0x7
    3d2c:	54000060 	b.eq	3d38 <TEE_AsymmetricSignDigest+0xac>
/home/pedro/devel/optee/optee_os/lib/libutee/tee_api_operations.c:1712
    3d30:	52800000 	mov	w0, #0x0                   	// #0
    3d34:	94000151 	bl	4278 <TEE_Panic>
/home/pedro/devel/optee/optee_os/lib/libutee/tee_api_operations.c:1713
    3d38:	b9400a60 	ldr	w0, [x19,#8]
    3d3c:	7100081f 	cmp	w0, #0x2
    3d40:	54000060 	b.eq	3d4c <TEE_AsymmetricSignDigest+0xc0>
/home/pedro/devel/optee/optee_os/lib/libutee/tee_api_operations.c:1714
    3d44:	52800000 	mov	w0, #0x0                   	// #0
    3d48:	9400014c 	bl	4278 <TEE_Panic>
/home/pedro/devel/optee/optee_os/lib/libutee/tee_api_operations.c:1716
    3d4c:	2a1403e2 	mov	w2, w20
    3d50:	aa1903e1 	mov	x1, x25
    3d54:	aa1b03e0 	mov	x0, x27
    3d58:	97fff518 	bl	11b8 <__utee_from_attr>
/home/pedro/devel/optee/optee_os/lib/libutee/tee_api_operations.c:1717
    3d5c:	9101c3a6 	add	x6, x29, #0x70
    3d60:	b94002a0 	ldr	w0, [x21]
/home/pedro/devel/optee/optee_os/lib/libutee/tee_api_operations.c:1718
    3d64:	aa1b03e1 	mov	x1, x27
    3d68:	aa1803e5 	mov	x5, x24
    3d6c:	2a1703e4 	mov	w4, w23
    3d70:	aa1603e3 	mov	x3, x22
/home/pedro/devel/optee/optee_os/lib/libutee/tee_api_operations.c:1717
    3d74:	f81f8cc0 	str	x0, [x6,#-8]!
/home/pedro/devel/optee/optee_os/lib/libutee/tee_api_operations.c:1718
    3d78:	aa1a03e2 	mov	x2, x26
    3d7c:	b9405a60 	ldr	w0, [x19,#88]
    3d80:	94000266 	bl	4718 <utee_asymm_operate>
/home/pedro/devel/optee/optee_os/lib/libutee/tee_api_operations.c:1722
    3d84:	7100001f 	cmp	w0, #0x0
/home/pedro/devel/optee/optee_os/lib/libutee/tee_api_operations.c:1720
    3d88:	f94037a1 	ldr	x1, [x29,#104]
/home/pedro/devel/optee/optee_os/lib/libutee/tee_api_operations.c:1718
    3d8c:	2a0003f3 	mov	w19, w0
/home/pedro/devel/optee/optee_os/lib/libutee/tee_api_operations.c:1720
    3d90:	b90002a1 	str	w1, [x21]
/home/pedro/devel/optee/optee_os/lib/libutee/tee_api_operations.c:1722
    3d94:	129ffde1 	mov	w1, #0xffff0010            	// #-65520
    3d98:	7a411004 	ccmp	w0, w1, #0x4, ne
    3d9c:	54000040 	b.eq	3da4 <TEE_AsymmetricSignDigest+0x118>
/home/pedro/devel/optee/optee_os/lib/libutee/tee_api_operations.c:1723
    3da0:	94000136 	bl	4278 <TEE_Panic>
/home/pedro/devel/optee/optee_os/lib/libutee/tee_api_operations.c:1726
    3da4:	910003bf 	mov	sp, x29
    3da8:	2a1303e0 	mov	w0, w19
    3dac:	f9402bfb 	ldr	x27, [sp,#80]
    3db0:	a94153f3 	ldp	x19, x20, [sp,#16]
    3db4:	a9425bf5 	ldp	x21, x22, [sp,#32]
    3db8:	a94363f7 	ldp	x23, x24, [sp,#48]
    3dbc:	a9446bf9 	ldp	x25, x26, [sp,#64]
    3dc0:	a8c77bfd 	ldp	x29, x30, [sp],#112
    3dc4:	d65f03c0 	ret

0000000000003dc8 <TEE_AsymmetricVerifyDigest>:
TEE_AsymmetricVerifyDigest():
/home/pedro/devel/optee/optee_os/lib/libutee/tee_api_operations.c:1734
    3dc8:	a9ba7bfd 	stp	x29, x30, [sp,#-96]!
    3dcc:	910003fd 	mov	x29, sp
    3dd0:	a9046bf9 	stp	x25, x26, [sp,#64]
    3dd4:	2a0203fa 	mov	w26, w2
    3dd8:	a90153f3 	stp	x19, x20, [sp,#16]
    3ddc:	aa0003f3 	mov	x19, x0
/home/pedro/devel/optee/optee_os/lib/libutee/tee_api_operations.c:1736
    3de0:	52800300 	mov	w0, #0x18                  	// #24
/home/pedro/devel/optee/optee_os/lib/libutee/tee_api_operations.c:1734
    3de4:	a9025bf5 	stp	x21, x22, [sp,#32]
    3de8:	a90363f7 	stp	x23, x24, [sp,#48]
    3dec:	aa0103f9 	mov	x25, x1
/home/pedro/devel/optee/optee_os/lib/libutee/tee_api_operations.c:1736
    3df0:	9ba07f40 	umull	x0, w26, w0
/home/pedro/devel/optee/optee_os/lib/libutee/tee_api_operations.c:1734
    3df4:	f9002bfb 	str	x27, [sp,#80]
    3df8:	aa1a03f4 	mov	x20, x26
    3dfc:	aa0303f5 	mov	x21, x3
/home/pedro/devel/optee/optee_os/lib/libutee/tee_api_operations.c:1736
    3e00:	91005800 	add	x0, x0, #0x16
/home/pedro/devel/optee/optee_os/lib/libutee/tee_api_operations.c:1734
    3e04:	2a0403f6 	mov	w22, w4
/home/pedro/devel/optee/optee_os/lib/libutee/tee_api_operations.c:1736
    3e08:	927c8400 	and	x0, x0, #0x3ffffffff0
/home/pedro/devel/optee/optee_os/lib/libutee/tee_api_operations.c:1734
    3e0c:	aa0503f7 	mov	x23, x5
/home/pedro/devel/optee/optee_os/lib/libutee/tee_api_operations.c:1736
    3e10:	cb2063ff 	sub	sp, sp, x0
/home/pedro/devel/optee/optee_os/lib/libutee/tee_api_operations.c:1734
    3e14:	2a0603f8 	mov	w24, w6
/home/pedro/devel/optee/optee_os/lib/libutee/tee_api_operations.c:1736
    3e18:	910003fb 	mov	x27, sp
/home/pedro/devel/optee/optee_os/lib/libutee/tee_api_operations.c:1738
    3e1c:	b40000f3 	cbz	x19, 3e38 <TEE_AsymmetricVerifyDigest+0x70>
/home/pedro/devel/optee/optee_os/lib/libutee/tee_api_operations.c:1739 (discriminator 1)
    3e20:	f100007f 	cmp	x3, #0x0
/home/pedro/devel/optee/optee_os/lib/libutee/tee_api_operations.c:1738 (discriminator 1)
    3e24:	7a400884 	ccmp	w4, #0x0, #0x4, eq
    3e28:	54000081 	b.ne	3e38 <TEE_AsymmetricVerifyDigest+0x70>
/home/pedro/devel/optee/optee_os/lib/libutee/tee_api_operations.c:1740
    3e2c:	f10000bf 	cmp	x5, #0x0
/home/pedro/devel/optee/optee_os/lib/libutee/tee_api_operations.c:1739
    3e30:	7a4008c4 	ccmp	w6, #0x0, #0x4, eq
    3e34:	54000060 	b.eq	3e40 <TEE_AsymmetricVerifyDigest+0x78>
/home/pedro/devel/optee/optee_os/lib/libutee/tee_api_operations.c:1741
    3e38:	52800000 	mov	w0, #0x0                   	// #0
    3e3c:	9400010f 	bl	4278 <TEE_Panic>
/home/pedro/devel/optee/optee_os/lib/libutee/tee_api_operations.c:1742
    3e40:	f100033f 	cmp	x25, #0x0
    3e44:	7a400a84 	ccmp	w20, #0x0, #0x4, eq
    3e48:	54000060 	b.eq	3e54 <TEE_AsymmetricVerifyDigest+0x8c>
/home/pedro/devel/optee/optee_os/lib/libutee/tee_api_operations.c:1743
    3e4c:	52800000 	mov	w0, #0x0                   	// #0
    3e50:	9400010a 	bl	4278 <TEE_Panic>
/home/pedro/devel/optee/optee_os/lib/libutee/tee_api_operations.c:1744
    3e54:	f9401260 	ldr	x0, [x19,#32]
    3e58:	b5000040 	cbnz	x0, 3e60 <TEE_AsymmetricVerifyDigest+0x98>
/home/pedro/devel/optee/optee_os/lib/libutee/tee_api_operations.c:1745
    3e5c:	94000107 	bl	4278 <TEE_Panic>
/home/pedro/devel/optee/optee_os/lib/libutee/tee_api_operations.c:1746
    3e60:	b9400660 	ldr	w0, [x19,#4]
    3e64:	71001c1f 	cmp	w0, #0x7
    3e68:	54000060 	b.eq	3e74 <TEE_AsymmetricVerifyDigest+0xac>
/home/pedro/devel/optee/optee_os/lib/libutee/tee_api_operations.c:1748
    3e6c:	52800000 	mov	w0, #0x0                   	// #0
    3e70:	94000102 	bl	4278 <TEE_Panic>
/home/pedro/devel/optee/optee_os/lib/libutee/tee_api_operations.c:1749
    3e74:	b9400a60 	ldr	w0, [x19,#8]
    3e78:	71000c1f 	cmp	w0, #0x3
    3e7c:	54000060 	b.eq	3e88 <TEE_AsymmetricVerifyDigest+0xc0>
/home/pedro/devel/optee/optee_os/lib/libutee/tee_api_operations.c:1750
    3e80:	52800000 	mov	w0, #0x0                   	// #0
    3e84:	940000fd 	bl	4278 <TEE_Panic>
/home/pedro/devel/optee/optee_os/lib/libutee/tee_api_operations.c:1752
    3e88:	2a1403e2 	mov	w2, w20
    3e8c:	aa1903e1 	mov	x1, x25
    3e90:	aa1b03e0 	mov	x0, x27
    3e94:	97fff4c9 	bl	11b8 <__utee_from_attr>
/home/pedro/devel/optee/optee_os/lib/libutee/tee_api_operations.c:1753
    3e98:	b9405a60 	ldr	w0, [x19,#88]
    3e9c:	aa1b03e1 	mov	x1, x27
    3ea0:	2a1803e6 	mov	w6, w24
    3ea4:	aa1703e5 	mov	x5, x23
    3ea8:	2a1603e4 	mov	w4, w22
    3eac:	aa1503e3 	mov	x3, x21
    3eb0:	aa1a03e2 	mov	x2, x26
    3eb4:	9400021c 	bl	4724 <utee_asymm_verify>
/home/pedro/devel/optee/optee_os/lib/libutee/tee_api_operations.c:1756
    3eb8:	7100001f 	cmp	w0, #0x0
    3ebc:	1299f1a1 	mov	w1, #0xffff3072            	// #-53134
/home/pedro/devel/optee/optee_os/lib/libutee/tee_api_operations.c:1753
    3ec0:	2a0003f3 	mov	w19, w0
/home/pedro/devel/optee/optee_os/lib/libutee/tee_api_operations.c:1756
    3ec4:	7a411004 	ccmp	w0, w1, #0x4, ne
    3ec8:	54000040 	b.eq	3ed0 <TEE_AsymmetricVerifyDigest+0x108>
/home/pedro/devel/optee/optee_os/lib/libutee/tee_api_operations.c:1757
    3ecc:	940000eb 	bl	4278 <TEE_Panic>
/home/pedro/devel/optee/optee_os/lib/libutee/tee_api_operations.c:1760
    3ed0:	910003bf 	mov	sp, x29
    3ed4:	2a1303e0 	mov	w0, w19
    3ed8:	f9402bfb 	ldr	x27, [sp,#80]
    3edc:	a94153f3 	ldp	x19, x20, [sp,#16]
    3ee0:	a9425bf5 	ldp	x21, x22, [sp,#32]
    3ee4:	a94363f7 	ldp	x23, x24, [sp,#48]
    3ee8:	a9446bf9 	ldp	x25, x26, [sp,#64]
    3eec:	a8c67bfd 	ldp	x29, x30, [sp],#96
    3ef0:	d65f03c0 	ret

0000000000003ef4 <TEE_DeriveKey>:
TEE_DeriveKey():
/home/pedro/devel/optee/optee_os/lib/libutee/tee_api_operations.c:1767
    3ef4:	a9ba7bfd 	stp	x29, x30, [sp,#-96]!
    3ef8:	910003fd 	mov	x29, sp
    3efc:	a90363f7 	stp	x23, x24, [sp,#48]
    3f00:	2a0203f7 	mov	w23, w2
    3f04:	a90153f3 	stp	x19, x20, [sp,#16]
    3f08:	aa0003f3 	mov	x19, x0
/home/pedro/devel/optee/optee_os/lib/libutee/tee_api_operations.c:1770
    3f0c:	52800300 	mov	w0, #0x18                  	// #24
/home/pedro/devel/optee/optee_os/lib/libutee/tee_api_operations.c:1767
    3f10:	a9025bf5 	stp	x21, x22, [sp,#32]
/home/pedro/devel/optee/optee_os/lib/libutee/tee_api_operations.c:1772
    3f14:	f100027f 	cmp	x19, #0x0
/home/pedro/devel/optee/optee_os/lib/libutee/tee_api_operations.c:1767
    3f18:	aa0103f6 	mov	x22, x1
/home/pedro/devel/optee/optee_os/lib/libutee/tee_api_operations.c:1770
    3f1c:	9ba07ee0 	umull	x0, w23, w0
/home/pedro/devel/optee/optee_os/lib/libutee/tee_api_operations.c:1767
    3f20:	aa1703f4 	mov	x20, x23
    3f24:	aa0303f5 	mov	x21, x3
/home/pedro/devel/optee/optee_os/lib/libutee/tee_api_operations.c:1772
    3f28:	fa401864 	ccmp	x3, #0x0, #0x4, ne
/home/pedro/devel/optee/optee_os/lib/libutee/tee_api_operations.c:1770
    3f2c:	91005800 	add	x0, x0, #0x16
    3f30:	927c8400 	and	x0, x0, #0x3ffffffff0
    3f34:	cb2063ff 	sub	sp, sp, x0
    3f38:	910003f8 	mov	x24, sp
/home/pedro/devel/optee/optee_os/lib/libutee/tee_api_operations.c:1772
    3f3c:	54000061 	b.ne	3f48 <TEE_DeriveKey+0x54>
/home/pedro/devel/optee/optee_os/lib/libutee/tee_api_operations.c:1773
    3f40:	52800000 	mov	w0, #0x0                   	// #0
    3f44:	940000cd 	bl	4278 <TEE_Panic>
/home/pedro/devel/optee/optee_os/lib/libutee/tee_api_operations.c:1774
    3f48:	f10002df 	cmp	x22, #0x0
    3f4c:	7a400a84 	ccmp	w20, #0x0, #0x4, eq
    3f50:	54000060 	b.eq	3f5c <TEE_DeriveKey+0x68>
/home/pedro/devel/optee/optee_os/lib/libutee/tee_api_operations.c:1775
    3f54:	52800000 	mov	w0, #0x0                   	// #0
    3f58:	940000c8 	bl	4278 <TEE_Panic>
/home/pedro/devel/optee/optee_os/lib/libutee/tee_api_operations.c:1776
    3f5c:	b9400260 	ldr	w0, [x19]
    3f60:	531c7c00 	lsr	w0, w0, #28
    3f64:	7100201f 	cmp	w0, #0x8
    3f68:	54000060 	b.eq	3f74 <TEE_DeriveKey+0x80>
/home/pedro/devel/optee/optee_os/lib/libutee/tee_api_operations.c:1778
    3f6c:	52800000 	mov	w0, #0x0                   	// #0
    3f70:	940000c2 	bl	4278 <TEE_Panic>
/home/pedro/devel/optee/optee_os/lib/libutee/tee_api_operations.c:1780
    3f74:	b9400660 	ldr	w0, [x19,#4]
    3f78:	7100201f 	cmp	w0, #0x8
    3f7c:	54000060 	b.eq	3f88 <TEE_DeriveKey+0x94>
/home/pedro/devel/optee/optee_os/lib/libutee/tee_api_operations.c:1781
    3f80:	52800000 	mov	w0, #0x0                   	// #0
    3f84:	940000bd 	bl	4278 <TEE_Panic>
/home/pedro/devel/optee/optee_os/lib/libutee/tee_api_operations.c:1782
    3f88:	f9401260 	ldr	x0, [x19,#32]
    3f8c:	b5000040 	cbnz	x0, 3f94 <TEE_DeriveKey+0xa0>
/home/pedro/devel/optee/optee_os/lib/libutee/tee_api_operations.c:1783
    3f90:	940000ba 	bl	4278 <TEE_Panic>
/home/pedro/devel/optee/optee_os/lib/libutee/tee_api_operations.c:1784
    3f94:	b9400a60 	ldr	w0, [x19,#8]
    3f98:	7100181f 	cmp	w0, #0x6
    3f9c:	54000060 	b.eq	3fa8 <TEE_DeriveKey+0xb4>
/home/pedro/devel/optee/optee_os/lib/libutee/tee_api_operations.c:1785
    3fa0:	52800000 	mov	w0, #0x0                   	// #0
    3fa4:	940000b5 	bl	4278 <TEE_Panic>
/home/pedro/devel/optee/optee_os/lib/libutee/tee_api_operations.c:1786
    3fa8:	b9401e60 	ldr	w0, [x19,#28]
    3fac:	37900060 	tbnz	w0, #18, 3fb8 <TEE_DeriveKey+0xc4>
/home/pedro/devel/optee/optee_os/lib/libutee/tee_api_operations.c:1787
    3fb0:	52800000 	mov	w0, #0x0                   	// #0
    3fb4:	940000b1 	bl	4278 <TEE_Panic>
/home/pedro/devel/optee/optee_os/lib/libutee/tee_api_operations.c:1789
    3fb8:	910103a1 	add	x1, x29, #0x40
    3fbc:	aa1503e0 	mov	x0, x21
    3fc0:	940001a9 	bl	4664 <utee_cryp_obj_get_info>
/home/pedro/devel/optee/optee_os/lib/libutee/tee_api_operations.c:1790
    3fc4:	34000040 	cbz	w0, 3fcc <TEE_DeriveKey+0xd8>
/home/pedro/devel/optee/optee_os/lib/libutee/tee_api_operations.c:1791
    3fc8:	940000ac 	bl	4278 <TEE_Panic>
/home/pedro/devel/optee/optee_os/lib/libutee/tee_api_operations.c:1793
    3fcc:	b94043a1 	ldr	w1, [x29,#64]
    3fd0:	52b40000 	mov	w0, #0xa0000000            	// #-1610612736
    3fd4:	6b00003f 	cmp	w1, w0
    3fd8:	54000060 	b.eq	3fe4 <TEE_DeriveKey+0xf0>
/home/pedro/devel/optee/optee_os/lib/libutee/tee_api_operations.c:1794
    3fdc:	52800000 	mov	w0, #0x0                   	// #0
    3fe0:	940000a6 	bl	4278 <TEE_Panic>
/home/pedro/devel/optee/optee_os/lib/libutee/tee_api_operations.c:1795
    3fe4:	b9405ba0 	ldr	w0, [x29,#88]
    3fe8:	36880060 	tbz	w0, #17, 3ff4 <TEE_DeriveKey+0x100>
/home/pedro/devel/optee/optee_os/lib/libutee/tee_api_operations.c:1796
    3fec:	52800000 	mov	w0, #0x0                   	// #0
    3ff0:	940000a2 	bl	4278 <TEE_Panic>
/home/pedro/devel/optee/optee_os/lib/libutee/tee_api_operations.c:1798
    3ff4:	2a1403e2 	mov	w2, w20
    3ff8:	aa1603e1 	mov	x1, x22
    3ffc:	aa1803e0 	mov	x0, x24
    4000:	97fff46e 	bl	11b8 <__utee_from_attr>
/home/pedro/devel/optee/optee_os/lib/libutee/tee_api_operations.c:1799
    4004:	b9405a60 	ldr	w0, [x19,#88]
    4008:	aa1503e3 	mov	x3, x21
    400c:	aa1703e2 	mov	x2, x23
    4010:	aa1803e1 	mov	x1, x24
    4014:	940001ac 	bl	46c4 <utee_cryp_derive_key>
/home/pedro/devel/optee/optee_os/lib/libutee/tee_api_operations.c:1801
    4018:	34000040 	cbz	w0, 4020 <TEE_DeriveKey+0x12c>
/home/pedro/devel/optee/optee_os/lib/libutee/tee_api_operations.c:1802
    401c:	94000097 	bl	4278 <TEE_Panic>
/home/pedro/devel/optee/optee_os/lib/libutee/tee_api_operations.c:1803
    4020:	910003bf 	mov	sp, x29
    4024:	a94153f3 	ldp	x19, x20, [sp,#16]
    4028:	a9425bf5 	ldp	x21, x22, [sp,#32]
    402c:	a94363f7 	ldp	x23, x24, [sp,#48]
    4030:	a8c67bfd 	ldp	x29, x30, [sp],#96
    4034:	d65f03c0 	ret

0000000000004038 <TEE_GenerateRandom>:
TEE_GenerateRandom():
/home/pedro/devel/optee/optee_os/lib/libutee/tee_api_operations.c:1808
    4038:	a9bf7bfd 	stp	x29, x30, [sp,#-16]!
/home/pedro/devel/optee/optee_os/lib/libutee/tee_api_operations.c:1811
    403c:	2a0103e1 	mov	w1, w1
/home/pedro/devel/optee/optee_os/lib/libutee/tee_api_operations.c:1808
    4040:	910003fd 	mov	x29, sp
/home/pedro/devel/optee/optee_os/lib/libutee/tee_api_operations.c:1811
    4044:	940001a3 	bl	46d0 <utee_cryp_random_number_generate>
/home/pedro/devel/optee/optee_os/lib/libutee/tee_api_operations.c:1812
    4048:	34000060 	cbz	w0, 4054 <TEE_GenerateRandom+0x1c>
/home/pedro/devel/optee/optee_os/lib/libutee/tee_api_operations.c:1814
    404c:	a8c17bfd 	ldp	x29, x30, [sp],#16
/home/pedro/devel/optee/optee_os/lib/libutee/tee_api_operations.c:1813
    4050:	1400008a 	b	4278 <TEE_Panic>
/home/pedro/devel/optee/optee_os/lib/libutee/tee_api_operations.c:1814
    4054:	a8c17bfd 	ldp	x29, x30, [sp],#16
    4058:	d65f03c0 	ret

000000000000405c <tee_buffer_update>:
tee_buffer_update():
/home/pedro/devel/optee/optee_os/lib/libutee/tee_api_operations.c:868
    405c:	a9b87bfd 	stp	x29, x30, [sp,#-128]!
    4060:	910003fd 	mov	x29, sp
    4064:	a90153f3 	stp	x19, x20, [sp,#16]
    4068:	aa0003f3 	mov	x19, x0
    406c:	a9025bf5 	stp	x21, x22, [sp,#32]
    4070:	a9046bf9 	stp	x25, x26, [sp,#64]
    4074:	aa0303f9 	mov	x25, x3
    4078:	a90363f7 	stp	x23, x24, [sp,#48]
    407c:	a90573fb 	stp	x27, x28, [sp,#80]
    4080:	f90037a5 	str	x5, [x29,#104]
/home/pedro/devel/optee/optee_os/lib/libutee/tee_api_operations.c:873
    4084:	f94000b6 	ldr	x22, [x5]
/home/pedro/devel/optee/optee_os/lib/libutee/tee_api_operations.c:880
    4088:	b5000202 	cbnz	x2, 40c8 <tee_buffer_update+0x6c>
/home/pedro/devel/optee/optee_os/lib/libutee/tee_api_operations.c:881
    408c:	b5000183 	cbnz	x3, 40bc <tee_buffer_update+0x60>
/home/pedro/devel/optee/optee_os/lib/libutee/tee_api_operations.c:874
    4090:	d2800017 	mov	x23, #0x0                   	// #0
/home/pedro/devel/optee/optee_os/lib/libutee/tee_api_operations.c:956
    4094:	f94037a0 	ldr	x0, [x29,#104]
/home/pedro/devel/optee/optee_os/lib/libutee/tee_api_operations.c:958
    4098:	a94153f3 	ldp	x19, x20, [sp,#16]
    409c:	a9425bf5 	ldp	x21, x22, [sp,#32]
    40a0:	a9446bf9 	ldp	x25, x26, [sp,#64]
    40a4:	a94573fb 	ldp	x27, x28, [sp,#80]
/home/pedro/devel/optee/optee_os/lib/libutee/tee_api_operations.c:956
    40a8:	f9000017 	str	x23, [x0]
/home/pedro/devel/optee/optee_os/lib/libutee/tee_api_operations.c:958
    40ac:	a94363f7 	ldp	x23, x24, [sp,#48]
    40b0:	52800000 	mov	w0, #0x0                   	// #0
    40b4:	a8c87bfd 	ldp	x29, x30, [sp],#128
    40b8:	d65f03c0 	ret
/home/pedro/devel/optee/optee_os/lib/libutee/tee_api_operations.c:882
    40bc:	52800000 	mov	w0, #0x0                   	// #0
    40c0:	9400006e 	bl	4278 <TEE_Panic>
    40c4:	17fffff3 	b	4090 <tee_buffer_update+0x34>
/home/pedro/devel/optee/optee_os/lib/libutee/tee_api_operations.c:886
    40c8:	39410000 	ldrb	w0, [x0,#64]
    40cc:	aa0103f8 	mov	x24, x1
    40d0:	aa0203f5 	mov	x21, x2
    40d4:	aa0403fb 	mov	x27, x4
    40d8:	f940267a 	ldr	x26, [x19,#72]
    40dc:	34000860 	cbz	w0, 41e8 <tee_buffer_update+0x18c>
/home/pedro/devel/optee/optee_os/lib/libutee/tee_api_operations.c:887
    40e0:	d37ffb54 	lsl	x20, x26, #1
/home/pedro/devel/optee/optee_os/lib/libutee/tee_api_operations.c:888
    40e4:	d280003c 	mov	x28, #0x1                   	// #1
/home/pedro/devel/optee/optee_os/lib/libutee/tee_api_operations.c:894
    40e8:	f9402a60 	ldr	x0, [x19,#80]
    40ec:	b4000260 	cbz	x0, 4138 <tee_buffer_update+0xdc>
/home/pedro/devel/optee/optee_os/lib/libutee/tee_api_operations.c:896
    40f0:	eb1a001f 	cmp	x0, x26
    40f4:	54000802 	b.cs	41f4 <tee_buffer_update+0x198>
/home/pedro/devel/optee/optee_os/lib/libutee/tee_api_operations.c:897
    40f8:	cb00035a 	sub	x26, x26, x0
/home/pedro/devel/optee/optee_os/lib/libutee/tee_api_operations.c:900
    40fc:	f9401e63 	ldr	x3, [x19,#56]
/home/pedro/devel/optee/optee_os/lib/libutee/tee_api_operations.c:899
    4100:	eb19035f 	cmp	x26, x25
    4104:	9a99935a 	csel	x26, x26, x25, ls
/home/pedro/devel/optee/optee_os/lib/libutee/tee_api_operations.c:900
    4108:	aa1503e1 	mov	x1, x21
    410c:	aa1a03e2 	mov	x2, x26
    4110:	8b000060 	add	x0, x3, x0
    4114:	940009c4 	bl	6824 <memcpy>
/home/pedro/devel/optee/optee_os/lib/libutee/tee_api_operations.c:901
    4118:	a9448262 	ldp	x2, x0, [x19,#72]
    411c:	8b000340 	add	x0, x26, x0
    4120:	f9002a60 	str	x0, [x19,#80]
/home/pedro/devel/optee/optee_os/lib/libutee/tee_api_operations.c:904
    4124:	9ac20801 	udiv	x1, x0, x2
    4128:	9b028020 	msub	x0, x1, x2, x0
    412c:	b5fffb20 	cbnz	x0, 4090 <tee_buffer_update+0x34>
/home/pedro/devel/optee/optee_os/lib/libutee/tee_api_operations.c:902
    4130:	8b1a02b5 	add	x21, x21, x26
/home/pedro/devel/optee/optee_os/lib/libutee/tee_api_operations.c:903
    4134:	cb1a0339 	sub	x25, x25, x26
/home/pedro/devel/optee/optee_os/lib/libutee/tee_api_operations.c:909
    4138:	f9402a77 	ldr	x23, [x19,#80]
    413c:	8b1c029c 	add	x28, x20, x28
    4140:	b4000617 	cbz	x23, 4200 <tee_buffer_update+0x1a4>
/home/pedro/devel/optee/optee_os/lib/libutee/tee_api_operations.c:910 (discriminator 1)
    4144:	8b170320 	add	x0, x25, x23
/home/pedro/devel/optee/optee_os/lib/libutee/tee_api_operations.c:909 (discriminator 1)
    4148:	eb1c001f 	cmp	x0, x28
    414c:	54000583 	b.cc	41fc <tee_buffer_update+0x1a0>
/home/pedro/devel/optee/optee_os/lib/libutee/tee_api_operations.c:911
    4150:	f9402661 	ldr	x1, [x19,#72]
    4154:	cb14001a 	sub	x26, x0, x20
/home/pedro/devel/optee/optee_os/lib/libutee/tee_api_operations.c:914
    4158:	910203a4 	add	x4, x29, #0x80
/home/pedro/devel/optee/optee_os/lib/libutee/tee_api_operations.c:915
    415c:	aa1b03e3 	mov	x3, x27
/home/pedro/devel/optee/optee_os/lib/libutee/tee_api_operations.c:911
    4160:	d1000420 	sub	x0, x1, #0x1
    4164:	cb0103e1 	neg	x1, x1
    4168:	8b00035a 	add	x26, x26, x0
/home/pedro/devel/optee/optee_os/lib/libutee/tee_api_operations.c:915
    416c:	b9405a60 	ldr	w0, [x19,#88]
/home/pedro/devel/optee/optee_os/lib/libutee/tee_api_operations.c:911
    4170:	8a01035a 	and	x26, x26, x1
/home/pedro/devel/optee/optee_os/lib/libutee/tee_api_operations.c:915
    4174:	f9401e61 	ldr	x1, [x19,#56]
/home/pedro/devel/optee/optee_os/lib/libutee/tee_api_operations.c:913
    4178:	eb17035f 	cmp	x26, x23
/home/pedro/devel/optee/optee_os/lib/libutee/tee_api_operations.c:914
    417c:	f81f8c96 	str	x22, [x4,#-8]!
/home/pedro/devel/optee/optee_os/lib/libutee/tee_api_operations.c:913
    4180:	9a97935a 	csel	x26, x26, x23, ls
/home/pedro/devel/optee/optee_os/lib/libutee/tee_api_operations.c:915
    4184:	aa1a03e2 	mov	x2, x26
    4188:	d63f0300 	blr	x24
/home/pedro/devel/optee/optee_os/lib/libutee/tee_api_operations.c:916
    418c:	34000040 	cbz	w0, 4194 <tee_buffer_update+0x138>
/home/pedro/devel/optee/optee_os/lib/libutee/tee_api_operations.c:917
    4190:	9400003a 	bl	4278 <TEE_Panic>
/home/pedro/devel/optee/optee_os/lib/libutee/tee_api_operations.c:921
    4194:	f9402a60 	ldr	x0, [x19,#80]
/home/pedro/devel/optee/optee_os/lib/libutee/tee_api_operations.c:918
    4198:	f9403fb7 	ldr	x23, [x29,#120]
/home/pedro/devel/optee/optee_os/lib/libutee/tee_api_operations.c:921
    419c:	cb1a0000 	sub	x0, x0, x26
    41a0:	f9002a60 	str	x0, [x19,#80]
/home/pedro/devel/optee/optee_os/lib/libutee/tee_api_operations.c:918
    41a4:	8b17037b 	add	x27, x27, x23
/home/pedro/devel/optee/optee_os/lib/libutee/tee_api_operations.c:919
    41a8:	cb1702d6 	sub	x22, x22, x23
/home/pedro/devel/optee/optee_os/lib/libutee/tee_api_operations.c:922
    41ac:	b40002a0 	cbz	x0, 4200 <tee_buffer_update+0x1a4>
/home/pedro/devel/optee/optee_os/lib/libutee/tee_api_operations.c:926
    41b0:	f9401e60 	ldr	x0, [x19,#56]
    41b4:	cb1a0282 	sub	x2, x20, x26
    41b8:	8b1a0001 	add	x1, x0, x26
    41bc:	9400099a 	bl	6824 <memcpy>
/home/pedro/devel/optee/optee_os/lib/libutee/tee_api_operations.c:952
    41c0:	f9401e63 	ldr	x3, [x19,#56]
    41c4:	aa1903e2 	mov	x2, x25
    41c8:	f9402a60 	ldr	x0, [x19,#80]
    41cc:	aa1503e1 	mov	x1, x21
    41d0:	8b000060 	add	x0, x3, x0
    41d4:	94000994 	bl	6824 <memcpy>
/home/pedro/devel/optee/optee_os/lib/libutee/tee_api_operations.c:953
    41d8:	f9402a60 	ldr	x0, [x19,#80]
    41dc:	8b190019 	add	x25, x0, x25
    41e0:	f9002a79 	str	x25, [x19,#80]
    41e4:	17ffffac 	b	4094 <tee_buffer_update+0x38>
/home/pedro/devel/optee/optee_os/lib/libutee/tee_api_operations.c:890
    41e8:	aa1a03f4 	mov	x20, x26
/home/pedro/devel/optee/optee_os/lib/libutee/tee_api_operations.c:891
    41ec:	d280001c 	mov	x28, #0x0                   	// #0
    41f0:	17ffffbe 	b	40e8 <tee_buffer_update+0x8c>
/home/pedro/devel/optee/optee_os/lib/libutee/tee_api_operations.c:899
    41f4:	cb00029a 	sub	x26, x20, x0
    41f8:	17ffffc1 	b	40fc <tee_buffer_update+0xa0>
/home/pedro/devel/optee/optee_os/lib/libutee/tee_api_operations.c:874
    41fc:	d2800017 	mov	x23, #0x0                   	// #0
/home/pedro/devel/optee/optee_os/lib/libutee/tee_api_operations.c:933
    4200:	eb1c033f 	cmp	x25, x28
    4204:	54fffde3 	b.cc	41c0 <tee_buffer_update+0x164>
/home/pedro/devel/optee/optee_os/lib/libutee/tee_api_operations.c:935
    4208:	52806200 	mov	w0, #0x310                 	// #784
    420c:	b9400261 	ldr	w1, [x19]
    4210:	72a20000 	movk	w0, #0x1000, lsl #16
    4214:	6b00003f 	cmp	w1, w0
    4218:	f9402660 	ldr	x0, [x19,#72]
    421c:	54000281 	b.ne	426c <tee_buffer_update+0x210>
/home/pedro/devel/optee/optee_os/lib/libutee/tee_api_operations.c:936
    4220:	cb140334 	sub	x20, x25, x20
    4224:	d1000401 	sub	x1, x0, #0x1
    4228:	8b010294 	add	x20, x20, x1
/home/pedro/devel/optee/optee_os/lib/libutee/tee_api_operations.c:938
    422c:	cb0003e0 	neg	x0, x0
/home/pedro/devel/optee/optee_os/lib/libutee/tee_api_operations.c:940
    4230:	910203a4 	add	x4, x29, #0x80
/home/pedro/devel/optee/optee_os/lib/libutee/tee_api_operations.c:938
    4234:	8a000294 	and	x20, x20, x0
/home/pedro/devel/optee/optee_os/lib/libutee/tee_api_operations.c:941
    4238:	b9405a60 	ldr	w0, [x19,#88]
    423c:	aa1b03e3 	mov	x3, x27
    4240:	aa1403e2 	mov	x2, x20
/home/pedro/devel/optee/optee_os/lib/libutee/tee_api_operations.c:940
    4244:	f81f8c96 	str	x22, [x4,#-8]!
/home/pedro/devel/optee/optee_os/lib/libutee/tee_api_operations.c:941
    4248:	aa1503e1 	mov	x1, x21
    424c:	d63f0300 	blr	x24
/home/pedro/devel/optee/optee_os/lib/libutee/tee_api_operations.c:942
    4250:	34000040 	cbz	w0, 4258 <tee_buffer_update+0x1fc>
/home/pedro/devel/optee/optee_os/lib/libutee/tee_api_operations.c:943
    4254:	94000009 	bl	4278 <TEE_Panic>
/home/pedro/devel/optee/optee_os/lib/libutee/tee_api_operations.c:948
    4258:	f9403fa0 	ldr	x0, [x29,#120]
/home/pedro/devel/optee/optee_os/lib/libutee/tee_api_operations.c:944
    425c:	8b1402b5 	add	x21, x21, x20
/home/pedro/devel/optee/optee_os/lib/libutee/tee_api_operations.c:945
    4260:	cb140339 	sub	x25, x25, x20
/home/pedro/devel/optee/optee_os/lib/libutee/tee_api_operations.c:948
    4264:	8b0002f7 	add	x23, x23, x0
    4268:	17ffffd6 	b	41c0 <tee_buffer_update+0x164>
/home/pedro/devel/optee/optee_os/lib/libutee/tee_api_operations.c:938
    426c:	cb140014 	sub	x20, x0, x20
    4270:	8b190294 	add	x20, x20, x25
    4274:	17ffffee 	b	422c <tee_buffer_update+0x1d0>

0000000000004278 <TEE_Panic>:
TEE_Panic():
/home/pedro/devel/optee/optee_os/lib/libutee/tee_api_panic.c:35
    4278:	2a0003e0 	mov	w0, w0
    427c:	140000af 	b	4538 <utee_panic>

0000000000004280 <ta_header_get_session>:
ta_header_get_session():
/home/pedro/devel/optee/optee_os/lib/libutee/arch/arm/user_ta_entry.c:101
    4280:	2a0003e1 	mov	w1, w0
/home/pedro/devel/optee/optee_os/lib/libutee/arch/arm/user_ta_entry.c:104
    4284:	d0000040 	adrp	x0, e000 <modulus_dbstore>
    4288:	f9417c00 	ldr	x0, [x0,#760]
/home/pedro/devel/optee/optee_os/lib/libutee/arch/arm/user_ta_entry.c:104 (discriminator 1)
    428c:	b5000040 	cbnz	x0, 4294 <ta_header_get_session+0x14>
/home/pedro/devel/optee/optee_os/lib/libutee/arch/arm/user_ta_entry.c:109
    4290:	d65f03c0 	ret
/home/pedro/devel/optee/optee_os/lib/libutee/arch/arm/user_ta_entry.c:105
    4294:	b9400002 	ldr	w2, [x0]
    4298:	6b01005f 	cmp	w2, w1
    429c:	54ffffa0 	b.eq	4290 <ta_header_get_session+0x10>
/home/pedro/devel/optee/optee_os/lib/libutee/arch/arm/user_ta_entry.c:104 (discriminator 2)
    42a0:	f9400800 	ldr	x0, [x0,#16]
    42a4:	17fffffa 	b	428c <ta_header_get_session+0xc>

00000000000042a8 <ta_header_remove_session>:
ta_header_remove_session():
/home/pedro/devel/optee/optee_os/lib/libutee/arch/arm/user_ta_entry.c:138
    42a8:	a9be7bfd 	stp	x29, x30, [sp,#-32]!
    42ac:	2a0003e2 	mov	w2, w0
    42b0:	910003fd 	mov	x29, sp
    42b4:	f9000bf3 	str	x19, [sp,#16]
/home/pedro/devel/optee/optee_os/lib/libutee/arch/arm/user_ta_entry.c:141
    42b8:	d0000053 	adrp	x19, e000 <modulus_dbstore>
    42bc:	f9417e60 	ldr	x0, [x19,#760]
/home/pedro/devel/optee/optee_os/lib/libutee/arch/arm/user_ta_entry.c:141 (discriminator 1)
    42c0:	b5000080 	cbnz	x0, 42d0 <ta_header_remove_session+0x28>
/home/pedro/devel/optee/optee_os/lib/libutee/arch/arm/user_ta_entry.c:153
    42c4:	f9400bf3 	ldr	x19, [sp,#16]
    42c8:	a8c27bfd 	ldp	x29, x30, [sp],#32
    42cc:	d65f03c0 	ret
/home/pedro/devel/optee/optee_os/lib/libutee/arch/arm/user_ta_entry.c:142
    42d0:	b9400001 	ldr	w1, [x0]
    42d4:	6b02003f 	cmp	w1, w2
    42d8:	f9400801 	ldr	x1, [x0,#16]
    42dc:	54000261 	b.ne	4328 <ta_header_remove_session+0x80>
    42e0:	f9400c02 	ldr	x2, [x0,#24]
/home/pedro/devel/optee/optee_os/lib/libutee/arch/arm/user_ta_entry.c:143
    42e4:	b40001c1 	cbz	x1, 431c <ta_header_remove_session+0x74>
/home/pedro/devel/optee/optee_os/lib/libutee/arch/arm/user_ta_entry.c:143 (discriminator 1)
    42e8:	f9000c22 	str	x2, [x1,#24]
/home/pedro/devel/optee/optee_os/lib/libutee/arch/arm/user_ta_entry.c:143 (discriminator 4)
    42ec:	f9400c02 	ldr	x2, [x0,#24]
    42f0:	f9000041 	str	x1, [x2]
/home/pedro/devel/optee/optee_os/lib/libutee/arch/arm/user_ta_entry.c:144 (discriminator 4)
    42f4:	97fff3aa 	bl	119c <TEE_Free>
/home/pedro/devel/optee/optee_os/lib/libutee/arch/arm/user_ta_entry.c:146 (discriminator 4)
    42f8:	f9417e60 	ldr	x0, [x19,#760]
    42fc:	b5fffe40 	cbnz	x0, 42c4 <ta_header_remove_session+0x1c>
/home/pedro/devel/optee/optee_os/lib/libutee/arch/arm/user_ta_entry.c:147
    4300:	b0000040 	adrp	x0, d000 <__func__.3637+0xb58>
    4304:	f9416400 	ldr	x0, [x0,#712]
    4308:	b9401400 	ldr	w0, [x0,#20]
/home/pedro/devel/optee/optee_os/lib/libutee/arch/arm/user_ta_entry.c:146
    430c:	3727fdc0 	tbnz	w0, #4, 42c4 <ta_header_remove_session+0x1c>
/home/pedro/devel/optee/optee_os/lib/libutee/arch/arm/user_ta_entry.c:153
    4310:	f9400bf3 	ldr	x19, [sp,#16]
    4314:	a8c27bfd 	ldp	x29, x30, [sp],#32
uninit_instance():
/home/pedro/devel/optee/optee_os/lib/libutee/arch/arm/user_ta_entry.c:86
    4318:	17fff24b 	b	c44 <TA_DestroyEntryPoint>
ta_header_remove_session():
/home/pedro/devel/optee/optee_os/lib/libutee/arch/arm/user_ta_entry.c:143 (discriminator 2)
    431c:	910be263 	add	x3, x19, #0x2f8
    4320:	f9000462 	str	x2, [x3,#8]
    4324:	17fffff2 	b	42ec <ta_header_remove_session+0x44>
/home/pedro/devel/optee/optee_os/lib/libutee/arch/arm/user_ta_entry.c:141 (discriminator 2)
    4328:	aa0103e0 	mov	x0, x1
    432c:	17ffffe5 	b	42c0 <ta_header_remove_session+0x18>

0000000000004330 <__utee_entry>:
__utee_entry():
/home/pedro/devel/optee/optee_os/lib/libutee/arch/arm/user_ta_entry.c:220
    4330:	a9b77bfd 	stp	x29, x30, [sp,#-144]!
/home/pedro/devel/optee/optee_os/lib/libutee/arch/arm/user_ta_entry.c:231
    4334:	f100041f 	cmp	x0, #0x1
/home/pedro/devel/optee/optee_os/lib/libutee/arch/arm/user_ta_entry.c:220
    4338:	910003fd 	mov	x29, sp
    433c:	a90153f3 	stp	x19, x20, [sp,#16]
    4340:	aa0103f4 	mov	x20, x1
    4344:	a9025bf5 	stp	x21, x22, [sp,#32]
    4348:	f9001bf7 	str	x23, [sp,#48]
/home/pedro/devel/optee/optee_os/lib/libutee/arch/arm/user_ta_entry.c:231
    434c:	54000a60 	b.eq	4498 <__utee_entry+0x168>
    4350:	aa0203f6 	mov	x22, x2
    4354:	b40000e0 	cbz	x0, 4370 <__utee_entry+0x40>
    4358:	f100081f 	cmp	x0, #0x2
    435c:	54000b20 	b.eq	44c0 <__utee_entry+0x190>
/home/pedro/devel/optee/optee_os/lib/libutee/arch/arm/user_ta_entry.c:243
    4360:	52800000 	mov	w0, #0x0                   	// #0
/home/pedro/devel/optee/optee_os/lib/libutee/arch/arm/user_ta_entry.c:242
    4364:	12800013 	mov	w19, #0xffffffff            	// #-1
/home/pedro/devel/optee/optee_os/lib/libutee/arch/arm/user_ta_entry.c:243
    4368:	97ffffc4 	bl	4278 <TEE_Panic>
/home/pedro/devel/optee/optee_os/lib/libutee/arch/arm/user_ta_entry.c:244
    436c:	1400000c 	b	439c <__utee_entry+0x6c>
ta_header_add_session():
/home/pedro/devel/optee/optee_os/lib/libutee/arch/arm/user_ta_entry.c:113
    4370:	2a0103e0 	mov	w0, w1
    4374:	97ffffc3 	bl	4280 <ta_header_get_session>
/home/pedro/devel/optee/optee_os/lib/libutee/arch/arm/user_ta_entry.c:116
    4378:	b5000520 	cbnz	x0, 441c <__utee_entry+0xec>
/home/pedro/devel/optee/optee_os/lib/libutee/arch/arm/user_ta_entry.c:119
    437c:	900000a0 	adrp	x0, 18000 <buf.3609+0xb0>
    4380:	397d4801 	ldrb	w1, [x0,#3922]
    4384:	340001e1 	cbz	w1, 43c0 <__utee_entry+0x90>
/home/pedro/devel/optee/optee_os/lib/libutee/arch/arm/user_ta_entry.c:126
    4388:	52b00001 	mov	w1, #0x80000000            	// #-2147483648
    438c:	52800400 	mov	w0, #0x20                  	// #32
/home/pedro/devel/optee/optee_os/lib/libutee/arch/arm/user_ta_entry.c:129
    4390:	129ffe73 	mov	w19, #0xffff000c            	// #-65524
/home/pedro/devel/optee/optee_os/lib/libutee/arch/arm/user_ta_entry.c:126
    4394:	97fff37e 	bl	118c <TEE_Malloc>
/home/pedro/devel/optee/optee_os/lib/libutee/arch/arm/user_ta_entry.c:128
    4398:	b5000300 	cbnz	x0, 43f8 <__utee_entry+0xc8>
ta_header_save_params():
/home/pedro/devel/optee/optee_os/lib/libutee/arch/arm/user_ta_entry.c:92
    439c:	b0000040 	adrp	x0, d000 <__func__.3637+0xb58>
/home/pedro/devel/optee/optee_os/lib/libutee/arch/arm/user_ta_entry.c:97
    43a0:	d2800802 	mov	x2, #0x40                  	// #64
/home/pedro/devel/optee/optee_os/lib/libutee/arch/arm/user_ta_entry.c:92
    43a4:	f9415401 	ldr	x1, [x0,#680]
/home/pedro/devel/optee/optee_os/lib/libutee/arch/arm/user_ta_entry.c:97
    43a8:	f9416000 	ldr	x0, [x0,#704]
/home/pedro/devel/optee/optee_os/lib/libutee/arch/arm/user_ta_entry.c:92
    43ac:	b900003f 	str	wzr, [x1]
/home/pedro/devel/optee/optee_os/lib/libutee/arch/arm/user_ta_entry.c:97
    43b0:	52800001 	mov	w1, #0x0                   	// #0
    43b4:	94000937 	bl	6890 <memset>
__utee_entry():
/home/pedro/devel/optee/optee_os/lib/libutee/arch/arm/user_ta_entry.c:247
    43b8:	2a1303e0 	mov	w0, w19
    43bc:	94000062 	bl	4544 <utee_return>
ta_header_add_session():
/home/pedro/devel/optee/optee_os/lib/libutee/arch/arm/user_ta_entry.c:120
    43c0:	52800021 	mov	w1, #0x1                   	// #1
    43c4:	393d4801 	strb	w1, [x0,#3922]
init_instance():
/home/pedro/devel/optee/optee_os/lib/libutee/arch/arm/user_ta_entry.c:76
    43c8:	97fff256 	bl	d20 <tahead_get_trace_level>
    43cc:	94000c6b 	bl	7578 <trace_set_level>
/home/pedro/devel/optee/optee_os/lib/libutee/arch/arm/user_ta_entry.c:78
    43d0:	b0000040 	adrp	x0, d000 <__func__.3637+0xb58>
    43d4:	f9413801 	ldr	x1, [x0,#624]
    43d8:	f9415000 	ldr	x0, [x0,#672]
    43dc:	f9400021 	ldr	x1, [x1]
    43e0:	94000818 	bl	6440 <malloc_add_pool>
/home/pedro/devel/optee/optee_os/lib/libutee/arch/arm/user_ta_entry.c:79
    43e4:	940002b6 	bl	4ebc <_TEE_MathAPI_Init>
/home/pedro/devel/optee/optee_os/lib/libutee/arch/arm/user_ta_entry.c:80
    43e8:	97fff209 	bl	c0c <TA_CreateEntryPoint>
    43ec:	2a0003f3 	mov	w19, w0
ta_header_add_session():
/home/pedro/devel/optee/optee_os/lib/libutee/arch/arm/user_ta_entry.c:122
    43f0:	34fffcc0 	cbz	w0, 4388 <__utee_entry+0x58>
    43f4:	17ffffea 	b	439c <__utee_entry+0x6c>
/home/pedro/devel/optee/optee_os/lib/libutee/arch/arm/user_ta_entry.c:132
    43f8:	d0000041 	adrp	x1, e000 <modulus_dbstore>
    43fc:	910be021 	add	x1, x1, #0x2f8
    4400:	f9400422 	ldr	x2, [x1,#8]
    4404:	f9000c02 	str	x2, [x0,#24]
/home/pedro/devel/optee/optee_os/lib/libutee/arch/arm/user_ta_entry.c:130
    4408:	b9000014 	str	w20, [x0]
/home/pedro/devel/optee/optee_os/lib/libutee/arch/arm/user_ta_entry.c:132
    440c:	a900fc1f 	stp	xzr, xzr, [x0,#8]
    4410:	f9000040 	str	x0, [x2]
    4414:	91004000 	add	x0, x0, #0x10
    4418:	f9000420 	str	x0, [x1,#8]
entry_open_session():
/home/pedro/devel/optee/optee_os/lib/libutee/arch/arm/user_ta_entry.c:167
    441c:	2a1403e0 	mov	w0, w20
/home/pedro/devel/optee/optee_os/lib/libutee/arch/arm/user_ta_entry.c:169
    4420:	129fff13 	mov	w19, #0xffff0007            	// #-65529
/home/pedro/devel/optee/optee_os/lib/libutee/arch/arm/user_ta_entry.c:167
    4424:	97ffff97 	bl	4280 <ta_header_get_session>
    4428:	aa0003f7 	mov	x23, x0
/home/pedro/devel/optee/optee_os/lib/libutee/arch/arm/user_ta_entry.c:168
    442c:	b4fffb80 	cbz	x0, 439c <__utee_entry+0x6c>
/home/pedro/devel/optee/optee_os/lib/libutee/arch/arm/user_ta_entry.c:171
    4430:	910143b5 	add	x21, x29, #0x50
    4434:	aa1603e2 	mov	x2, x22
    4438:	910133a1 	add	x1, x29, #0x4c
    443c:	aa1503e0 	mov	x0, x21
    4440:	97fff258 	bl	da0 <__utee_to_param>
/home/pedro/devel/optee/optee_os/lib/libutee/arch/arm/user_ta_entry.c:172
    4444:	b9404fb3 	ldr	w19, [x29,#76]
ta_header_save_params():
/home/pedro/devel/optee/optee_os/lib/libutee/arch/arm/user_ta_entry.c:92
    4448:	b0000040 	adrp	x0, d000 <__func__.3637+0xb58>
/home/pedro/devel/optee/optee_os/lib/libutee/arch/arm/user_ta_entry.c:95
    444c:	d2800802 	mov	x2, #0x40                  	// #64
/home/pedro/devel/optee/optee_os/lib/libutee/arch/arm/user_ta_entry.c:92
    4450:	f9415401 	ldr	x1, [x0,#680]
/home/pedro/devel/optee/optee_os/lib/libutee/arch/arm/user_ta_entry.c:95
    4454:	f9416000 	ldr	x0, [x0,#704]
/home/pedro/devel/optee/optee_os/lib/libutee/arch/arm/user_ta_entry.c:92
    4458:	b9000033 	str	w19, [x1]
/home/pedro/devel/optee/optee_os/lib/libutee/arch/arm/user_ta_entry.c:95
    445c:	aa1503e1 	mov	x1, x21
    4460:	940008f1 	bl	6824 <memcpy>
entry_open_session():
/home/pedro/devel/optee/optee_os/lib/libutee/arch/arm/user_ta_entry.c:174
    4464:	910022e2 	add	x2, x23, #0x8
    4468:	aa1503e1 	mov	x1, x21
    446c:	2a1303e0 	mov	w0, w19
    4470:	97fff1fe 	bl	c68 <TA_OpenSessionEntryPoint>
/home/pedro/devel/optee/optee_os/lib/libutee/arch/arm/user_ta_entry.c:177
    4474:	b9404fa1 	ldr	w1, [x29,#76]
/home/pedro/devel/optee/optee_os/lib/libutee/arch/arm/user_ta_entry.c:174
    4478:	2a0003f3 	mov	w19, w0
/home/pedro/devel/optee/optee_os/lib/libutee/arch/arm/user_ta_entry.c:177
    447c:	aa1503e2 	mov	x2, x21
    4480:	aa1603e0 	mov	x0, x22
    4484:	97fff229 	bl	d28 <__utee_from_param>
/home/pedro/devel/optee/optee_os/lib/libutee/arch/arm/user_ta_entry.c:179
    4488:	34fff8b3 	cbz	w19, 439c <__utee_entry+0x6c>
/home/pedro/devel/optee/optee_os/lib/libutee/arch/arm/user_ta_entry.c:180
    448c:	2a1403e0 	mov	w0, w20
    4490:	97ffff86 	bl	42a8 <ta_header_remove_session>
    4494:	17ffffc2 	b	439c <__utee_entry+0x6c>
entry_close_session():
/home/pedro/devel/optee/optee_os/lib/libutee/arch/arm/user_ta_entry.c:186
    4498:	2a0103e0 	mov	w0, w1
/home/pedro/devel/optee/optee_os/lib/libutee/arch/arm/user_ta_entry.c:189
    449c:	129fff13 	mov	w19, #0xffff0007            	// #-65529
/home/pedro/devel/optee/optee_os/lib/libutee/arch/arm/user_ta_entry.c:186
    44a0:	97ffff78 	bl	4280 <ta_header_get_session>
/home/pedro/devel/optee/optee_os/lib/libutee/arch/arm/user_ta_entry.c:188
    44a4:	b4fff7c0 	cbz	x0, 439c <__utee_entry+0x6c>
/home/pedro/devel/optee/optee_os/lib/libutee/arch/arm/user_ta_entry.c:191
    44a8:	f9400400 	ldr	x0, [x0,#8]
/home/pedro/devel/optee/optee_os/lib/libutee/arch/arm/user_ta_entry.c:194
    44ac:	52800013 	mov	w19, #0x0                   	// #0
/home/pedro/devel/optee/optee_os/lib/libutee/arch/arm/user_ta_entry.c:191
    44b0:	97fff209 	bl	cd4 <TA_CloseSessionEntryPoint>
/home/pedro/devel/optee/optee_os/lib/libutee/arch/arm/user_ta_entry.c:193
    44b4:	2a1403e0 	mov	w0, w20
    44b8:	97ffff7c 	bl	42a8 <ta_header_remove_session>
    44bc:	17ffffb8 	b	439c <__utee_entry+0x6c>
entry_invoke_command():
/home/pedro/devel/optee/optee_os/lib/libutee/arch/arm/user_ta_entry.c:203
    44c0:	2a0103e0 	mov	w0, w1
/home/pedro/devel/optee/optee_os/lib/libutee/arch/arm/user_ta_entry.c:206
    44c4:	129fff13 	mov	w19, #0xffff0007            	// #-65529
/home/pedro/devel/optee/optee_os/lib/libutee/arch/arm/user_ta_entry.c:203
    44c8:	97ffff6e 	bl	4280 <ta_header_get_session>
    44cc:	aa0003f5 	mov	x21, x0
/home/pedro/devel/optee/optee_os/lib/libutee/arch/arm/user_ta_entry.c:205
    44d0:	b4fff660 	cbz	x0, 439c <__utee_entry+0x6c>
/home/pedro/devel/optee/optee_os/lib/libutee/arch/arm/user_ta_entry.c:208
    44d4:	910143b4 	add	x20, x29, #0x50
    44d8:	aa0303f7 	mov	x23, x3
    44dc:	aa1603e2 	mov	x2, x22
    44e0:	910133a1 	add	x1, x29, #0x4c
    44e4:	aa1403e0 	mov	x0, x20
    44e8:	97fff22e 	bl	da0 <__utee_to_param>
ta_header_save_params():
/home/pedro/devel/optee/optee_os/lib/libutee/arch/arm/user_ta_entry.c:92
    44ec:	b0000040 	adrp	x0, d000 <__func__.3637+0xb58>
entry_invoke_command():
/home/pedro/devel/optee/optee_os/lib/libutee/arch/arm/user_ta_entry.c:209
    44f0:	b9404fb3 	ldr	w19, [x29,#76]
ta_header_save_params():
/home/pedro/devel/optee/optee_os/lib/libutee/arch/arm/user_ta_entry.c:95
    44f4:	d2800802 	mov	x2, #0x40                  	// #64
/home/pedro/devel/optee/optee_os/lib/libutee/arch/arm/user_ta_entry.c:92
    44f8:	f9415401 	ldr	x1, [x0,#680]
/home/pedro/devel/optee/optee_os/lib/libutee/arch/arm/user_ta_entry.c:95
    44fc:	f9416000 	ldr	x0, [x0,#704]
/home/pedro/devel/optee/optee_os/lib/libutee/arch/arm/user_ta_entry.c:92
    4500:	b9000033 	str	w19, [x1]
/home/pedro/devel/optee/optee_os/lib/libutee/arch/arm/user_ta_entry.c:95
    4504:	aa1403e1 	mov	x1, x20
    4508:	940008c7 	bl	6824 <memcpy>
entry_invoke_command():
/home/pedro/devel/optee/optee_os/lib/libutee/arch/arm/user_ta_entry.c:211
    450c:	f94006a0 	ldr	x0, [x21,#8]
    4510:	2a1303e2 	mov	w2, w19
    4514:	2a1703e1 	mov	w1, w23
    4518:	aa1403e3 	mov	x3, x20
    451c:	97fff1f7 	bl	cf8 <TA_InvokeCommandEntryPoint>
    4520:	2a0003f3 	mov	w19, w0
/home/pedro/devel/optee/optee_os/lib/libutee/arch/arm/user_ta_entry.c:214
    4524:	b9404fa1 	ldr	w1, [x29,#76]
    4528:	aa1403e2 	mov	x2, x20
    452c:	aa1603e0 	mov	x0, x22
    4530:	97fff1fe 	bl	d28 <__utee_from_param>
    4534:	17ffff9a 	b	439c <__utee_entry+0x6c>

0000000000004538 <utee_panic>:
utee_panic():
/home/pedro/devel/optee/optee_os/lib/libutee/arch/arm/utee_syscalls_a64.S:24
    4538:	a9bf7bfd 	stp	x29, x30, [sp,#-16]!
/home/pedro/devel/optee/optee_os/lib/libutee/arch/arm/utee_syscalls_a64.S:25
    453c:	910003e1 	mov	x1, sp
/home/pedro/devel/optee/optee_os/lib/libutee/arch/arm/utee_syscalls_a64.S:26
    4540:	94000007 	bl	455c <__utee_panic>

0000000000004544 <utee_return>:
utee_return():
/home/pedro/devel/optee/optee_os/lib/libutee/arch/arm/utee_syscalls_asm.S:31
    4544:	d2800008 	mov	x8, #0x0                   	// #0
    4548:	d4000001 	svc	#0x0
    454c:	d65f03c0 	ret

0000000000004550 <utee_log>:
utee_log():
/home/pedro/devel/optee/optee_os/lib/libutee/arch/arm/utee_syscalls_asm.S:33
    4550:	d2800028 	mov	x8, #0x1                   	// #1
    4554:	d4000001 	svc	#0x0
    4558:	d65f03c0 	ret

000000000000455c <__utee_panic>:
__utee_panic():
/home/pedro/devel/optee/optee_os/lib/libutee/arch/arm/utee_syscalls_asm.S:35
    455c:	d2800048 	mov	x8, #0x2                   	// #2
    4560:	d4000001 	svc	#0x0
    4564:	d65f03c0 	ret

0000000000004568 <utee_get_property>:
utee_get_property():
/home/pedro/devel/optee/optee_os/lib/libutee/arch/arm/utee_syscalls_asm.S:37
    4568:	d2800068 	mov	x8, #0x3                   	// #3
    456c:	d4000001 	svc	#0x0
    4570:	d65f03c0 	ret

0000000000004574 <utee_get_property_name_to_index>:
utee_get_property_name_to_index():
/home/pedro/devel/optee/optee_os/lib/libutee/arch/arm/utee_syscalls_asm.S:39
    4574:	d2800088 	mov	x8, #0x4                   	// #4
    4578:	d4000001 	svc	#0x0
    457c:	d65f03c0 	ret

0000000000004580 <utee_open_ta_session>:
utee_open_ta_session():
/home/pedro/devel/optee/optee_os/lib/libutee/arch/arm/utee_syscalls_asm.S:42
    4580:	d28000a8 	mov	x8, #0x5                   	// #5
    4584:	d4000001 	svc	#0x0
    4588:	d65f03c0 	ret

000000000000458c <utee_close_ta_session>:
utee_close_ta_session():
/home/pedro/devel/optee/optee_os/lib/libutee/arch/arm/utee_syscalls_asm.S:44
    458c:	d28000c8 	mov	x8, #0x6                   	// #6
    4590:	d4000001 	svc	#0x0
    4594:	d65f03c0 	ret

0000000000004598 <utee_invoke_ta_command>:
utee_invoke_ta_command():
/home/pedro/devel/optee/optee_os/lib/libutee/arch/arm/utee_syscalls_asm.S:46
    4598:	d28000e8 	mov	x8, #0x7                   	// #7
    459c:	d4000001 	svc	#0x0
    45a0:	d65f03c0 	ret

00000000000045a4 <utee_get_cancellation_flag>:
utee_get_cancellation_flag():
/home/pedro/devel/optee/optee_os/lib/libutee/arch/arm/utee_syscalls_asm.S:48
    45a4:	d2800128 	mov	x8, #0x9                   	// #9
    45a8:	d4000001 	svc	#0x0
    45ac:	d65f03c0 	ret

00000000000045b0 <utee_check_access_rights>:
utee_check_access_rights():
/home/pedro/devel/optee/optee_os/lib/libutee/arch/arm/utee_syscalls_asm.S:51
    45b0:	d2800108 	mov	x8, #0x8                   	// #8
    45b4:	d4000001 	svc	#0x0
    45b8:	d65f03c0 	ret

00000000000045bc <utee_unmask_cancellation>:
utee_unmask_cancellation():
/home/pedro/devel/optee/optee_os/lib/libutee/arch/arm/utee_syscalls_asm.S:53
    45bc:	d2800148 	mov	x8, #0xa                   	// #10
    45c0:	d4000001 	svc	#0x0
    45c4:	d65f03c0 	ret

00000000000045c8 <utee_mask_cancellation>:
utee_mask_cancellation():
/home/pedro/devel/optee/optee_os/lib/libutee/arch/arm/utee_syscalls_asm.S:55
    45c8:	d2800168 	mov	x8, #0xb                   	// #11
    45cc:	d4000001 	svc	#0x0
    45d0:	d65f03c0 	ret

00000000000045d4 <utee_wait>:
utee_wait():
/home/pedro/devel/optee/optee_os/lib/libutee/arch/arm/utee_syscalls_asm.S:57
    45d4:	d2800188 	mov	x8, #0xc                   	// #12
    45d8:	d4000001 	svc	#0x0
    45dc:	d65f03c0 	ret

00000000000045e0 <utee_get_time>:
utee_get_time():
/home/pedro/devel/optee/optee_os/lib/libutee/arch/arm/utee_syscalls_asm.S:59
    45e0:	d28001a8 	mov	x8, #0xd                   	// #13
    45e4:	d4000001 	svc	#0x0
    45e8:	d65f03c0 	ret

00000000000045ec <utee_set_ta_time>:
utee_set_ta_time():
/home/pedro/devel/optee/optee_os/lib/libutee/arch/arm/utee_syscalls_asm.S:61
    45ec:	d28001c8 	mov	x8, #0xe                   	// #14
    45f0:	d4000001 	svc	#0x0
    45f4:	d65f03c0 	ret

00000000000045f8 <utee_cryp_state_alloc>:
utee_cryp_state_alloc():
/home/pedro/devel/optee/optee_os/lib/libutee/arch/arm/utee_syscalls_asm.S:63
    45f8:	d28001e8 	mov	x8, #0xf                   	// #15
    45fc:	d4000001 	svc	#0x0
    4600:	d65f03c0 	ret

0000000000004604 <utee_cryp_state_copy>:
utee_cryp_state_copy():
/home/pedro/devel/optee/optee_os/lib/libutee/arch/arm/utee_syscalls_asm.S:65
    4604:	d2800208 	mov	x8, #0x10                  	// #16
    4608:	d4000001 	svc	#0x0
    460c:	d65f03c0 	ret

0000000000004610 <utee_cryp_state_free>:
utee_cryp_state_free():
/home/pedro/devel/optee/optee_os/lib/libutee/arch/arm/utee_syscalls_asm.S:67
    4610:	d2800228 	mov	x8, #0x11                  	// #17
    4614:	d4000001 	svc	#0x0
    4618:	d65f03c0 	ret

000000000000461c <utee_hash_init>:
utee_hash_init():
/home/pedro/devel/optee/optee_os/lib/libutee/arch/arm/utee_syscalls_asm.S:69
    461c:	d2800248 	mov	x8, #0x12                  	// #18
    4620:	d4000001 	svc	#0x0
    4624:	d65f03c0 	ret

0000000000004628 <utee_hash_update>:
utee_hash_update():
/home/pedro/devel/optee/optee_os/lib/libutee/arch/arm/utee_syscalls_asm.S:71
    4628:	d2800268 	mov	x8, #0x13                  	// #19
    462c:	d4000001 	svc	#0x0
    4630:	d65f03c0 	ret

0000000000004634 <utee_hash_final>:
utee_hash_final():
/home/pedro/devel/optee/optee_os/lib/libutee/arch/arm/utee_syscalls_asm.S:73
    4634:	d2800288 	mov	x8, #0x14                  	// #20
    4638:	d4000001 	svc	#0x0
    463c:	d65f03c0 	ret

0000000000004640 <utee_cipher_init>:
utee_cipher_init():
/home/pedro/devel/optee/optee_os/lib/libutee/arch/arm/utee_syscalls_asm.S:75
    4640:	d28002a8 	mov	x8, #0x15                  	// #21
    4644:	d4000001 	svc	#0x0
    4648:	d65f03c0 	ret

000000000000464c <utee_cipher_update>:
utee_cipher_update():
/home/pedro/devel/optee/optee_os/lib/libutee/arch/arm/utee_syscalls_asm.S:77
    464c:	d28002c8 	mov	x8, #0x16                  	// #22
    4650:	d4000001 	svc	#0x0
    4654:	d65f03c0 	ret

0000000000004658 <utee_cipher_final>:
utee_cipher_final():
/home/pedro/devel/optee/optee_os/lib/libutee/arch/arm/utee_syscalls_asm.S:79
    4658:	d28002e8 	mov	x8, #0x17                  	// #23
    465c:	d4000001 	svc	#0x0
    4660:	d65f03c0 	ret

0000000000004664 <utee_cryp_obj_get_info>:
utee_cryp_obj_get_info():
/home/pedro/devel/optee/optee_os/lib/libutee/arch/arm/utee_syscalls_asm.S:81
    4664:	d2800308 	mov	x8, #0x18                  	// #24
    4668:	d4000001 	svc	#0x0
    466c:	d65f03c0 	ret

0000000000004670 <utee_cryp_obj_restrict_usage>:
utee_cryp_obj_restrict_usage():
/home/pedro/devel/optee/optee_os/lib/libutee/arch/arm/utee_syscalls_asm.S:83
    4670:	d2800328 	mov	x8, #0x19                  	// #25
    4674:	d4000001 	svc	#0x0
    4678:	d65f03c0 	ret

000000000000467c <utee_cryp_obj_get_attr>:
utee_cryp_obj_get_attr():
/home/pedro/devel/optee/optee_os/lib/libutee/arch/arm/utee_syscalls_asm.S:86
    467c:	d2800348 	mov	x8, #0x1a                  	// #26
    4680:	d4000001 	svc	#0x0
    4684:	d65f03c0 	ret

0000000000004688 <utee_cryp_obj_alloc>:
utee_cryp_obj_alloc():
/home/pedro/devel/optee/optee_os/lib/libutee/arch/arm/utee_syscalls_asm.S:88
    4688:	d2800368 	mov	x8, #0x1b                  	// #27
    468c:	d4000001 	svc	#0x0
    4690:	d65f03c0 	ret

0000000000004694 <utee_cryp_obj_close>:
utee_cryp_obj_close():
/home/pedro/devel/optee/optee_os/lib/libutee/arch/arm/utee_syscalls_asm.S:90
    4694:	d2800388 	mov	x8, #0x1c                  	// #28
    4698:	d4000001 	svc	#0x0
    469c:	d65f03c0 	ret

00000000000046a0 <utee_cryp_obj_reset>:
utee_cryp_obj_reset():
/home/pedro/devel/optee/optee_os/lib/libutee/arch/arm/utee_syscalls_asm.S:92
    46a0:	d28003a8 	mov	x8, #0x1d                  	// #29
    46a4:	d4000001 	svc	#0x0
    46a8:	d65f03c0 	ret

00000000000046ac <utee_cryp_obj_populate>:
utee_cryp_obj_populate():
/home/pedro/devel/optee/optee_os/lib/libutee/arch/arm/utee_syscalls_asm.S:94
    46ac:	d28003c8 	mov	x8, #0x1e                  	// #30
    46b0:	d4000001 	svc	#0x0
    46b4:	d65f03c0 	ret

00000000000046b8 <utee_cryp_obj_copy>:
utee_cryp_obj_copy():
/home/pedro/devel/optee/optee_os/lib/libutee/arch/arm/utee_syscalls_asm.S:96
    46b8:	d28003e8 	mov	x8, #0x1f                  	// #31
    46bc:	d4000001 	svc	#0x0
    46c0:	d65f03c0 	ret

00000000000046c4 <utee_cryp_derive_key>:
utee_cryp_derive_key():
/home/pedro/devel/optee/optee_os/lib/libutee/arch/arm/utee_syscalls_asm.S:98
    46c4:	d2800408 	mov	x8, #0x20                  	// #32
    46c8:	d4000001 	svc	#0x0
    46cc:	d65f03c0 	ret

00000000000046d0 <utee_cryp_random_number_generate>:
utee_cryp_random_number_generate():
/home/pedro/devel/optee/optee_os/lib/libutee/arch/arm/utee_syscalls_asm.S:100
    46d0:	d2800428 	mov	x8, #0x21                  	// #33
    46d4:	d4000001 	svc	#0x0
    46d8:	d65f03c0 	ret

00000000000046dc <utee_authenc_init>:
utee_authenc_init():
/home/pedro/devel/optee/optee_os/lib/libutee/arch/arm/utee_syscalls_asm.S:103
    46dc:	d2800448 	mov	x8, #0x22                  	// #34
    46e0:	d4000001 	svc	#0x0
    46e4:	d65f03c0 	ret

00000000000046e8 <utee_authenc_update_aad>:
utee_authenc_update_aad():
/home/pedro/devel/optee/optee_os/lib/libutee/arch/arm/utee_syscalls_asm.S:105
    46e8:	d2800468 	mov	x8, #0x23                  	// #35
    46ec:	d4000001 	svc	#0x0
    46f0:	d65f03c0 	ret

00000000000046f4 <utee_authenc_update_payload>:
utee_authenc_update_payload():
/home/pedro/devel/optee/optee_os/lib/libutee/arch/arm/utee_syscalls_asm.S:107
    46f4:	d2800488 	mov	x8, #0x24                  	// #36
    46f8:	d4000001 	svc	#0x0
    46fc:	d65f03c0 	ret

0000000000004700 <utee_authenc_enc_final>:
utee_authenc_enc_final():
/home/pedro/devel/optee/optee_os/lib/libutee/arch/arm/utee_syscalls_asm.S:110
    4700:	d28004a8 	mov	x8, #0x25                  	// #37
    4704:	d4000001 	svc	#0x0
    4708:	d65f03c0 	ret

000000000000470c <utee_authenc_dec_final>:
utee_authenc_dec_final():
/home/pedro/devel/optee/optee_os/lib/libutee/arch/arm/utee_syscalls_asm.S:112
    470c:	d28004c8 	mov	x8, #0x26                  	// #38
    4710:	d4000001 	svc	#0x0
    4714:	d65f03c0 	ret

0000000000004718 <utee_asymm_operate>:
utee_asymm_operate():
/home/pedro/devel/optee/optee_os/lib/libutee/arch/arm/utee_syscalls_asm.S:114
    4718:	d28004e8 	mov	x8, #0x27                  	// #39
    471c:	d4000001 	svc	#0x0
    4720:	d65f03c0 	ret

0000000000004724 <utee_asymm_verify>:
utee_asymm_verify():
/home/pedro/devel/optee/optee_os/lib/libutee/arch/arm/utee_syscalls_asm.S:116
    4724:	d2800508 	mov	x8, #0x28                  	// #40
    4728:	d4000001 	svc	#0x0
    472c:	d65f03c0 	ret

0000000000004730 <utee_storage_obj_open>:
utee_storage_obj_open():
/home/pedro/devel/optee/optee_os/lib/libutee/arch/arm/utee_syscalls_asm.S:118
    4730:	d2800528 	mov	x8, #0x29                  	// #41
    4734:	d4000001 	svc	#0x0
    4738:	d65f03c0 	ret

000000000000473c <utee_storage_obj_create>:
utee_storage_obj_create():
/home/pedro/devel/optee/optee_os/lib/libutee/arch/arm/utee_syscalls_asm.S:120
    473c:	d2800548 	mov	x8, #0x2a                  	// #42
    4740:	d4000001 	svc	#0x0
    4744:	d65f03c0 	ret

0000000000004748 <utee_storage_obj_del>:
utee_storage_obj_del():
/home/pedro/devel/optee/optee_os/lib/libutee/arch/arm/utee_syscalls_asm.S:122
    4748:	d2800568 	mov	x8, #0x2b                  	// #43
    474c:	d4000001 	svc	#0x0
    4750:	d65f03c0 	ret

0000000000004754 <utee_storage_obj_rename>:
utee_storage_obj_rename():
/home/pedro/devel/optee/optee_os/lib/libutee/arch/arm/utee_syscalls_asm.S:124
    4754:	d2800588 	mov	x8, #0x2c                  	// #44
    4758:	d4000001 	svc	#0x0
    475c:	d65f03c0 	ret

0000000000004760 <utee_storage_alloc_enum>:
utee_storage_alloc_enum():
/home/pedro/devel/optee/optee_os/lib/libutee/arch/arm/utee_syscalls_asm.S:126
    4760:	d28005a8 	mov	x8, #0x2d                  	// #45
    4764:	d4000001 	svc	#0x0
    4768:	d65f03c0 	ret

000000000000476c <utee_storage_free_enum>:
utee_storage_free_enum():
/home/pedro/devel/optee/optee_os/lib/libutee/arch/arm/utee_syscalls_asm.S:128
    476c:	d28005c8 	mov	x8, #0x2e                  	// #46
    4770:	d4000001 	svc	#0x0
    4774:	d65f03c0 	ret

0000000000004778 <utee_storage_reset_enum>:
utee_storage_reset_enum():
/home/pedro/devel/optee/optee_os/lib/libutee/arch/arm/utee_syscalls_asm.S:130
    4778:	d28005e8 	mov	x8, #0x2f                  	// #47
    477c:	d4000001 	svc	#0x0
    4780:	d65f03c0 	ret

0000000000004784 <utee_storage_start_enum>:
utee_storage_start_enum():
/home/pedro/devel/optee/optee_os/lib/libutee/arch/arm/utee_syscalls_asm.S:132
    4784:	d2800608 	mov	x8, #0x30                  	// #48
    4788:	d4000001 	svc	#0x0
    478c:	d65f03c0 	ret

0000000000004790 <utee_storage_next_enum>:
utee_storage_next_enum():
/home/pedro/devel/optee/optee_os/lib/libutee/arch/arm/utee_syscalls_asm.S:134
    4790:	d2800628 	mov	x8, #0x31                  	// #49
    4794:	d4000001 	svc	#0x0
    4798:	d65f03c0 	ret

000000000000479c <utee_storage_obj_read>:
utee_storage_obj_read():
/home/pedro/devel/optee/optee_os/lib/libutee/arch/arm/utee_syscalls_asm.S:136
    479c:	d2800648 	mov	x8, #0x32                  	// #50
    47a0:	d4000001 	svc	#0x0
    47a4:	d65f03c0 	ret

00000000000047a8 <utee_storage_obj_write>:
utee_storage_obj_write():
/home/pedro/devel/optee/optee_os/lib/libutee/arch/arm/utee_syscalls_asm.S:138
    47a8:	d2800668 	mov	x8, #0x33                  	// #51
    47ac:	d4000001 	svc	#0x0
    47b0:	d65f03c0 	ret

00000000000047b4 <utee_storage_obj_trunc>:
utee_storage_obj_trunc():
/home/pedro/devel/optee/optee_os/lib/libutee/arch/arm/utee_syscalls_asm.S:140
    47b4:	d2800688 	mov	x8, #0x34                  	// #52
    47b8:	d4000001 	svc	#0x0
    47bc:	d65f03c0 	ret

00000000000047c0 <utee_storage_obj_seek>:
utee_storage_obj_seek():
/home/pedro/devel/optee/optee_os/lib/libutee/arch/arm/utee_syscalls_asm.S:142
    47c0:	d28006a8 	mov	x8, #0x35                  	// #53
    47c4:	d4000001 	svc	#0x0
    47c8:	d65f03c0 	ret

00000000000047cc <utee_cryp_obj_generate_key>:
utee_cryp_obj_generate_key():
/home/pedro/devel/optee/optee_os/lib/libutee/arch/arm/utee_syscalls_asm.S:144
    47cc:	d28006c8 	mov	x8, #0x36                  	// #54
    47d0:	d4000001 	svc	#0x0
    47d4:	d65f03c0 	ret

00000000000047d8 <utee_se_service_open>:
utee_se_service_open():
/home/pedro/devel/optee/optee_os/lib/libutee/arch/arm/utee_syscalls_asm.S:147
    47d8:	d28006e8 	mov	x8, #0x37                  	// #55
    47dc:	d4000001 	svc	#0x0
    47e0:	d65f03c0 	ret

00000000000047e4 <utee_se_service_close>:
utee_se_service_close():
/home/pedro/devel/optee/optee_os/lib/libutee/arch/arm/utee_syscalls_asm.S:149
    47e4:	d2800708 	mov	x8, #0x38                  	// #56
    47e8:	d4000001 	svc	#0x0
    47ec:	d65f03c0 	ret

00000000000047f0 <utee_se_service_get_readers>:
utee_se_service_get_readers():
/home/pedro/devel/optee/optee_os/lib/libutee/arch/arm/utee_syscalls_asm.S:151
    47f0:	d2800728 	mov	x8, #0x39                  	// #57
    47f4:	d4000001 	svc	#0x0
    47f8:	d65f03c0 	ret

00000000000047fc <utee_se_reader_get_prop>:
utee_se_reader_get_prop():
/home/pedro/devel/optee/optee_os/lib/libutee/arch/arm/utee_syscalls_asm.S:154
    47fc:	d2800748 	mov	x8, #0x3a                  	// #58
    4800:	d4000001 	svc	#0x0
    4804:	d65f03c0 	ret

0000000000004808 <utee_se_reader_get_name>:
utee_se_reader_get_name():
/home/pedro/devel/optee/optee_os/lib/libutee/arch/arm/utee_syscalls_asm.S:157
    4808:	d2800768 	mov	x8, #0x3b                  	// #59
    480c:	d4000001 	svc	#0x0
    4810:	d65f03c0 	ret

0000000000004814 <utee_se_reader_open_session>:
utee_se_reader_open_session():
/home/pedro/devel/optee/optee_os/lib/libutee/arch/arm/utee_syscalls_asm.S:160
    4814:	d2800788 	mov	x8, #0x3c                  	// #60
    4818:	d4000001 	svc	#0x0
    481c:	d65f03c0 	ret

0000000000004820 <utee_se_reader_close_sessions>:
utee_se_reader_close_sessions():
/home/pedro/devel/optee/optee_os/lib/libutee/arch/arm/utee_syscalls_asm.S:163
    4820:	d28007a8 	mov	x8, #0x3d                  	// #61
    4824:	d4000001 	svc	#0x0
    4828:	d65f03c0 	ret

000000000000482c <utee_se_session_is_closed>:
utee_se_session_is_closed():
/home/pedro/devel/optee/optee_os/lib/libutee/arch/arm/utee_syscalls_asm.S:166
    482c:	d28007c8 	mov	x8, #0x3e                  	// #62
    4830:	d4000001 	svc	#0x0
    4834:	d65f03c0 	ret

0000000000004838 <utee_se_session_get_atr>:
utee_se_session_get_atr():
/home/pedro/devel/optee/optee_os/lib/libutee/arch/arm/utee_syscalls_asm.S:169
    4838:	d28007e8 	mov	x8, #0x3f                  	// #63
    483c:	d4000001 	svc	#0x0
    4840:	d65f03c0 	ret

0000000000004844 <utee_se_session_open_channel>:
utee_se_session_open_channel():
/home/pedro/devel/optee/optee_os/lib/libutee/arch/arm/utee_syscalls_asm.S:172
    4844:	d2800808 	mov	x8, #0x40                  	// #64
    4848:	d4000001 	svc	#0x0
    484c:	d65f03c0 	ret

0000000000004850 <utee_se_session_close>:
utee_se_session_close():
/home/pedro/devel/optee/optee_os/lib/libutee/arch/arm/utee_syscalls_asm.S:175
    4850:	d2800828 	mov	x8, #0x41                  	// #65
    4854:	d4000001 	svc	#0x0
    4858:	d65f03c0 	ret

000000000000485c <utee_se_channel_select_next>:
utee_se_channel_select_next():
/home/pedro/devel/optee/optee_os/lib/libutee/arch/arm/utee_syscalls_asm.S:178
    485c:	d2800848 	mov	x8, #0x42                  	// #66
    4860:	d4000001 	svc	#0x0
    4864:	d65f03c0 	ret

0000000000004868 <utee_se_channel_get_select_resp>:
utee_se_channel_get_select_resp():
/home/pedro/devel/optee/optee_os/lib/libutee/arch/arm/utee_syscalls_asm.S:181
    4868:	d2800868 	mov	x8, #0x43                  	// #67
    486c:	d4000001 	svc	#0x0
    4870:	d65f03c0 	ret

0000000000004874 <utee_se_channel_transmit>:
utee_se_channel_transmit():
/home/pedro/devel/optee/optee_os/lib/libutee/arch/arm/utee_syscalls_asm.S:184
    4874:	d2800888 	mov	x8, #0x44                  	// #68
    4878:	d4000001 	svc	#0x0
    487c:	d65f03c0 	ret

0000000000004880 <utee_se_channel_close>:
utee_se_channel_close():
/home/pedro/devel/optee/optee_os/lib/libutee/arch/arm/utee_syscalls_asm.S:187
    4880:	d28008a8 	mov	x8, #0x45                  	// #69
    4884:	d4000001 	svc	#0x0
    4888:	d65f03c0 	ret

000000000000488c <utee_cache_operation>:
utee_cache_operation():
/home/pedro/devel/optee/optee_os/lib/libutee/arch/arm/utee_syscalls_asm.S:190
    488c:	d28008c8 	mov	x8, #0x46                  	// #70
    4890:	d4000001 	svc	#0x0
    4894:	d65f03c0 	ret

0000000000004898 <__utee_mcount>:
__utee_mcount():
/home/pedro/devel/optee/optee_os/lib/libutee/arch/arm/gprof/gprof_a64.S:52
    4898:	d65f03c0 	ret

000000000000489c <print_buf>:
print_buf():
/home/pedro/devel/optee/optee_os/lib/libutee/tee_user_mem.c:166
    489c:	d100c3ff 	sub	sp, sp, #0x30
/home/pedro/devel/optee/optee_os/lib/libutee/tee_user_mem.c:167
    48a0:	aa0303e7 	mov	x7, x3
    48a4:	2a0203e6 	mov	w6, w2
    48a8:	52800023 	mov	w3, #0x1                   	// #1
    48ac:	2a0003e2 	mov	w2, w0
    48b0:	d2800000 	mov	x0, #0x0                   	// #0
/home/pedro/devel/optee/optee_os/lib/libutee/tee_user_mem.c:166
    48b4:	a9027bfd 	stp	x29, x30, [sp,#32]
    48b8:	910083fd 	add	x29, sp, #0x20
buf_size():
/home/pedro/devel/optee/optee_os/lib/libutee/tee_user_mem.c:137
    48bc:	f9400885 	ldr	x5, [x4,#16]
print_buf():
/home/pedro/devel/optee/optee_os/lib/libutee/tee_user_mem.c:167
    48c0:	f90003e4 	str	x4, [sp]
buf_size():
/home/pedro/devel/optee/optee_os/lib/libutee/tee_user_mem.c:137
    48c4:	d10084a5 	sub	x5, x5, #0x21
print_buf():
/home/pedro/devel/optee/optee_os/lib/libutee/tee_user_mem.c:167
    48c8:	f9000be5 	str	x5, [sp,#16]
buf_addr():
/home/pedro/devel/optee/optee_os/lib/libutee/tee_user_mem.c:132
    48cc:	91008085 	add	x5, x4, #0x20
print_buf():
/home/pedro/devel/optee/optee_os/lib/libutee/tee_user_mem.c:167
    48d0:	f90007e5 	str	x5, [sp,#8]
    48d4:	90000044 	adrp	x4, c000 <PRIME_TABLE+0x8a0>
    48d8:	aa0103e5 	mov	x5, x1
    48dc:	9128d884 	add	x4, x4, #0xa36
    48e0:	52800001 	mov	w1, #0x0                   	// #0
    48e4:	94000b32 	bl	75ac <trace_printf>
/home/pedro/devel/optee/optee_os/lib/libutee/tee_user_mem.c:170
    48e8:	a9427bfd 	ldp	x29, x30, [sp,#32]
    48ec:	9100c3ff 	add	sp, sp, #0x30
    48f0:	d65f03c0 	ret

00000000000048f4 <check_elem>:
check_elem():
/home/pedro/devel/optee/optee_os/lib/libutee/tee_user_mem.c:241
    48f4:	b40007e0 	cbz	x0, 49f0 <check_elem+0xfc>
/home/pedro/devel/optee/optee_os/lib/libutee/tee_user_mem.c:237
    48f8:	a9be7bfd 	stp	x29, x30, [sp,#-32]!
/home/pedro/devel/optee/optee_os/lib/libutee/tee_user_mem.c:244
    48fc:	f240041f 	tst	x0, #0x3
/home/pedro/devel/optee/optee_os/lib/libutee/tee_user_mem.c:237
    4900:	910003fd 	mov	x29, sp
    4904:	f9000bf3 	str	x19, [sp,#16]
    4908:	aa0003f3 	mov	x19, x0
/home/pedro/devel/optee/optee_os/lib/libutee/tee_user_mem.c:244
    490c:	54000160 	b.eq	4938 <check_elem+0x44>
/home/pedro/devel/optee/optee_os/lib/libutee/tee_user_mem.c:245
    4910:	90000044 	adrp	x4, c000 <PRIME_TABLE+0x8a0>
    4914:	91296084 	add	x4, x4, #0xa58
    4918:	52800023 	mov	w3, #0x1                   	// #1
    491c:	52800022 	mov	w2, #0x1                   	// #1
    4920:	52801ea1 	mov	w1, #0xf5                  	// #245
    4924:	f0000020 	adrp	x0, b000 <mpa_set_oct_str+0x7c>
    4928:	9116e000 	add	x0, x0, #0x5b8
    492c:	94000b20 	bl	75ac <trace_printf>
/home/pedro/devel/optee/optee_os/lib/libutee/tee_user_mem.c:246
    4930:	52800000 	mov	w0, #0x0                   	// #0
    4934:	97fffe51 	bl	4278 <TEE_Panic>
/home/pedro/devel/optee/optee_os/lib/libutee/tee_user_mem.c:249
    4938:	f9400264 	ldr	x4, [x19]
/home/pedro/devel/optee/optee_os/lib/libutee/tee_user_mem.c:250
    493c:	b4000224 	cbz	x4, 4980 <check_elem+0x8c>
/home/pedro/devel/optee/optee_os/lib/libutee/tee_user_mem.c:250 (discriminator 1)
    4940:	f9400480 	ldr	x0, [x4,#8]
    4944:	f9400400 	ldr	x0, [x0,#8]
    4948:	f9400000 	ldr	x0, [x0]
    494c:	eb00027f 	cmp	x19, x0
    4950:	54000180 	b.eq	4980 <check_elem+0x8c>
/home/pedro/devel/optee/optee_os/lib/libutee/tee_user_mem.c:251
    4954:	90000043 	adrp	x3, c000 <PRIME_TABLE+0x8a0>
    4958:	9129b863 	add	x3, x3, #0xa6e
    495c:	52801f62 	mov	w2, #0xfb                  	// #251
/home/pedro/devel/optee/optee_os/lib/libutee/tee_user_mem.c:257
    4960:	f0000021 	adrp	x1, b000 <mpa_set_oct_str+0x7c>
    4964:	9116e021 	add	x1, x1, #0x5b8
    4968:	52800020 	mov	w0, #0x1                   	// #1
check_elem_end():
/home/pedro/devel/optee/optee_os/lib/libutee/tee_user_mem.c:229
    496c:	97ffffcc 	bl	489c <print_buf>
/home/pedro/devel/optee/optee_os/lib/libutee/tee_user_mem.c:230
    4970:	52800000 	mov	w0, #0x0                   	// #0
check_elem():
/home/pedro/devel/optee/optee_os/lib/libutee/tee_user_mem.c:262
    4974:	f9400bf3 	ldr	x19, [sp,#16]
    4978:	a8c27bfd 	ldp	x29, x30, [sp],#32
    497c:	d65f03c0 	ret
/home/pedro/devel/optee/optee_os/lib/libutee/tee_user_mem.c:255
    4980:	f9400660 	ldr	x0, [x19,#8]
    4984:	f9400400 	ldr	x0, [x0,#8]
    4988:	f9400004 	ldr	x4, [x0]
/home/pedro/devel/optee/optee_os/lib/libutee/tee_user_mem.c:256
    498c:	b4000104 	cbz	x4, 49ac <check_elem+0xb8>
    4990:	f9400080 	ldr	x0, [x4]
    4994:	eb00027f 	cmp	x19, x0
    4998:	540000a0 	b.eq	49ac <check_elem+0xb8>
/home/pedro/devel/optee/optee_os/lib/libutee/tee_user_mem.c:257
    499c:	90000043 	adrp	x3, c000 <PRIME_TABLE+0x8a0>
    49a0:	52802022 	mov	w2, #0x101                 	// #257
    49a4:	9129b863 	add	x3, x3, #0xa6e
    49a8:	17ffffee 	b	4960 <check_elem+0x6c>
check_elem_end():
/home/pedro/devel/optee/optee_os/lib/libutee/tee_user_mem.c:227
    49ac:	f9400a60 	ldr	x0, [x19,#16]
/home/pedro/devel/optee/optee_os/lib/libutee/tee_user_mem.c:228
    49b0:	92401e61 	and	x1, x19, #0xff
/home/pedro/devel/optee/optee_os/lib/libutee/tee_user_mem.c:227
    49b4:	8b000260 	add	x0, x19, x0
    49b8:	385ff002 	ldurb	w2, [x0,#-1]
/home/pedro/devel/optee/optee_os/lib/libutee/tee_user_mem.c:228
    49bc:	d28018a0 	mov	x0, #0xc5                  	// #197
    49c0:	ca000021 	eor	x1, x1, x0
/home/pedro/devel/optee/optee_os/lib/libutee/tee_user_mem.c:233
    49c4:	52800020 	mov	w0, #0x1                   	// #1
/home/pedro/devel/optee/optee_os/lib/libutee/tee_user_mem.c:227
    49c8:	eb01005f 	cmp	x2, x1
    49cc:	54fffd40 	b.eq	4974 <check_elem+0x80>
/home/pedro/devel/optee/optee_os/lib/libutee/tee_user_mem.c:229
    49d0:	f0000021 	adrp	x1, b000 <mpa_set_oct_str+0x7c>
    49d4:	9116e021 	add	x1, x1, #0x5b8
    49d8:	90000043 	adrp	x3, c000 <PRIME_TABLE+0x8a0>
    49dc:	aa1303e4 	mov	x4, x19
    49e0:	9129e463 	add	x3, x3, #0xa79
    49e4:	52801ca2 	mov	w2, #0xe5                  	// #229
    49e8:	91004021 	add	x1, x1, #0x10
    49ec:	17ffffe0 	b	496c <check_elem+0x78>
check_elem():
/home/pedro/devel/optee/optee_os/lib/libutee/tee_user_mem.c:242
    49f0:	52800000 	mov	w0, #0x0                   	// #0
    49f4:	d65f03c0 	ret

00000000000049f8 <tee_user_mem_alloc>:
tee_user_mem_alloc():
/home/pedro/devel/optee/optee_os/lib/libutee/tee_user_mem.c:298
    49f8:	a9bd7bfd 	stp	x29, x30, [sp,#-48]!
    49fc:	910003fd 	mov	x29, sp
    4a00:	a90153f3 	stp	x19, x20, [sp,#16]
    4a04:	a9025bf5 	stp	x21, x22, [sp,#32]
/home/pedro/devel/optee/optee_os/lib/libutee/tee_user_mem.c:307
    4a08:	36f800e0 	tbz	w0, #31, 4a24 <tee_user_mem_alloc+0x2c>
/home/pedro/devel/optee/optee_os/lib/libutee/tee_user_mem.c:325
    4a0c:	d2800013 	mov	x19, #0x0                   	// #0
/home/pedro/devel/optee/optee_os/lib/libutee/tee_user_mem.c:359
    4a10:	aa1303e0 	mov	x0, x19
    4a14:	a94153f3 	ldp	x19, x20, [sp,#16]
    4a18:	a9425bf5 	ldp	x21, x22, [sp,#32]
    4a1c:	a8c37bfd 	ldp	x29, x30, [sp],#48
    4a20:	d65f03c0 	ret
/home/pedro/devel/optee/optee_os/lib/libutee/tee_user_mem.c:314
    4a24:	d2800213 	mov	x19, #0x10                  	// #16
/home/pedro/devel/optee/optee_os/lib/libutee/tee_user_mem.c:312
    4a28:	b4ffff40 	cbz	x0, 4a10 <tee_user_mem_alloc+0x18>
    4a2c:	2a0103f6 	mov	w22, w1
    4a30:	aa0003f4 	mov	x20, x0
/home/pedro/devel/optee/optee_os/lib/libutee/tee_user_mem.c:318
    4a34:	340001e1 	cbz	w1, 4a70 <tee_user_mem_alloc+0x78>
    4a38:	52b00000 	mov	w0, #0x80000000            	// #-2147483648
    4a3c:	6b00003f 	cmp	w1, w0
    4a40:	54000180 	b.eq	4a70 <tee_user_mem_alloc+0x78>
/home/pedro/devel/optee/optee_os/lib/libutee/tee_user_mem.c:323
    4a44:	f0000020 	adrp	x0, b000 <mpa_set_oct_str+0x7c>
    4a48:	9116e000 	add	x0, x0, #0x5b8
    4a4c:	2a0103e5 	mov	w5, w1
    4a50:	90000044 	adrp	x4, c000 <PRIME_TABLE+0x8a0>
    4a54:	52800023 	mov	w3, #0x1                   	// #1
    4a58:	912a1484 	add	x4, x4, #0xa85
    4a5c:	52800022 	mov	w2, #0x1                   	// #1
    4a60:	52802861 	mov	w1, #0x143                 	// #323
    4a64:	91008000 	add	x0, x0, #0x20
    4a68:	94000ad1 	bl	75ac <trace_printf>
    4a6c:	17ffffe8 	b	4a0c <tee_user_mem_alloc+0x14>
/home/pedro/devel/optee/optee_os/lib/libutee/tee_user_mem.c:301
    4a70:	91008695 	add	x21, x20, #0x21
/home/pedro/devel/optee/optee_os/lib/libutee/tee_user_mem.c:328
    4a74:	aa1503e0 	mov	x0, x21
    4a78:	940002c2 	bl	5580 <utee_malloc>
    4a7c:	aa0003f3 	mov	x19, x0
/home/pedro/devel/optee/optee_os/lib/libutee/tee_user_mem.c:329
    4a80:	b4fffc60 	cbz	x0, 4a0c <tee_user_mem_alloc+0x14>
heap_inc():
/home/pedro/devel/optee/optee_os/lib/libutee/tee_user_mem.c:198
    4a84:	d0000082 	adrp	x2, 16000 <ta_heap+0x7cc0>
    4a88:	910e4040 	add	x0, x2, #0x390
/home/pedro/devel/optee/optee_os/lib/libutee/tee_user_mem.c:200
    4a8c:	91002001 	add	x1, x0, #0x8
tee_user_mem_alloc():
/home/pedro/devel/optee/optee_os/lib/libutee/tee_user_mem.c:331
    4a90:	f9000a75 	str	x21, [x19,#16]
heap_inc():
/home/pedro/devel/optee/optee_os/lib/libutee/tee_user_mem.c:198
    4a94:	f941c843 	ldr	x3, [x2,#912]
tee_user_mem_alloc():
/home/pedro/devel/optee/optee_os/lib/libutee/tee_user_mem.c:344
    4a98:	aa1303e4 	mov	x4, x19
/home/pedro/devel/optee/optee_os/lib/libutee/tee_user_mem.c:332
    4a9c:	b9001a76 	str	w22, [x19,#24]
heap_inc():
/home/pedro/devel/optee/optee_os/lib/libutee/tee_user_mem.c:198
    4aa0:	8b150063 	add	x3, x3, x21
    4aa4:	f901c843 	str	x3, [x2,#912]
/home/pedro/devel/optee/optee_os/lib/libutee/tee_user_mem.c:200
    4aa8:	b9400802 	ldr	w2, [x0,#8]
tee_user_mem_alloc():
/home/pedro/devel/optee/optee_os/lib/libutee/tee_user_mem.c:344
    4aac:	90000043 	adrp	x3, c000 <PRIME_TABLE+0x8a0>
    4ab0:	912a7c63 	add	x3, x3, #0xa9f
heap_inc():
/home/pedro/devel/optee/optee_os/lib/libutee/tee_user_mem.c:200
    4ab4:	11000442 	add	w2, w2, #0x1
    4ab8:	b9000802 	str	w2, [x0,#8]
/home/pedro/devel/optee/optee_os/lib/libutee/tee_user_mem.c:201
    4abc:	f9400800 	ldr	x0, [x0,#16]
tee_user_mem_alloc():
/home/pedro/devel/optee/optee_os/lib/libutee/tee_user_mem.c:344
    4ac0:	52802b02 	mov	w2, #0x158                 	// #344
heap_inc():
/home/pedro/devel/optee/optee_os/lib/libutee/tee_user_mem.c:201
    4ac4:	8b150015 	add	x21, x0, x21
tee_user_mem_alloc():
/home/pedro/devel/optee/optee_os/lib/libutee/tee_user_mem.c:336
    4ac8:	d0000040 	adrp	x0, e000 <modulus_dbstore>
    4acc:	910c2000 	add	x0, x0, #0x308
heap_inc():
/home/pedro/devel/optee/optee_os/lib/libutee/tee_user_mem.c:201
    4ad0:	f9000435 	str	x21, [x1,#8]
tee_user_mem_alloc():
/home/pedro/devel/optee/optee_os/lib/libutee/tee_user_mem.c:336
    4ad4:	f9400401 	ldr	x1, [x0,#8]
    4ad8:	a900067f 	stp	xzr, x1, [x19]
    4adc:	f9000033 	str	x19, [x1]
/home/pedro/devel/optee/optee_os/lib/libutee/tee_user_mem.c:340
    4ae0:	8b140261 	add	x1, x19, x20
/home/pedro/devel/optee/optee_os/lib/libutee/tee_user_mem.c:336
    4ae4:	f9000413 	str	x19, [x0,#8]
/home/pedro/devel/optee/optee_os/lib/libutee/tee_user_mem.c:341
    4ae8:	12800740 	mov	w0, #0xffffffc5            	// #-59
    4aec:	4a130000 	eor	w0, w0, w19
buf_addr():
/home/pedro/devel/optee/optee_os/lib/libutee/tee_user_mem.c:132
    4af0:	91008273 	add	x19, x19, #0x20
tee_user_mem_alloc():
/home/pedro/devel/optee/optee_os/lib/libutee/tee_user_mem.c:340
    4af4:	39008020 	strb	w0, [x1,#32]
/home/pedro/devel/optee/optee_os/lib/libutee/tee_user_mem.c:344
    4af8:	f0000020 	adrp	x0, b000 <mpa_set_oct_str+0x7c>
    4afc:	9116e000 	add	x0, x0, #0x5b8
    4b00:	91008001 	add	x1, x0, #0x20
    4b04:	52800080 	mov	w0, #0x4                   	// #4
    4b08:	97ffff65 	bl	489c <print_buf>
/home/pedro/devel/optee/optee_os/lib/libutee/tee_user_mem.c:348
    4b0c:	350000d6 	cbnz	w22, 4b24 <tee_user_mem_alloc+0x12c>
/home/pedro/devel/optee/optee_os/lib/libutee/tee_user_mem.c:349
    4b10:	aa1403e2 	mov	x2, x20
    4b14:	52800001 	mov	w1, #0x0                   	// #0
    4b18:	aa1303e0 	mov	x0, x19
    4b1c:	9400075d 	bl	6890 <memset>
    4b20:	17ffffbc 	b	4a10 <tee_user_mem_alloc+0x18>
/home/pedro/devel/optee/optee_os/lib/libutee/tee_user_mem.c:351
    4b24:	52b00000 	mov	w0, #0x80000000            	// #-2147483648
    4b28:	6b0002df 	cmp	w22, w0
    4b2c:	54fff721 	b.ne	4a10 <tee_user_mem_alloc+0x18>
/home/pedro/devel/optee/optee_os/lib/libutee/tee_user_mem.c:353
    4b30:	aa1403e2 	mov	x2, x20
    4b34:	52801761 	mov	w1, #0xbb                  	// #187
    4b38:	aa1303e0 	mov	x0, x19
    4b3c:	94000755 	bl	6890 <memset>
    4b40:	17ffffb4 	b	4a10 <tee_user_mem_alloc+0x18>

0000000000004b44 <tee_user_mem_free>:
tee_user_mem_free():
/home/pedro/devel/optee/optee_os/lib/libutee/tee_user_mem.c:431
    4b44:	f100001f 	cmp	x0, #0x0
    4b48:	fa501804 	ccmp	x0, #0x10, #0x4, ne
    4b4c:	540009c0 	b.eq	4c84 <tee_user_mem_free+0x140>
/home/pedro/devel/optee/optee_os/lib/libutee/tee_user_mem.c:424
    4b50:	a9bd7bfd 	stp	x29, x30, [sp,#-48]!
is_buffer_valid():
/home/pedro/devel/optee/optee_os/lib/libutee/tee_user_mem.c:152
    4b54:	d0000041 	adrp	x1, e000 <modulus_dbstore>
tee_user_mem_free():
/home/pedro/devel/optee/optee_os/lib/libutee/tee_user_mem.c:424
    4b58:	910003fd 	mov	x29, sp
    4b5c:	a90153f3 	stp	x19, x20, [sp,#16]
is_buffer_valid():
/home/pedro/devel/optee/optee_os/lib/libutee/tee_user_mem.c:152
    4b60:	f9418434 	ldr	x20, [x1,#776]
tee_user_mem_free():
/home/pedro/devel/optee/optee_os/lib/libutee/tee_user_mem.c:424
    4b64:	a9025bf5 	stp	x21, x22, [sp,#32]
    4b68:	aa0103f6 	mov	x22, x1
is_buffer_valid():
/home/pedro/devel/optee/optee_os/lib/libutee/tee_user_mem.c:152
    4b6c:	b50001d4 	cbnz	x20, 4ba4 <tee_user_mem_free+0x60>
tee_user_mem_free():
/home/pedro/devel/optee/optee_os/lib/libutee/tee_user_mem.c:469
    4b70:	a94153f3 	ldp	x19, x20, [sp,#16]
/home/pedro/devel/optee/optee_os/lib/libutee/tee_user_mem.c:436
    4b74:	aa0003e5 	mov	x5, x0
/home/pedro/devel/optee/optee_os/lib/libutee/tee_user_mem.c:469
    4b78:	a9425bf5 	ldp	x21, x22, [sp,#32]
/home/pedro/devel/optee/optee_os/lib/libutee/tee_user_mem.c:436
    4b7c:	f0000020 	adrp	x0, b000 <mpa_set_oct_str+0x7c>
/home/pedro/devel/optee/optee_os/lib/libutee/tee_user_mem.c:469
    4b80:	a8c37bfd 	ldp	x29, x30, [sp],#48
/home/pedro/devel/optee/optee_os/lib/libutee/tee_user_mem.c:436
    4b84:	9116e000 	add	x0, x0, #0x5b8
    4b88:	90000044 	adrp	x4, c000 <PRIME_TABLE+0x8a0>
    4b8c:	52800023 	mov	w3, #0x1                   	// #1
    4b90:	912afc84 	add	x4, x4, #0xabf
    4b94:	52800022 	mov	w2, #0x1                   	// #1
    4b98:	52803681 	mov	w1, #0x1b4                 	// #436
    4b9c:	9100e000 	add	x0, x0, #0x38
    4ba0:	14000a83 	b	75ac <trace_printf>
buf_addr():
/home/pedro/devel/optee/optee_os/lib/libutee/tee_user_mem.c:132
    4ba4:	91008281 	add	x1, x20, #0x20
is_buffer_valid():
/home/pedro/devel/optee/optee_os/lib/libutee/tee_user_mem.c:153
    4ba8:	eb01001f 	cmp	x0, x1
    4bac:	540000c0 	b.eq	4bc4 <tee_user_mem_free+0x80>
/home/pedro/devel/optee/optee_os/lib/libutee/tee_user_mem.c:152
    4bb0:	f9400294 	ldr	x20, [x20]
    4bb4:	17ffffee 	b	4b6c <tee_user_mem_free+0x28>
tee_user_mem_free():
/home/pedro/devel/optee/optee_os/lib/libutee/tee_user_mem.c:452
    4bb8:	910c22d6 	add	x22, x22, #0x308
    4bbc:	f90006c1 	str	x1, [x22,#8]
    4bc0:	1400001b 	b	4c2c <tee_user_mem_free+0xe8>
/home/pedro/devel/optee/optee_os/lib/libutee/tee_user_mem.c:443
    4bc4:	f0000035 	adrp	x21, b000 <mpa_set_oct_str+0x7c>
    4bc8:	9116e2b5 	add	x21, x21, #0x5b8
    4bcc:	9100e2b5 	add	x21, x21, #0x38
    4bd0:	aa1403e4 	mov	x4, x20
    4bd4:	90000043 	adrp	x3, c000 <PRIME_TABLE+0x8a0>
    4bd8:	aa1503e1 	mov	x1, x21
    4bdc:	912b6463 	add	x3, x3, #0xad9
    4be0:	52803762 	mov	w2, #0x1bb                 	// #443
    4be4:	aa0003f3 	mov	x19, x0
    4be8:	52800080 	mov	w0, #0x4                   	// #4
    4bec:	97ffff2c 	bl	489c <print_buf>
/home/pedro/devel/optee/optee_os/lib/libutee/tee_user_mem.c:446
    4bf0:	aa1403e0 	mov	x0, x20
    4bf4:	97ffff40 	bl	48f4 <check_elem>
    4bf8:	35000140 	cbnz	w0, 4c20 <tee_user_mem_free+0xdc>
/home/pedro/devel/optee/optee_os/lib/libutee/tee_user_mem.c:447
    4bfc:	90000044 	adrp	x4, c000 <PRIME_TABLE+0x8a0>
    4c00:	912aa884 	add	x4, x4, #0xaaa
    4c04:	52800023 	mov	w3, #0x1                   	// #1
    4c08:	52800022 	mov	w2, #0x1                   	// #1
    4c0c:	528037e1 	mov	w1, #0x1bf                 	// #447
    4c10:	aa1503e0 	mov	x0, x21
    4c14:	94000a66 	bl	75ac <trace_printf>
/home/pedro/devel/optee/optee_os/lib/libutee/tee_user_mem.c:448
    4c18:	52800000 	mov	w0, #0x0                   	// #0
    4c1c:	97fffd97 	bl	4278 <TEE_Panic>
    4c20:	a97e0660 	ldp	x0, x1, [x19,#-32]
/home/pedro/devel/optee/optee_os/lib/libutee/tee_user_mem.c:452
    4c24:	b4fffca0 	cbz	x0, 4bb8 <tee_user_mem_free+0x74>
    4c28:	f9000401 	str	x1, [x0,#8]
/home/pedro/devel/optee/optee_os/lib/libutee/tee_user_mem.c:454
    4c2c:	a97e8a61 	ldp	x1, x2, [x19,#-24]
/home/pedro/devel/optee/optee_os/lib/libutee/tee_user_mem.c:452
    4c30:	f9000020 	str	x0, [x1]
heap_dec():
/home/pedro/devel/optee/optee_os/lib/libutee/tee_user_mem.c:208
    4c34:	d0000081 	adrp	x1, 16000 <ta_heap+0x7cc0>
    4c38:	910e4020 	add	x0, x1, #0x390
    4c3c:	f941c823 	ldr	x3, [x1,#912]
    4c40:	cb020063 	sub	x3, x3, x2
    4c44:	f901c823 	str	x3, [x1,#912]
/home/pedro/devel/optee/optee_os/lib/libutee/tee_user_mem.c:210
    4c48:	b9400801 	ldr	w1, [x0,#8]
    4c4c:	91002003 	add	x3, x0, #0x8
    4c50:	51000421 	sub	w1, w1, #0x1
    4c54:	b9000801 	str	w1, [x0,#8]
/home/pedro/devel/optee/optee_os/lib/libutee/tee_user_mem.c:211
    4c58:	f9400800 	ldr	x0, [x0,#16]
tee_user_mem_free():
/home/pedro/devel/optee/optee_os/lib/libutee/tee_user_mem.c:463
    4c5c:	52801541 	mov	w1, #0xaa                  	// #170
heap_dec():
/home/pedro/devel/optee/optee_os/lib/libutee/tee_user_mem.c:211
    4c60:	cb020000 	sub	x0, x0, x2
    4c64:	f9000460 	str	x0, [x3,#8]
tee_user_mem_free():
/home/pedro/devel/optee/optee_os/lib/libutee/tee_user_mem.c:463
    4c68:	aa1403e0 	mov	x0, x20
    4c6c:	94000709 	bl	6890 <memset>
/home/pedro/devel/optee/optee_os/lib/libutee/tee_user_mem.c:466
    4c70:	aa1403e0 	mov	x0, x20
/home/pedro/devel/optee/optee_os/lib/libutee/tee_user_mem.c:469
    4c74:	a9425bf5 	ldp	x21, x22, [sp,#32]
    4c78:	a94153f3 	ldp	x19, x20, [sp,#16]
    4c7c:	a8c37bfd 	ldp	x29, x30, [sp],#48
/home/pedro/devel/optee/optee_os/lib/libutee/tee_user_mem.c:466
    4c80:	14000243 	b	558c <utee_free>
    4c84:	d65f03c0 	ret

0000000000004c88 <tee_user_mem_realloc>:
tee_user_mem_realloc():
/home/pedro/devel/optee/optee_os/lib/libutee/tee_user_mem.c:368
    4c88:	a9bd7bfd 	stp	x29, x30, [sp,#-48]!
    4c8c:	910003fd 	mov	x29, sp
    4c90:	a90153f3 	stp	x19, x20, [sp,#16]
    4c94:	a9025bf5 	stp	x21, x22, [sp,#32]
/home/pedro/devel/optee/optee_os/lib/libutee/tee_user_mem.c:375
    4c98:	37f80261 	tbnz	w1, #31, 4ce4 <tee_user_mem_realloc+0x5c>
/home/pedro/devel/optee/optee_os/lib/libutee/tee_user_mem.c:385 (discriminator 1)
    4c9c:	f100001f 	cmp	x0, #0x0
    4ca0:	aa0103f4 	mov	x20, x1
    4ca4:	fa501804 	ccmp	x0, #0x10, #0x4, ne
    4ca8:	54000080 	b.eq	4cb8 <tee_user_mem_realloc+0x30>
is_buffer_valid():
/home/pedro/devel/optee/optee_os/lib/libutee/tee_user_mem.c:152
    4cac:	d0000041 	adrp	x1, e000 <modulus_dbstore>
    4cb0:	f9418421 	ldr	x1, [x1,#776]
    4cb4:	b50000e1 	cbnz	x1, 4cd0 <tee_user_mem_realloc+0x48>
tee_user_mem_realloc():
/home/pedro/devel/optee/optee_os/lib/libutee/tee_user_mem.c:386
    4cb8:	aa1403e0 	mov	x0, x20
    4cbc:	52800001 	mov	w1, #0x0                   	// #0
/home/pedro/devel/optee/optee_os/lib/libutee/tee_user_mem.c:417
    4cc0:	a94153f3 	ldp	x19, x20, [sp,#16]
    4cc4:	a9425bf5 	ldp	x21, x22, [sp,#32]
    4cc8:	a8c37bfd 	ldp	x29, x30, [sp],#48
/home/pedro/devel/optee/optee_os/lib/libutee/tee_user_mem.c:386
    4ccc:	17ffff4b 	b	49f8 <tee_user_mem_alloc>
buf_addr():
/home/pedro/devel/optee/optee_os/lib/libutee/tee_user_mem.c:132
    4cd0:	91008023 	add	x3, x1, #0x20
is_buffer_valid():
/home/pedro/devel/optee/optee_os/lib/libutee/tee_user_mem.c:153
    4cd4:	eb03001f 	cmp	x0, x3
    4cd8:	540000a0 	b.eq	4cec <tee_user_mem_realloc+0x64>
/home/pedro/devel/optee/optee_os/lib/libutee/tee_user_mem.c:152
    4cdc:	f9400021 	ldr	x1, [x1]
    4ce0:	17fffff5 	b	4cb4 <tee_user_mem_realloc+0x2c>
tee_user_mem_realloc():
/home/pedro/devel/optee/optee_os/lib/libutee/tee_user_mem.c:377
    4ce4:	d2800016 	mov	x22, #0x0                   	// #0
    4ce8:	14000012 	b	4d30 <tee_user_mem_realloc+0xa8>
buf_size():
/home/pedro/devel/optee/optee_os/lib/libutee/tee_user_mem.c:137
    4cec:	f85f0015 	ldur	x21, [x0,#-16]
tee_user_mem_realloc():
    4cf0:	aa0003f6 	mov	x22, x0
buf_size():
    4cf4:	d10086b5 	sub	x21, x21, #0x21
tee_user_mem_realloc():
/home/pedro/devel/optee/optee_os/lib/libutee/tee_user_mem.c:397
    4cf8:	eb15029f 	cmp	x20, x21
    4cfc:	540001a0 	b.eq	4d30 <tee_user_mem_realloc+0xa8>
/home/pedro/devel/optee/optee_os/lib/libutee/tee_user_mem.c:407
    4d00:	b9401821 	ldr	w1, [x1,#24]
    4d04:	aa0003f3 	mov	x19, x0
    4d08:	aa1403e0 	mov	x0, x20
    4d0c:	97ffff3b 	bl	49f8 <tee_user_mem_alloc>
    4d10:	aa0003f6 	mov	x22, x0
/home/pedro/devel/optee/optee_os/lib/libutee/tee_user_mem.c:408
    4d14:	b40000e0 	cbz	x0, 4d30 <tee_user_mem_realloc+0xa8>
/home/pedro/devel/optee/optee_os/lib/libutee/tee_user_mem.c:409
    4d18:	eb15029f 	cmp	x20, x21
    4d1c:	aa1303e1 	mov	x1, x19
    4d20:	9a959282 	csel	x2, x20, x21, ls
    4d24:	940006c0 	bl	6824 <memcpy>
/home/pedro/devel/optee/optee_os/lib/libutee/tee_user_mem.c:412
    4d28:	aa1303e0 	mov	x0, x19
    4d2c:	97ffff86 	bl	4b44 <tee_user_mem_free>
/home/pedro/devel/optee/optee_os/lib/libutee/tee_user_mem.c:417
    4d30:	aa1603e0 	mov	x0, x22
    4d34:	a94153f3 	ldp	x19, x20, [sp,#16]
    4d38:	a9425bf5 	ldp	x21, x22, [sp,#32]
    4d3c:	a8c37bfd 	ldp	x29, x30, [sp],#48
    4d40:	d65f03c0 	ret

0000000000004d44 <tee_user_mem_mark_heap>:
tee_user_mem_mark_heap():
/home/pedro/devel/optee/optee_os/lib/libutee/tee_user_mem.c:479
    4d44:	d0000080 	adrp	x0, 16000 <ta_heap+0x7cc0>
    4d48:	f901c81f 	str	xzr, [x0,#912]
    4d4c:	d65f03c0 	ret

0000000000004d50 <tee_user_mem_check_heap>:
tee_user_mem_check_heap():
/home/pedro/devel/optee/optee_os/lib/libutee/tee_user_mem.c:489
    4d50:	a9be7bfd 	stp	x29, x30, [sp,#-32]!
    4d54:	910003fd 	mov	x29, sp
    4d58:	a90153f3 	stp	x19, x20, [sp,#16]
/home/pedro/devel/optee/optee_os/lib/libutee/tee_user_mem.c:493
    4d5c:	d0000094 	adrp	x20, 16000 <ta_heap+0x7cc0>
    4d60:	f941ca93 	ldr	x19, [x20,#912]
    4d64:	b4000213 	cbz	x19, 4da4 <tee_user_mem_check_heap+0x54>
/home/pedro/devel/optee/optee_os/lib/libutee/tee_user_mem.c:494
    4d68:	f0000020 	adrp	x0, b000 <mpa_set_oct_str+0x7c>
    4d6c:	9116e000 	add	x0, x0, #0x5b8
    4d70:	aa1303e5 	mov	x5, x19
    4d74:	90000044 	adrp	x4, c000 <PRIME_TABLE+0x8a0>
    4d78:	52800023 	mov	w3, #0x1                   	// #1
    4d7c:	912b8084 	add	x4, x4, #0xae0
    4d80:	52800022 	mov	w2, #0x1                   	// #1
    4d84:	52803dc1 	mov	w1, #0x1ee                 	// #494
    4d88:	91014000 	add	x0, x0, #0x50
    4d8c:	94000a08 	bl	75ac <trace_printf>
/home/pedro/devel/optee/optee_os/lib/libutee/tee_user_mem.c:496
    4d90:	f941ca93 	ldr	x19, [x20,#912]
/home/pedro/devel/optee/optee_os/lib/libutee/tee_user_mem.c:503
    4d94:	aa1303e0 	mov	x0, x19
    4d98:	a94153f3 	ldp	x19, x20, [sp,#16]
    4d9c:	a8c27bfd 	ldp	x29, x30, [sp],#32
    4da0:	d65f03c0 	ret
is_mem_coherent():
/home/pedro/devel/optee/optee_os/lib/libutee/tee_user_mem.c:269
    4da4:	d0000040 	adrp	x0, e000 <modulus_dbstore>
    4da8:	f9418414 	ldr	x20, [x0,#776]
    4dac:	b4ffff54 	cbz	x20, 4d94 <tee_user_mem_check_heap+0x44>
/home/pedro/devel/optee/optee_os/lib/libutee/tee_user_mem.c:270
    4db0:	aa1403e0 	mov	x0, x20
    4db4:	97fffed0 	bl	48f4 <check_elem>
    4db8:	35000160 	cbnz	w0, 4de4 <tee_user_mem_check_heap+0x94>
/home/pedro/devel/optee/optee_os/lib/libutee/tee_user_mem.c:271
    4dbc:	f0000023 	adrp	x3, b000 <mpa_set_oct_str+0x7c>
    4dc0:	9116e063 	add	x3, x3, #0x5b8
    4dc4:	9101a063 	add	x3, x3, #0x68
    4dc8:	90000041 	adrp	x1, c000 <PRIME_TABLE+0x8a0>
    4dcc:	90000040 	adrp	x0, c000 <PRIME_TABLE+0x8a0>
    4dd0:	912bf421 	add	x1, x1, #0xafd
    4dd4:	9133dc00 	add	x0, x0, #0xcf7
    4dd8:	528021e2 	mov	w2, #0x10f                 	// #271
    4ddc:	94000022 	bl	4e64 <_assert_log>
    4de0:	94000032 	bl	4ea8 <_assert_break>
/home/pedro/devel/optee/optee_os/lib/libutee/tee_user_mem.c:269
    4de4:	f9400294 	ldr	x20, [x20]
    4de8:	17fffff1 	b	4dac <tee_user_mem_check_heap+0x5c>

0000000000004dec <tee_user_mem_garbage>:
tee_user_mem_garbage():
/home/pedro/devel/optee/optee_os/lib/libutee/tee_user_mem.c:538
    4dec:	a9bd7bfd 	stp	x29, x30, [sp,#-48]!
tee_user_mem_status():
/home/pedro/devel/optee/optee_os/lib/libutee/tee_user_mem.c:519
    4df0:	d0000040 	adrp	x0, e000 <modulus_dbstore>
tee_user_mem_garbage():
/home/pedro/devel/optee/optee_os/lib/libutee/tee_user_mem.c:538
    4df4:	910003fd 	mov	x29, sp
    4df8:	a90153f3 	stp	x19, x20, [sp,#16]
tee_user_mem_status():
/home/pedro/devel/optee/optee_os/lib/libutee/tee_user_mem.c:520
    4dfc:	f0000033 	adrp	x19, b000 <mpa_set_oct_str+0x7c>
tee_user_mem_garbage():
/home/pedro/devel/optee/optee_os/lib/libutee/tee_user_mem.c:538
    4e00:	a9025bf5 	stp	x21, x22, [sp,#32]
tee_user_mem_status():
/home/pedro/devel/optee/optee_os/lib/libutee/tee_user_mem.c:520
    4e04:	9116e273 	add	x19, x19, #0x5b8
/home/pedro/devel/optee/optee_os/lib/libutee/tee_user_mem.c:519
    4e08:	f9418415 	ldr	x21, [x0,#776]
/home/pedro/devel/optee/optee_os/lib/libutee/tee_user_mem.c:520
    4e0c:	90000056 	adrp	x22, c000 <PRIME_TABLE+0x8a0>
    4e10:	aa0003f4 	mov	x20, x0
    4e14:	912366d6 	add	x22, x22, #0x8d9
    4e18:	9101e273 	add	x19, x19, #0x78
/home/pedro/devel/optee/optee_os/lib/libutee/tee_user_mem.c:519
    4e1c:	b50000f5 	cbnz	x21, 4e38 <tee_user_mem_garbage+0x4c>
tee_user_mem_garbage():
/home/pedro/devel/optee/optee_os/lib/libutee/tee_user_mem.c:543
    4e20:	f9418680 	ldr	x0, [x20,#776]
    4e24:	b50001a0 	cbnz	x0, 4e58 <tee_user_mem_garbage+0x6c>
/home/pedro/devel/optee/optee_os/lib/libutee/tee_user_mem.c:545
    4e28:	a94153f3 	ldp	x19, x20, [sp,#16]
    4e2c:	a9425bf5 	ldp	x21, x22, [sp,#32]
    4e30:	a8c37bfd 	ldp	x29, x30, [sp],#48
    4e34:	d65f03c0 	ret
tee_user_mem_status():
/home/pedro/devel/optee/optee_os/lib/libutee/tee_user_mem.c:520
    4e38:	aa1503e4 	mov	x4, x21
    4e3c:	aa1603e3 	mov	x3, x22
    4e40:	52804102 	mov	w2, #0x208                 	// #520
    4e44:	aa1303e1 	mov	x1, x19
    4e48:	52800020 	mov	w0, #0x1                   	// #1
    4e4c:	97fffe94 	bl	489c <print_buf>
/home/pedro/devel/optee/optee_os/lib/libutee/tee_user_mem.c:519
    4e50:	f94002b5 	ldr	x21, [x21]
    4e54:	17fffff2 	b	4e1c <tee_user_mem_garbage+0x30>
tee_user_mem_garbage():
/home/pedro/devel/optee/optee_os/lib/libutee/tee_user_mem.c:544
    4e58:	91008000 	add	x0, x0, #0x20
    4e5c:	97ffff3a 	bl	4b44 <tee_user_mem_free>
    4e60:	17fffff0 	b	4e20 <tee_user_mem_garbage+0x34>

0000000000004e64 <_assert_log>:
_assert_log():
/home/pedro/devel/optee/optee_os/lib/libutee/assert.c:40
    4e64:	d10083ff 	sub	sp, sp, #0x20
/home/pedro/devel/optee/optee_os/lib/libutee/assert.c:41
    4e68:	2a0203e7 	mov	w7, w2
    4e6c:	aa0103e6 	mov	x6, x1
    4e70:	aa0003e5 	mov	x5, x0
    4e74:	52800022 	mov	w2, #0x1                   	// #1
    4e78:	52800001 	mov	w1, #0x0                   	// #0
/home/pedro/devel/optee/optee_os/lib/libutee/assert.c:40
    4e7c:	a9017bfd 	stp	x29, x30, [sp,#16]
    4e80:	910043fd 	add	x29, sp, #0x10
/home/pedro/devel/optee/optee_os/lib/libutee/assert.c:41
    4e84:	d2800000 	mov	x0, #0x0                   	// #0
    4e88:	90000044 	adrp	x4, c000 <PRIME_TABLE+0x8a0>
    4e8c:	912c6084 	add	x4, x4, #0xb18
    4e90:	f90003e3 	str	x3, [sp]
    4e94:	52800023 	mov	w3, #0x1                   	// #1
    4e98:	940009c5 	bl	75ac <trace_printf>
/home/pedro/devel/optee/optee_os/lib/libutee/assert.c:43
    4e9c:	a9417bfd 	ldp	x29, x30, [sp,#16]
    4ea0:	910083ff 	add	sp, sp, #0x20
    4ea4:	d65f03c0 	ret

0000000000004ea8 <_assert_break>:
_assert_break():
/home/pedro/devel/optee/optee_os/lib/libutee/assert.c:46
    4ea8:	a9bf7bfd 	stp	x29, x30, [sp,#-16]!
/home/pedro/devel/optee/optee_os/lib/libutee/assert.c:47
    4eac:	d2bfffe0 	mov	x0, #0xffff0000            	// #4294901760
/home/pedro/devel/optee/optee_os/lib/libutee/assert.c:46
    4eb0:	910003fd 	mov	x29, sp
/home/pedro/devel/optee/optee_os/lib/libutee/assert.c:47
    4eb4:	97fffda1 	bl	4538 <utee_panic>
    4eb8:	14000000 	b	4eb8 <_assert_break+0x10>

0000000000004ebc <_TEE_MathAPI_Init>:
_TEE_MathAPI_Init():
/home/pedro/devel/optee/optee_os/lib/libutee/tee_api_arith.c:79
    4ebc:	a9bf7bfd 	stp	x29, x30, [sp,#-16]!
/home/pedro/devel/optee/optee_os/lib/libutee/tee_api_arith.c:80
    4ec0:	52810002 	mov	w2, #0x800                 	// #2048
    4ec4:	d2836801 	mov	x1, #0x1b40                	// #6976
    4ec8:	d0000080 	adrp	x0, 16000 <ta_heap+0x7cc0>
/home/pedro/devel/optee/optee_os/lib/libutee/tee_api_arith.c:79
    4ecc:	910003fd 	mov	x29, sp
/home/pedro/devel/optee/optee_os/lib/libutee/tee_api_arith.c:80
    4ed0:	910ea000 	add	x0, x0, #0x3a8
    4ed4:	94001134 	bl	93a4 <mpa_init_scratch_mem>
/home/pedro/devel/optee/optee_os/lib/libutee/tee_api_arith.c:82
    4ed8:	b0000040 	adrp	x0, d000 <__func__.3637+0xb58>
/home/pedro/devel/optee/optee_os/lib/libutee/tee_api_arith.c:83
    4edc:	a8c17bfd 	ldp	x29, x30, [sp],#16
/home/pedro/devel/optee/optee_os/lib/libutee/tee_api_arith.c:82
    4ee0:	f9414000 	ldr	x0, [x0,#640]
    4ee4:	14001262 	b	986c <mpa_set_random_generator>

0000000000004ee8 <TEE_BigIntInit>:
TEE_BigIntInit():
/home/pedro/devel/optee/optee_os/lib/libutee/tee_api_arith.c:90
    4ee8:	140016d8 	b	aa48 <mpa_init_static>

0000000000004eec <TEE_BigIntInitFMM>:
TEE_BigIntInitFMM():
/home/pedro/devel/optee/optee_os/lib/libutee/tee_api_arith.c:100
    4eec:	531e7421 	lsl	w1, w1, #2
    4ef0:	51002021 	sub	w1, w1, #0x8
    4ef4:	d3427c21 	ubfx	x1, x1, #2, #30
/home/pedro/devel/optee/optee_os/lib/libutee/tee_api_arith.c:101
    4ef8:	29007c01 	stp	w1, wzr, [x0]
    4efc:	d65f03c0 	ret

0000000000004f00 <TEE_BigIntInitFMMContext>:
TEE_BigIntInitFMMContext():
/home/pedro/devel/optee/optee_os/lib/libutee/tee_api_arith.c:109
    4f00:	a9be7bfd 	stp	x29, x30, [sp,#-32]!
    4f04:	910003fd 	mov	x29, sp
    4f08:	a90153f3 	stp	x19, x20, [sp,#16]
    4f0c:	aa0003f3 	mov	x19, x0
    4f10:	aa0203f4 	mov	x20, x2
/home/pedro/devel/optee/optee_os/lib/libutee/tee_api_arith.c:113
    4f14:	940016d4 	bl	aa64 <mpa_init_static_fmm_context>
/home/pedro/devel/optee/optee_os/lib/libutee/tee_api_arith.c:114
    4f18:	91004263 	add	x3, x19, #0x10
    4f1c:	aa1403e0 	mov	x0, x20
    4f20:	a9400a61 	ldp	x1, x2, [x19]
    4f24:	d0000084 	adrp	x4, 16000 <ta_heap+0x7cc0>
/home/pedro/devel/optee/optee_os/lib/libutee/tee_api_arith.c:117
    4f28:	a94153f3 	ldp	x19, x20, [sp,#16]
/home/pedro/devel/optee/optee_os/lib/libutee/tee_api_arith.c:114
    4f2c:	910ea084 	add	x4, x4, #0x3a8
/home/pedro/devel/optee/optee_os/lib/libutee/tee_api_arith.c:117
    4f30:	a8c27bfd 	ldp	x29, x30, [sp],#32
/home/pedro/devel/optee/optee_os/lib/libutee/tee_api_arith.c:114
    4f34:	14000b25 	b	7bc8 <mpa_compute_fmm_context>

0000000000004f38 <TEE_BigIntFMMSizeInU32>:
TEE_BigIntFMMSizeInU32():
/home/pedro/devel/optee/optee_os/lib/libutee/tee_api_arith.c:128
    4f38:	11007c00 	add	w0, w0, #0x1f
    4f3c:	53057c00 	lsr	w0, w0, #5
/home/pedro/devel/optee/optee_os/lib/libutee/tee_api_arith.c:129
    4f40:	11000c00 	add	w0, w0, #0x3
    4f44:	d65f03c0 	ret

0000000000004f48 <TEE_BigIntFMMContextSizeInU32>:
TEE_BigIntFMMContextSizeInU32():
/home/pedro/devel/optee/optee_os/lib/libutee/tee_api_arith.c:136
    4f48:	11007c00 	add	w0, w0, #0x1f
    4f4c:	53057c00 	lsr	w0, w0, #5
    4f50:	11001c00 	add	w0, w0, #0x7
/home/pedro/devel/optee/optee_os/lib/libutee/tee_api_arith.c:137
    4f54:	531f7800 	lsl	w0, w0, #1
    4f58:	d65f03c0 	ret

0000000000004f5c <TEE_BigIntConvertFromOctetString>:
TEE_BigIntConvertFromOctetString():
/home/pedro/devel/optee/optee_os/lib/libutee/tee_api_arith.c:150
    4f5c:	a9bf7bfd 	stp	x29, x30, [sp,#-16]!
/home/pedro/devel/optee/optee_os/lib/libutee/tee_api_arith.c:155
    4f60:	531f7c63 	lsr	w3, w3, #31
    4f64:	2a0203e2 	mov	w2, w2
/home/pedro/devel/optee/optee_os/lib/libutee/tee_api_arith.c:150
    4f68:	910003fd 	mov	x29, sp
/home/pedro/devel/optee/optee_os/lib/libutee/tee_api_arith.c:155
    4f6c:	94001806 	bl	af84 <mpa_set_oct_str>
/home/pedro/devel/optee/optee_os/lib/libutee/tee_api_arith.c:156
    4f70:	7100001f 	cmp	w0, #0x0
/home/pedro/devel/optee/optee_os/lib/libutee/tee_api_arith.c:165
    4f74:	a8c17bfd 	ldp	x29, x30, [sp],#16
    4f78:	1299fe00 	mov	w0, #0xffff300f            	// #-53233
    4f7c:	1a9f1000 	csel	w0, w0, wzr, ne
    4f80:	d65f03c0 	ret

0000000000004f84 <TEE_BigIntConvertToOctetString>:
TEE_BigIntConvertToOctetString():
/home/pedro/devel/optee/optee_os/lib/libutee/tee_api_arith.c:173
    4f84:	a9bd7bfd 	stp	x29, x30, [sp,#-48]!
    4f88:	910003fd 	mov	x29, sp
    4f8c:	f9000bf3 	str	x19, [sp,#16]
    4f90:	aa0103f3 	mov	x19, x1
/home/pedro/devel/optee/optee_os/lib/libutee/tee_api_arith.c:175
    4f94:	9100c3a1 	add	x1, x29, #0x30
    4f98:	b9400263 	ldr	w3, [x19]
    4f9c:	f81f8c23 	str	x3, [x1,#-8]!
/home/pedro/devel/optee/optee_os/lib/libutee/tee_api_arith.c:178
    4fa0:	9400183d 	bl	b094 <mpa_get_oct_str>
/home/pedro/devel/optee/optee_os/lib/libutee/tee_api_arith.c:179
    4fa4:	7100001f 	cmp	w0, #0x0
/home/pedro/devel/optee/optee_os/lib/libutee/tee_api_arith.c:183
    4fa8:	f94017a0 	ldr	x0, [x29,#40]
    4fac:	b9000260 	str	w0, [x19]
/home/pedro/devel/optee/optee_os/lib/libutee/tee_api_arith.c:190
    4fb0:	f9400bf3 	ldr	x19, [sp,#16]
    4fb4:	129ffde0 	mov	w0, #0xffff0010            	// #-65520
    4fb8:	1a9f1000 	csel	w0, w0, wzr, ne
    4fbc:	a8c37bfd 	ldp	x29, x30, [sp],#48
    4fc0:	d65f03c0 	ret

0000000000004fc4 <TEE_BigIntConvertFromS32>:
TEE_BigIntConvertFromS32():
/home/pedro/devel/optee/optee_os/lib/libutee/tee_api_arith.c:200
    4fc4:	14000c5d 	b	8138 <mpa_set_S32>

0000000000004fc8 <TEE_BigIntConvertToS32>:
TEE_BigIntConvertToS32():
/home/pedro/devel/optee/optee_os/lib/libutee/tee_api_arith.c:210
    4fc8:	a9bf7bfd 	stp	x29, x30, [sp,#-16]!
    4fcc:	910003fd 	mov	x29, sp
/home/pedro/devel/optee/optee_os/lib/libutee/tee_api_arith.c:214
    4fd0:	94000c65 	bl	8164 <mpa_get_S32>
/home/pedro/devel/optee/optee_os/lib/libutee/tee_api_arith.c:215
    4fd4:	7100001f 	cmp	w0, #0x0
/home/pedro/devel/optee/optee_os/lib/libutee/tee_api_arith.c:224
    4fd8:	a8c17bfd 	ldp	x29, x30, [sp],#16
    4fdc:	1299fe00 	mov	w0, #0xffff300f            	// #-53233
    4fe0:	1a9f1000 	csel	w0, w0, wzr, ne
    4fe4:	d65f03c0 	ret

0000000000004fe8 <TEE_BigIntCmp>:
TEE_BigIntCmp():
/home/pedro/devel/optee/optee_os/lib/libutee/tee_api_arith.c:238
    4fe8:	140015ee 	b	a7a0 <mpa_cmp>

0000000000004fec <TEE_BigIntCmpS32>:
TEE_BigIntCmpS32():
/home/pedro/devel/optee/optee_os/lib/libutee/tee_api_arith.c:248
    4fec:	14001607 	b	a808 <mpa_cmp_short>

0000000000004ff0 <TEE_BigIntShiftRight>:
TEE_BigIntShiftRight():
/home/pedro/devel/optee/optee_os/lib/libutee/tee_api_arith.c:260
    4ff0:	14001325 	b	9c84 <mpa_shift_right>

0000000000004ff4 <TEE_BigIntGetBit>:
TEE_BigIntGetBit():
/home/pedro/devel/optee/optee_os/lib/libutee/tee_api_arith.c:267
    4ff4:	a9bf7bfd 	stp	x29, x30, [sp,#-16]!
    4ff8:	910003fd 	mov	x29, sp
/home/pedro/devel/optee/optee_os/lib/libutee/tee_api_arith.c:270
    4ffc:	94000a4a 	bl	7924 <mpa_get_bit>
    5000:	7100001f 	cmp	w0, #0x0
/home/pedro/devel/optee/optee_os/lib/libutee/tee_api_arith.c:271
    5004:	1a9f07e0 	cset	w0, ne
    5008:	a8c17bfd 	ldp	x29, x30, [sp],#16
    500c:	d65f03c0 	ret

0000000000005010 <TEE_BigIntGetBitCount>:
TEE_BigIntGetBitCount():
/home/pedro/devel/optee/optee_os/lib/libutee/tee_api_arith.c:277
    5010:	a9bf7bfd 	stp	x29, x30, [sp,#-16]!
    5014:	910003fd 	mov	x29, sp
/home/pedro/devel/optee/optee_os/lib/libutee/tee_api_arith.c:280
    5018:	94000a32 	bl	78e0 <mpa_highest_bit_index>
/home/pedro/devel/optee/optee_os/lib/libutee/tee_api_arith.c:281
    501c:	11000400 	add	w0, w0, #0x1
    5020:	a8c17bfd 	ldp	x29, x30, [sp],#16
    5024:	d65f03c0 	ret

0000000000005028 <TEE_BigIntAdd>:
TEE_BigIntAdd():
/home/pedro/devel/optee/optee_os/lib/libutee/tee_api_arith.c:297
    5028:	b0000083 	adrp	x3, 16000 <ta_heap+0x7cc0>
    502c:	910ea063 	add	x3, x3, #0x3a8
    5030:	1400142f 	b	a0ec <mpa_add>

0000000000005034 <TEE_BigIntSub>:
TEE_BigIntSub():
/home/pedro/devel/optee/optee_os/lib/libutee/tee_api_arith.c:310
    5034:	b0000083 	adrp	x3, 16000 <ta_heap+0x7cc0>
    5038:	910ea063 	add	x3, x3, #0x3a8
    503c:	14001491 	b	a280 <mpa_sub>

0000000000005040 <TEE_BigIntNeg>:
TEE_BigIntNeg():
/home/pedro/devel/optee/optee_os/lib/libutee/tee_api_arith.c:321
    5040:	140014f7 	b	a41c <mpa_neg>

0000000000005044 <TEE_BigIntMul>:
TEE_BigIntMul():
/home/pedro/devel/optee/optee_os/lib/libutee/tee_api_arith.c:334
    5044:	b0000083 	adrp	x3, 16000 <ta_heap+0x7cc0>
    5048:	910ea063 	add	x3, x3, #0x3a8
    504c:	1400119e 	b	96c4 <mpa_mul>

0000000000005050 <TEE_BigIntSquare>:
TEE_BigIntSquare():
/home/pedro/devel/optee/optee_os/lib/libutee/tee_api_arith.c:345
    5050:	b0000083 	adrp	x3, 16000 <ta_heap+0x7cc0>
    5054:	aa0103e2 	mov	x2, x1
    5058:	910ea063 	add	x3, x3, #0x3a8
    505c:	1400119a 	b	96c4 <mpa_mul>

0000000000005060 <TEE_BigIntDiv>:
TEE_BigIntDiv():
/home/pedro/devel/optee/optee_os/lib/libutee/tee_api_arith.c:353
    5060:	a9bd7bfd 	stp	x29, x30, [sp,#-48]!
    5064:	910003fd 	mov	x29, sp
    5068:	a90153f3 	stp	x19, x20, [sp,#16]
    506c:	aa0003f4 	mov	x20, x0
    5070:	a9025bf5 	stp	x21, x22, [sp,#32]
    5074:	aa0303f3 	mov	x19, x3
    5078:	aa0103f5 	mov	x21, x1
    507c:	aa0203f6 	mov	x22, x2
TEE_BigIntCmpS32():
/home/pedro/devel/optee/optee_os/lib/libutee/tee_api_arith.c:248
    5080:	52800001 	mov	w1, #0x0                   	// #0
    5084:	aa0303e0 	mov	x0, x3
    5088:	940015e0 	bl	a808 <mpa_cmp_short>
TEE_BigIntDiv():
/home/pedro/devel/optee/optee_os/lib/libutee/tee_api_arith.c:359
    508c:	35000080 	cbnz	w0, 509c <TEE_BigIntDiv+0x3c>
/home/pedro/devel/optee/optee_os/lib/libutee/tee_api_arith.c:360
    5090:	f0000020 	adrp	x0, c000 <PRIME_TABLE+0x8a0>
    5094:	912d2800 	add	x0, x0, #0xb4a
    5098:	9400012e 	bl	5550 <TEE_BigInt_Panic>
/home/pedro/devel/optee/optee_os/lib/libutee/tee_api_arith.c:362
    509c:	aa1303e3 	mov	x3, x19
    50a0:	aa1603e2 	mov	x2, x22
    50a4:	aa1503e1 	mov	x1, x21
    50a8:	aa1403e0 	mov	x0, x20
/home/pedro/devel/optee/optee_os/lib/libutee/tee_api_arith.c:363
    50ac:	a9425bf5 	ldp	x21, x22, [sp,#32]
/home/pedro/devel/optee/optee_os/lib/libutee/tee_api_arith.c:362
    50b0:	b0000084 	adrp	x4, 16000 <ta_heap+0x7cc0>
/home/pedro/devel/optee/optee_os/lib/libutee/tee_api_arith.c:363
    50b4:	a94153f3 	ldp	x19, x20, [sp,#16]
/home/pedro/devel/optee/optee_os/lib/libutee/tee_api_arith.c:362
    50b8:	910ea084 	add	x4, x4, #0x3a8
/home/pedro/devel/optee/optee_os/lib/libutee/tee_api_arith.c:363
    50bc:	a8c37bfd 	ldp	x29, x30, [sp],#48
/home/pedro/devel/optee/optee_os/lib/libutee/tee_api_arith.c:362
    50c0:	14000e59 	b	8a24 <mpa_div>

00000000000050c4 <TEE_BigIntMod>:
TEE_BigIntMod():
/home/pedro/devel/optee/optee_os/lib/libutee/tee_api_arith.c:374
    50c4:	a9bd7bfd 	stp	x29, x30, [sp,#-48]!
    50c8:	910003fd 	mov	x29, sp
    50cc:	a9025bf5 	stp	x21, x22, [sp,#32]
    50d0:	aa0103f6 	mov	x22, x1
    50d4:	a90153f3 	stp	x19, x20, [sp,#16]
    50d8:	aa0203f5 	mov	x21, x2
    50dc:	aa0003f4 	mov	x20, x0
TEE_BigIntCmpS32():
/home/pedro/devel/optee/optee_os/lib/libutee/tee_api_arith.c:248
    50e0:	52800041 	mov	w1, #0x2                   	// #2
    50e4:	aa0203e0 	mov	x0, x2
    50e8:	940015c8 	bl	a808 <mpa_cmp_short>
TEE_BigIntMod():
/home/pedro/devel/optee/optee_os/lib/libutee/tee_api_arith.c:379
    50ec:	36f80080 	tbz	w0, #31, 50fc <TEE_BigIntMod+0x38>
/home/pedro/devel/optee/optee_os/lib/libutee/tee_api_arith.c:380
    50f0:	f0000020 	adrp	x0, c000 <PRIME_TABLE+0x8a0>
    50f4:	912d6800 	add	x0, x0, #0xb5a
    50f8:	94000116 	bl	5550 <TEE_BigInt_Panic>
/home/pedro/devel/optee/optee_os/lib/libutee/tee_api_arith.c:382
    50fc:	b0000093 	adrp	x19, 16000 <ta_heap+0x7cc0>
    5100:	910ea273 	add	x19, x19, #0x3a8
    5104:	aa1303e3 	mov	x3, x19
    5108:	aa1503e2 	mov	x2, x21
    510c:	aa1603e1 	mov	x1, x22
    5110:	aa1403e0 	mov	x0, x20
    5114:	9400183d 	bl	b208 <mpa_mod>
/home/pedro/devel/optee/optee_os/lib/libutee/tee_api_arith.c:384
    5118:	52800001 	mov	w1, #0x0                   	// #0
    511c:	aa1403e0 	mov	x0, x20
    5120:	940015ba 	bl	a808 <mpa_cmp_short>
    5124:	36f80120 	tbz	w0, #31, 5148 <TEE_BigIntMod+0x84>
/home/pedro/devel/optee/optee_os/lib/libutee/tee_api_arith.c:385
    5128:	aa1303e3 	mov	x3, x19
    512c:	aa1503e2 	mov	x2, x21
    5130:	aa1403e1 	mov	x1, x20
    5134:	aa1403e0 	mov	x0, x20
/home/pedro/devel/optee/optee_os/lib/libutee/tee_api_arith.c:386
    5138:	a9425bf5 	ldp	x21, x22, [sp,#32]
    513c:	a94153f3 	ldp	x19, x20, [sp,#16]
    5140:	a8c37bfd 	ldp	x29, x30, [sp],#48
/home/pedro/devel/optee/optee_os/lib/libutee/tee_api_arith.c:385
    5144:	140013ea 	b	a0ec <mpa_add>
/home/pedro/devel/optee/optee_os/lib/libutee/tee_api_arith.c:386
    5148:	a94153f3 	ldp	x19, x20, [sp,#16]
    514c:	a9425bf5 	ldp	x21, x22, [sp,#32]
    5150:	a8c37bfd 	ldp	x29, x30, [sp],#48
    5154:	d65f03c0 	ret

0000000000005158 <TEE_BigIntAddMod>:
TEE_BigIntAddMod():
/home/pedro/devel/optee/optee_os/lib/libutee/tee_api_arith.c:393
    5158:	a9bc7bfd 	stp	x29, x30, [sp,#-64]!
    515c:	910003fd 	mov	x29, sp
    5160:	a9025bf5 	stp	x21, x22, [sp,#32]
    5164:	aa0103f6 	mov	x22, x1
    5168:	a90153f3 	stp	x19, x20, [sp,#16]
    516c:	aa0303f5 	mov	x21, x3
    5170:	f9001bf7 	str	x23, [sp,#48]
    5174:	aa0003f4 	mov	x20, x0
TEE_BigIntCmpS32():
/home/pedro/devel/optee/optee_os/lib/libutee/tee_api_arith.c:248
    5178:	52800041 	mov	w1, #0x2                   	// #2
    517c:	aa0303e0 	mov	x0, x3
TEE_BigIntAddMod():
/home/pedro/devel/optee/optee_os/lib/libutee/tee_api_arith.c:393
    5180:	aa0203f7 	mov	x23, x2
TEE_BigIntCmpS32():
/home/pedro/devel/optee/optee_os/lib/libutee/tee_api_arith.c:248
    5184:	940015a1 	bl	a808 <mpa_cmp_short>
TEE_BigIntAddMod():
/home/pedro/devel/optee/optee_os/lib/libutee/tee_api_arith.c:399
    5188:	36f80080 	tbz	w0, #31, 5198 <TEE_BigIntAddMod+0x40>
/home/pedro/devel/optee/optee_os/lib/libutee/tee_api_arith.c:400
    518c:	f0000020 	adrp	x0, c000 <PRIME_TABLE+0x8a0>
    5190:	912d6800 	add	x0, x0, #0xb5a
    5194:	940000ef 	bl	5550 <TEE_BigInt_Panic>
/home/pedro/devel/optee/optee_os/lib/libutee/tee_api_arith.c:402
    5198:	b0000093 	adrp	x19, 16000 <ta_heap+0x7cc0>
    519c:	910ea273 	add	x19, x19, #0x3a8
    51a0:	aa1303e4 	mov	x4, x19
    51a4:	aa1503e3 	mov	x3, x21
    51a8:	aa1703e2 	mov	x2, x23
    51ac:	aa1603e1 	mov	x1, x22
    51b0:	aa1403e0 	mov	x0, x20
    51b4:	9400181b 	bl	b220 <mpa_add_mod>
/home/pedro/devel/optee/optee_os/lib/libutee/tee_api_arith.c:403
    51b8:	52800001 	mov	w1, #0x0                   	// #0
    51bc:	aa1403e0 	mov	x0, x20
    51c0:	94001592 	bl	a808 <mpa_cmp_short>
    51c4:	36f80140 	tbz	w0, #31, 51ec <TEE_BigIntAddMod+0x94>
/home/pedro/devel/optee/optee_os/lib/libutee/tee_api_arith.c:404
    51c8:	aa1303e3 	mov	x3, x19
    51cc:	aa1503e2 	mov	x2, x21
    51d0:	aa1403e1 	mov	x1, x20
    51d4:	aa1403e0 	mov	x0, x20
/home/pedro/devel/optee/optee_os/lib/libutee/tee_api_arith.c:405
    51d8:	a9425bf5 	ldp	x21, x22, [sp,#32]
    51dc:	a94153f3 	ldp	x19, x20, [sp,#16]
    51e0:	f9401bf7 	ldr	x23, [sp,#48]
    51e4:	a8c47bfd 	ldp	x29, x30, [sp],#64
/home/pedro/devel/optee/optee_os/lib/libutee/tee_api_arith.c:404
    51e8:	140013c1 	b	a0ec <mpa_add>
/home/pedro/devel/optee/optee_os/lib/libutee/tee_api_arith.c:405
    51ec:	a94153f3 	ldp	x19, x20, [sp,#16]
    51f0:	a9425bf5 	ldp	x21, x22, [sp,#32]
    51f4:	f9401bf7 	ldr	x23, [sp,#48]
    51f8:	a8c47bfd 	ldp	x29, x30, [sp],#64
    51fc:	d65f03c0 	ret

0000000000005200 <TEE_BigIntSubMod>:
TEE_BigIntSubMod():
/home/pedro/devel/optee/optee_os/lib/libutee/tee_api_arith.c:412
    5200:	a9bc7bfd 	stp	x29, x30, [sp,#-64]!
    5204:	910003fd 	mov	x29, sp
    5208:	a9025bf5 	stp	x21, x22, [sp,#32]
    520c:	aa0103f6 	mov	x22, x1
    5210:	a90153f3 	stp	x19, x20, [sp,#16]
    5214:	aa0303f5 	mov	x21, x3
    5218:	f9001bf7 	str	x23, [sp,#48]
    521c:	aa0003f4 	mov	x20, x0
TEE_BigIntCmpS32():
/home/pedro/devel/optee/optee_os/lib/libutee/tee_api_arith.c:248
    5220:	52800041 	mov	w1, #0x2                   	// #2
    5224:	aa0303e0 	mov	x0, x3
TEE_BigIntSubMod():
/home/pedro/devel/optee/optee_os/lib/libutee/tee_api_arith.c:412
    5228:	aa0203f7 	mov	x23, x2
TEE_BigIntCmpS32():
/home/pedro/devel/optee/optee_os/lib/libutee/tee_api_arith.c:248
    522c:	94001577 	bl	a808 <mpa_cmp_short>
TEE_BigIntSubMod():
/home/pedro/devel/optee/optee_os/lib/libutee/tee_api_arith.c:418
    5230:	36f80080 	tbz	w0, #31, 5240 <TEE_BigIntSubMod+0x40>
/home/pedro/devel/optee/optee_os/lib/libutee/tee_api_arith.c:419
    5234:	f0000020 	adrp	x0, c000 <PRIME_TABLE+0x8a0>
    5238:	912d6800 	add	x0, x0, #0xb5a
    523c:	940000c5 	bl	5550 <TEE_BigInt_Panic>
/home/pedro/devel/optee/optee_os/lib/libutee/tee_api_arith.c:421
    5240:	b0000093 	adrp	x19, 16000 <ta_heap+0x7cc0>
    5244:	910ea273 	add	x19, x19, #0x3a8
    5248:	aa1303e4 	mov	x4, x19
    524c:	aa1503e3 	mov	x3, x21
    5250:	aa1703e2 	mov	x2, x23
    5254:	aa1603e1 	mov	x1, x22
    5258:	aa1403e0 	mov	x0, x20
    525c:	94001812 	bl	b2a4 <mpa_sub_mod>
/home/pedro/devel/optee/optee_os/lib/libutee/tee_api_arith.c:422
    5260:	52800001 	mov	w1, #0x0                   	// #0
    5264:	aa1403e0 	mov	x0, x20
    5268:	94001568 	bl	a808 <mpa_cmp_short>
    526c:	36f80140 	tbz	w0, #31, 5294 <TEE_BigIntSubMod+0x94>
/home/pedro/devel/optee/optee_os/lib/libutee/tee_api_arith.c:423
    5270:	aa1303e3 	mov	x3, x19
    5274:	aa1503e2 	mov	x2, x21
    5278:	aa1403e1 	mov	x1, x20
    527c:	aa1403e0 	mov	x0, x20
/home/pedro/devel/optee/optee_os/lib/libutee/tee_api_arith.c:424
    5280:	a9425bf5 	ldp	x21, x22, [sp,#32]
    5284:	a94153f3 	ldp	x19, x20, [sp,#16]
    5288:	f9401bf7 	ldr	x23, [sp,#48]
    528c:	a8c47bfd 	ldp	x29, x30, [sp],#64
/home/pedro/devel/optee/optee_os/lib/libutee/tee_api_arith.c:423
    5290:	14001397 	b	a0ec <mpa_add>
/home/pedro/devel/optee/optee_os/lib/libutee/tee_api_arith.c:424
    5294:	a94153f3 	ldp	x19, x20, [sp,#16]
    5298:	a9425bf5 	ldp	x21, x22, [sp,#32]
    529c:	f9401bf7 	ldr	x23, [sp,#48]
    52a0:	a8c47bfd 	ldp	x29, x30, [sp],#64
    52a4:	d65f03c0 	ret

00000000000052a8 <TEE_BigIntMulMod>:
TEE_BigIntMulMod():
/home/pedro/devel/optee/optee_os/lib/libutee/tee_api_arith.c:431
    52a8:	a9ba7bfd 	stp	x29, x30, [sp,#-96]!
    52ac:	910003fd 	mov	x29, sp
    52b0:	a90363f7 	stp	x23, x24, [sp,#48]
    52b4:	aa0003f7 	mov	x23, x0
    52b8:	a90153f3 	stp	x19, x20, [sp,#16]
    52bc:	aa0103f8 	mov	x24, x1
    52c0:	f90023f9 	str	x25, [sp,#64]
    52c4:	aa0303f4 	mov	x20, x3
    52c8:	a9025bf5 	stp	x21, x22, [sp,#32]
TEE_BigIntCmpS32():
/home/pedro/devel/optee/optee_os/lib/libutee/tee_api_arith.c:248
    52cc:	52800041 	mov	w1, #0x2                   	// #2
    52d0:	aa0303e0 	mov	x0, x3
TEE_BigIntMulMod():
/home/pedro/devel/optee/optee_os/lib/libutee/tee_api_arith.c:431
    52d4:	aa0203f9 	mov	x25, x2
TEE_BigIntCmpS32():
/home/pedro/devel/optee/optee_os/lib/libutee/tee_api_arith.c:248
    52d8:	9400154c 	bl	a808 <mpa_cmp_short>
TEE_BigIntMulMod():
/home/pedro/devel/optee/optee_os/lib/libutee/tee_api_arith.c:438
    52dc:	36f80080 	tbz	w0, #31, 52ec <TEE_BigIntMulMod+0x44>
/home/pedro/devel/optee/optee_os/lib/libutee/tee_api_arith.c:439
    52e0:	f0000020 	adrp	x0, c000 <PRIME_TABLE+0x8a0>
    52e4:	912d6800 	add	x0, x0, #0xb5a
    52e8:	9400009a 	bl	5550 <TEE_BigInt_Panic>
/home/pedro/devel/optee/optee_os/lib/libutee/tee_api_arith.c:449
    52ec:	b0000093 	adrp	x19, 16000 <ta_heap+0x7cc0>
    52f0:	910163b6 	add	x22, x29, #0x58
    52f4:	910ea275 	add	x21, x19, #0x3a8
    52f8:	aa1603e0 	mov	x0, x22
    52fc:	aa1503e1 	mov	x1, x21
    5300:	94001069 	bl	94a4 <mpa_alloc_static_temp_var>
/home/pedro/devel/optee/optee_os/lib/libutee/tee_api_arith.c:450
    5304:	f9402fa0 	ldr	x0, [x29,#88]
    5308:	aa1803e1 	mov	x1, x24
    530c:	aa1503e4 	mov	x4, x21
    5310:	aa1403e3 	mov	x3, x20
    5314:	aa1903e2 	mov	x2, x25
    5318:	94001804 	bl	b328 <mpa_mul_mod>
/home/pedro/devel/optee/optee_os/lib/libutee/tee_api_arith.c:451
    531c:	f9402fa0 	ldr	x0, [x29,#88]
    5320:	52800001 	mov	w1, #0x0                   	// #0
    5324:	94001539 	bl	a808 <mpa_cmp_short>
    5328:	36f800c0 	tbz	w0, #31, 5340 <TEE_BigIntMulMod+0x98>
/home/pedro/devel/optee/optee_os/lib/libutee/tee_api_arith.c:452
    532c:	f9402fa1 	ldr	x1, [x29,#88]
    5330:	aa1503e3 	mov	x3, x21
    5334:	aa1403e2 	mov	x2, x20
    5338:	aa0103e0 	mov	x0, x1
    533c:	9400136c 	bl	a0ec <mpa_add>
/home/pedro/devel/optee/optee_os/lib/libutee/tee_api_arith.c:453
    5340:	f9402fa1 	ldr	x1, [x29,#88]
    5344:	aa1703e0 	mov	x0, x23
    5348:	94000945 	bl	785c <mpa_copy>
/home/pedro/devel/optee/optee_os/lib/libutee/tee_api_arith.c:454
    534c:	910ea261 	add	x1, x19, #0x3a8
    5350:	aa1603e0 	mov	x0, x22
    5354:	94001058 	bl	94b4 <mpa_free_static_temp_var>
/home/pedro/devel/optee/optee_os/lib/libutee/tee_api_arith.c:455
    5358:	f94023f9 	ldr	x25, [sp,#64]
    535c:	a94153f3 	ldp	x19, x20, [sp,#16]
    5360:	a9425bf5 	ldp	x21, x22, [sp,#32]
    5364:	a94363f7 	ldp	x23, x24, [sp,#48]
    5368:	a8c67bfd 	ldp	x29, x30, [sp],#96
    536c:	d65f03c0 	ret

0000000000005370 <TEE_BigIntSquareMod>:
TEE_BigIntSquareMod():
/home/pedro/devel/optee/optee_os/lib/libutee/tee_api_arith.c:463
    5370:	aa0203e3 	mov	x3, x2
    5374:	aa0103e2 	mov	x2, x1
    5378:	17ffffcc 	b	52a8 <TEE_BigIntMulMod>

000000000000537c <TEE_BigIntInvMod>:
TEE_BigIntInvMod():
/home/pedro/devel/optee/optee_os/lib/libutee/tee_api_arith.c:471
    537c:	a9bd7bfd 	stp	x29, x30, [sp,#-48]!
    5380:	910003fd 	mov	x29, sp
    5384:	a90153f3 	stp	x19, x20, [sp,#16]
    5388:	aa0103f3 	mov	x19, x1
    538c:	f90013f5 	str	x21, [sp,#32]
    5390:	aa0203f4 	mov	x20, x2
    5394:	aa0003f5 	mov	x21, x0
TEE_BigIntCmpS32():
/home/pedro/devel/optee/optee_os/lib/libutee/tee_api_arith.c:248
    5398:	52800041 	mov	w1, #0x2                   	// #2
    539c:	aa0203e0 	mov	x0, x2
    53a0:	9400151a 	bl	a808 <mpa_cmp_short>
TEE_BigIntInvMod():
/home/pedro/devel/optee/optee_os/lib/libutee/tee_api_arith.c:476
    53a4:	36f80080 	tbz	w0, #31, 53b4 <TEE_BigIntInvMod+0x38>
/home/pedro/devel/optee/optee_os/lib/libutee/tee_api_arith.c:477
    53a8:	f0000020 	adrp	x0, c000 <PRIME_TABLE+0x8a0>
    53ac:	912dbc00 	add	x0, x0, #0xb6f
    53b0:	94000068 	bl	5550 <TEE_BigInt_Panic>
TEE_BigIntCmpS32():
/home/pedro/devel/optee/optee_os/lib/libutee/tee_api_arith.c:248
    53b4:	52800001 	mov	w1, #0x0                   	// #0
    53b8:	aa1303e0 	mov	x0, x19
    53bc:	94001513 	bl	a808 <mpa_cmp_short>
TEE_BigIntInvMod():
/home/pedro/devel/optee/optee_os/lib/libutee/tee_api_arith.c:476
    53c0:	34ffff40 	cbz	w0, 53a8 <TEE_BigIntInvMod+0x2c>
/home/pedro/devel/optee/optee_os/lib/libutee/tee_api_arith.c:479
    53c4:	aa1403e2 	mov	x2, x20
    53c8:	aa1303e1 	mov	x1, x19
    53cc:	aa1503e0 	mov	x0, x21
/home/pedro/devel/optee/optee_os/lib/libutee/tee_api_arith.c:480
    53d0:	f94013f5 	ldr	x21, [sp,#32]
    53d4:	a94153f3 	ldp	x19, x20, [sp,#16]
/home/pedro/devel/optee/optee_os/lib/libutee/tee_api_arith.c:479
    53d8:	b0000083 	adrp	x3, 16000 <ta_heap+0x7cc0>
/home/pedro/devel/optee/optee_os/lib/libutee/tee_api_arith.c:480
    53dc:	a8c37bfd 	ldp	x29, x30, [sp],#48
/home/pedro/devel/optee/optee_os/lib/libutee/tee_api_arith.c:479
    53e0:	910ea063 	add	x3, x3, #0x3a8
    53e4:	140017f2 	b	b3ac <mpa_inv_mod>

00000000000053e8 <TEE_BigIntRelativePrime>:
TEE_BigIntRelativePrime():
/home/pedro/devel/optee/optee_os/lib/libutee/tee_api_arith.c:490
    53e8:	a9bc7bfd 	stp	x29, x30, [sp,#-64]!
    53ec:	910003fd 	mov	x29, sp
    53f0:	a90153f3 	stp	x19, x20, [sp,#16]
/home/pedro/devel/optee/optee_os/lib/libutee/tee_api_arith.c:496
    53f4:	9100e3b4 	add	x20, x29, #0x38
    53f8:	b0000093 	adrp	x19, 16000 <ta_heap+0x7cc0>
    53fc:	910ea273 	add	x19, x19, #0x3a8
/home/pedro/devel/optee/optee_os/lib/libutee/tee_api_arith.c:490
    5400:	a9025bf5 	stp	x21, x22, [sp,#32]
    5404:	aa0003f5 	mov	x21, x0
    5408:	aa0103f6 	mov	x22, x1
/home/pedro/devel/optee/optee_os/lib/libutee/tee_api_arith.c:496
    540c:	aa1403e0 	mov	x0, x20
    5410:	aa1303e1 	mov	x1, x19
    5414:	94001024 	bl	94a4 <mpa_alloc_static_temp_var>
/home/pedro/devel/optee/optee_os/lib/libutee/tee_api_arith.c:498
    5418:	f9401fa0 	ldr	x0, [x29,#56]
    541c:	aa1303e3 	mov	x3, x19
    5420:	aa1603e2 	mov	x2, x22
    5424:	aa1503e1 	mov	x1, x21
    5428:	94000f16 	bl	9080 <mpa_gcd>
/home/pedro/devel/optee/optee_os/lib/libutee/tee_api_arith.c:499
    542c:	f9401fa0 	ldr	x0, [x29,#56]
    5430:	52800021 	mov	w1, #0x1                   	// #1
    5434:	940014f5 	bl	a808 <mpa_cmp_short>
    5438:	2a0003f5 	mov	w21, w0
/home/pedro/devel/optee/optee_os/lib/libutee/tee_api_arith.c:501
    543c:	aa1303e1 	mov	x1, x19
    5440:	aa1403e0 	mov	x0, x20
    5444:	9400101c 	bl	94b4 <mpa_free_static_temp_var>
/home/pedro/devel/optee/optee_os/lib/libutee/tee_api_arith.c:503
    5448:	710002bf 	cmp	w21, #0x0
/home/pedro/devel/optee/optee_os/lib/libutee/tee_api_arith.c:504
    544c:	a94153f3 	ldp	x19, x20, [sp,#16]
    5450:	1a9f17e0 	cset	w0, eq
    5454:	a9425bf5 	ldp	x21, x22, [sp,#32]
    5458:	a8c47bfd 	ldp	x29, x30, [sp],#64
    545c:	d65f03c0 	ret

0000000000005460 <TEE_BigIntComputeExtendedGcd>:
TEE_BigIntComputeExtendedGcd():
/home/pedro/devel/optee/optee_os/lib/libutee/tee_api_arith.c:519
    5460:	b0000085 	adrp	x5, 16000 <ta_heap+0x7cc0>
    5464:	910ea0a5 	add	x5, x5, #0x3a8
    5468:	14000f4e 	b	91a0 <mpa_extended_gcd>

000000000000546c <TEE_BigIntIsProbablePrime>:
TEE_BigIntIsProbablePrime():
/home/pedro/devel/optee/optee_os/lib/libutee/tee_api_arith.c:527
    546c:	7104003f 	cmp	w1, #0x100
    5470:	52802002 	mov	w2, #0x100                 	// #256
    5474:	1a829021 	csel	w1, w1, w2, ls
/home/pedro/devel/optee/optee_os/lib/libutee/tee_api_arith.c:536
    5478:	52800a03 	mov	w3, #0x50                  	// #80
    547c:	7101403f 	cmp	w1, #0x50
    5480:	b0000082 	adrp	x2, 16000 <ta_heap+0x7cc0>
    5484:	1a832021 	csel	w1, w1, w3, cs
    5488:	910ea042 	add	x2, x2, #0x3a8
    548c:	14000a40 	b	7d8c <mpa_is_prob_prime>

0000000000005490 <TEE_BigIntConvertToFMM>:
TEE_BigIntConvertToFMM():
/home/pedro/devel/optee/optee_os/lib/libutee/tee_api_arith.c:550
    5490:	aa0303e6 	mov	x6, x3
/home/pedro/devel/optee/optee_os/lib/libutee/tee_api_arith.c:557
    5494:	aa0203e3 	mov	x3, x2
    5498:	b0000085 	adrp	x5, 16000 <ta_heap+0x7cc0>
    549c:	910ea0a5 	add	x5, x5, #0x3a8
    54a0:	b94010c4 	ldr	w4, [x6,#16]
    54a4:	f94004c2 	ldr	x2, [x6,#8]
    54a8:	14000a17 	b	7d04 <mpa_montgomery_mul>

00000000000054ac <TEE_BigIntConvertFromFMM>:
TEE_BigIntConvertFromFMM():
/home/pedro/devel/optee/optee_os/lib/libutee/tee_api_arith.c:568
    54ac:	a9ba7bfd 	stp	x29, x30, [sp,#-96]!
    54b0:	910003fd 	mov	x29, sp
    54b4:	a90153f3 	stp	x19, x20, [sp,#16]
/home/pedro/devel/optee/optee_os/lib/libutee/tee_api_arith.c:580
    54b8:	b0000093 	adrp	x19, 16000 <ta_heap+0x7cc0>
    54bc:	910ea273 	add	x19, x19, #0x3a8
/home/pedro/devel/optee/optee_os/lib/libutee/tee_api_arith.c:568
    54c0:	a90363f7 	stp	x23, x24, [sp,#48]
    54c4:	aa0103f7 	mov	x23, x1
/home/pedro/devel/optee/optee_os/lib/libutee/tee_api_arith.c:580
    54c8:	aa1303e1 	mov	x1, x19
    54cc:	910163b4 	add	x20, x29, #0x58
/home/pedro/devel/optee/optee_os/lib/libutee/tee_api_arith.c:568
    54d0:	f90023f9 	str	x25, [sp,#64]
    54d4:	aa0303f9 	mov	x25, x3
    54d8:	a9025bf5 	stp	x21, x22, [sp,#32]
    54dc:	aa0203f8 	mov	x24, x2
    54e0:	aa0003f5 	mov	x21, x0
/home/pedro/devel/optee/optee_os/lib/libutee/tee_api_arith.c:580
    54e4:	aa1403e0 	mov	x0, x20
    54e8:	94000fef 	bl	94a4 <mpa_alloc_static_temp_var>
/home/pedro/devel/optee/optee_os/lib/libutee/tee_api_arith.c:583
    54ec:	f9402fb6 	ldr	x22, [x29,#88]
    54f0:	94000928 	bl	7990 <mpa_constant_one>
    54f4:	b9401324 	ldr	w4, [x25,#16]
    54f8:	aa1303e5 	mov	x5, x19
    54fc:	aa1803e3 	mov	x3, x24
    5500:	aa1703e2 	mov	x2, x23
    5504:	aa0003e1 	mov	x1, x0
    5508:	aa1603e0 	mov	x0, x22
    550c:	940009fe 	bl	7d04 <mpa_montgomery_mul>
/home/pedro/devel/optee/optee_os/lib/libutee/tee_api_arith.c:586
    5510:	f9402fa1 	ldr	x1, [x29,#88]
    5514:	aa1503e0 	mov	x0, x21
    5518:	940008d1 	bl	785c <mpa_copy>
/home/pedro/devel/optee/optee_os/lib/libutee/tee_api_arith.c:587
    551c:	aa1303e1 	mov	x1, x19
    5520:	aa1403e0 	mov	x0, x20
    5524:	94000fe4 	bl	94b4 <mpa_free_static_temp_var>
/home/pedro/devel/optee/optee_os/lib/libutee/tee_api_arith.c:588
    5528:	f94023f9 	ldr	x25, [sp,#64]
    552c:	a94153f3 	ldp	x19, x20, [sp,#16]
    5530:	a9425bf5 	ldp	x21, x22, [sp,#32]
    5534:	a94363f7 	ldp	x23, x24, [sp,#48]
    5538:	a8c67bfd 	ldp	x29, x30, [sp],#96
    553c:	d65f03c0 	ret

0000000000005540 <TEE_BigIntComputeFMM>:
TEE_BigIntComputeFMM():
/home/pedro/devel/optee/optee_os/lib/libutee/tee_api_arith.c:605
    5540:	b9401084 	ldr	w4, [x4,#16]
    5544:	b0000085 	adrp	x5, 16000 <ta_heap+0x7cc0>
    5548:	910ea0a5 	add	x5, x5, #0x3a8
    554c:	140009ee 	b	7d04 <mpa_montgomery_mul>

0000000000005550 <TEE_BigInt_Panic>:
TEE_BigInt_Panic():
/home/pedro/devel/optee/optee_os/lib/libutee/tee_api_arith.c:64
    5550:	a9bf7bfd 	stp	x29, x30, [sp,#-16]!
/home/pedro/devel/optee/optee_os/lib/libutee/tee_api_arith.c:65
    5554:	aa0003e1 	mov	x1, x0
    5558:	f0000020 	adrp	x0, c000 <PRIME_TABLE+0x8a0>
    555c:	912cfc00 	add	x0, x0, #0xb3f
/home/pedro/devel/optee/optee_os/lib/libutee/tee_api_arith.c:64
    5560:	910003fd 	mov	x29, sp
/home/pedro/devel/optee/optee_os/lib/libutee/tee_api_arith.c:65
    5564:	94000018 	bl	55c4 <printf>
/home/pedro/devel/optee/optee_os/lib/libutee/tee_api_arith.c:66
    5568:	528c24e0 	mov	w0, #0x6127                	// #24871
    556c:	72a01620 	movk	w0, #0xb1, lsl #16
    5570:	97fffb42 	bl	4278 <TEE_Panic>
    5574:	14000000 	b	5574 <TEE_BigInt_Panic+0x24>

0000000000005578 <utee_get_ta_exec_id>:
utee_get_ta_exec_id():
/home/pedro/devel/optee/optee_os/lib/libutee/arch/arm/utee_misc.c:40
    5578:	52800000 	mov	w0, #0x0                   	// #0
    557c:	d65f03c0 	ret

0000000000005580 <utee_malloc>:
utee_malloc():
/home/pedro/devel/optee/optee_os/lib/libutee/arch/arm/utee_misc.c:45
    5580:	1400029a 	b	5fe8 <malloc>

0000000000005584 <utee_realloc>:
utee_realloc():
/home/pedro/devel/optee/optee_os/lib/libutee/arch/arm/utee_misc.c:50
    5584:	140002bd 	b	6078 <realloc>

0000000000005588 <utee_calloc>:
utee_calloc():
/home/pedro/devel/optee/optee_os/lib/libutee/arch/arm/utee_misc.c:55
    5588:	140002a9 	b	602c <calloc>

000000000000558c <utee_free>:
utee_free():
/home/pedro/devel/optee/optee_os/lib/libutee/arch/arm/utee_misc.c:60
    558c:	140002a5 	b	6020 <free>

0000000000005590 <get_rng_array>:
get_rng_array():
/home/pedro/devel/optee/optee_os/lib/libutee/arch/arm/utee_misc.c:72
    5590:	17fffc50 	b	46d0 <utee_cryp_random_number_generate>

0000000000005594 <trace_ext_puts>:
trace_ext_puts():
/home/pedro/devel/optee/optee_os/lib/libutee/trace_ext.c:40
    5594:	a9be7bfd 	stp	x29, x30, [sp,#-32]!
    5598:	910003fd 	mov	x29, sp
    559c:	f9000bf3 	str	x19, [sp,#16]
    55a0:	aa0003f3 	mov	x19, x0
/home/pedro/devel/optee/optee_os/lib/libutee/trace_ext.c:41
    55a4:	940004c2 	bl	68ac <strlen>
    55a8:	aa0003e1 	mov	x1, x0
    55ac:	aa1303e0 	mov	x0, x19
/home/pedro/devel/optee/optee_os/lib/libutee/trace_ext.c:42
    55b0:	f9400bf3 	ldr	x19, [sp,#16]
    55b4:	a8c27bfd 	ldp	x29, x30, [sp],#32
/home/pedro/devel/optee/optee_os/lib/libutee/trace_ext.c:41
    55b8:	17fffbe6 	b	4550 <utee_log>

00000000000055bc <trace_ext_get_thread_id>:
trace_ext_get_thread_id():
/home/pedro/devel/optee/optee_os/lib/libutee/trace_ext.c:47
    55bc:	12800000 	mov	w0, #0xffffffff            	// #-1
    55c0:	d65f03c0 	ret

00000000000055c4 <printf>:
printf():
/home/pedro/devel/optee/optee_os/lib/libutee/trace_ext.c:55
    55c4:	d10883ff 	sub	sp, sp, #0x220
    55c8:	a9007bfd 	stp	x29, x30, [sp]
    55cc:	910003fd 	mov	x29, sp
    55d0:	a90153f3 	stp	x19, x20, [sp,#16]
    55d4:	aa0003f3 	mov	x19, x0
    55d8:	910403a0 	add	x0, x29, #0x100
    55dc:	a91e8ba1 	stp	x1, x2, [x29,#488]
    55e0:	a91f93a3 	stp	x3, x4, [x29,#504]
    55e4:	f90107a5 	str	x5, [x29,#520]
    55e8:	f9010ba6 	str	x6, [x29,#528]
    55ec:	f9010fa7 	str	x7, [x29,#536]
    55f0:	3d801800 	str	q0, [x0,#96]
    55f4:	3d801c01 	str	q1, [x0,#112]
    55f8:	3d802002 	str	q2, [x0,#128]
    55fc:	3d802403 	str	q3, [x0,#144]
    5600:	3d802804 	str	q4, [x0,#160]
    5604:	3d802c05 	str	q5, [x0,#176]
    5608:	3d803006 	str	q6, [x0,#192]
    560c:	3d803407 	str	q7, [x0,#208]
/home/pedro/devel/optee/optee_os/lib/libutee/trace_ext.c:60
    5610:	940007e3 	bl	759c <trace_get_level>
    5614:	7100001f 	cmp	w0, #0x0
    5618:	5400038d 	b.le	5688 <printf+0xc4>
/home/pedro/devel/optee/optee_os/lib/libutee/trace_ext.c:63
    561c:	910883a0 	add	x0, x29, #0x220
    5620:	a90403a0 	stp	x0, x0, [x29,#64]
    5624:	910783a0 	add	x0, x29, #0x1e0
    5628:	f9002ba0 	str	x0, [x29,#80]
    562c:	128006e0 	mov	w0, #0xffffffc8            	// #-56
    5630:	b9005ba0 	str	w0, [x29,#88]
    5634:	12800fe0 	mov	w0, #0xffffff80            	// #-128
    5638:	b9005fa0 	str	w0, [x29,#92]
/home/pedro/devel/optee/optee_os/lib/libutee/trace_ext.c:64
    563c:	a94407a0 	ldp	x0, x1, [x29,#64]
    5640:	a90207a0 	stp	x0, x1, [x29,#32]
    5644:	a94507a0 	ldp	x0, x1, [x29,#80]
    5648:	910183b4 	add	x20, x29, #0x60
    564c:	a90307a0 	stp	x0, x1, [x29,#48]
    5650:	aa1303e2 	mov	x2, x19
    5654:	910083a3 	add	x3, x29, #0x20
    5658:	d2802001 	mov	x1, #0x100                 	// #256
    565c:	aa1403e0 	mov	x0, x20
    5660:	9400044f 	bl	679c <vsnprintf>
    5664:	2a0003f3 	mov	w19, w0
/home/pedro/devel/optee/optee_os/lib/libutee/trace_ext.c:67
    5668:	37f80060 	tbnz	w0, #31, 5674 <printf+0xb0>
/home/pedro/devel/optee/optee_os/lib/libutee/trace_ext.c:70
    566c:	aa1403e0 	mov	x0, x20
    5670:	97ffffc9 	bl	5594 <trace_ext_puts>
/home/pedro/devel/optee/optee_os/lib/libutee/trace_ext.c:73
    5674:	2a1303e0 	mov	w0, w19
    5678:	a94153f3 	ldp	x19, x20, [sp,#16]
    567c:	a9407bfd 	ldp	x29, x30, [sp]
    5680:	910883ff 	add	sp, sp, #0x220
    5684:	d65f03c0 	ret
/home/pedro/devel/optee/optee_os/lib/libutee/trace_ext.c:61
    5688:	52800013 	mov	w19, #0x0                   	// #0
    568c:	17fffffa 	b	5674 <printf+0xb0>

0000000000005690 <puts>:
puts():
/home/pedro/devel/optee/optee_os/lib/libutee/trace_ext.c:76
    5690:	a9be7bfd 	stp	x29, x30, [sp,#-32]!
    5694:	910003fd 	mov	x29, sp
    5698:	f9000bf3 	str	x19, [sp,#16]
    569c:	aa0003f3 	mov	x19, x0
/home/pedro/devel/optee/optee_os/lib/libutee/trace_ext.c:77
    56a0:	940007bf 	bl	759c <trace_get_level>
    56a4:	7100001f 	cmp	w0, #0x0
    56a8:	540000cd 	b.le	56c0 <puts+0x30>
/home/pedro/devel/optee/optee_os/lib/libutee/trace_ext.c:78
    56ac:	aa1303e0 	mov	x0, x19
    56b0:	97ffffb9 	bl	5594 <trace_ext_puts>
/home/pedro/devel/optee/optee_os/lib/libutee/trace_ext.c:79
    56b4:	f0000020 	adrp	x0, c000 <PRIME_TABLE+0x8a0>
    56b8:	91236000 	add	x0, x0, #0x8d8
    56bc:	97ffffb6 	bl	5594 <trace_ext_puts>
/home/pedro/devel/optee/optee_os/lib/libutee/trace_ext.c:82
    56c0:	52800020 	mov	w0, #0x1                   	// #1
    56c4:	f9400bf3 	ldr	x19, [sp,#16]
    56c8:	a8c27bfd 	ldp	x29, x30, [sp],#32
    56cc:	d65f03c0 	ret

00000000000056d0 <putchar>:
putchar():
/home/pedro/devel/optee/optee_os/lib/libutee/trace_ext.c:85
    56d0:	a9bd7bfd 	stp	x29, x30, [sp,#-48]!
    56d4:	910003fd 	mov	x29, sp
    56d8:	f9000bf3 	str	x19, [sp,#16]
    56dc:	2a0003f3 	mov	w19, w0
/home/pedro/devel/optee/optee_os/lib/libutee/trace_ext.c:86
    56e0:	3900a3a0 	strb	w0, [x29,#40]
    56e4:	3900a7bf 	strb	wzr, [x29,#41]
/home/pedro/devel/optee/optee_os/lib/libutee/trace_ext.c:88
    56e8:	940007ad 	bl	759c <trace_get_level>
    56ec:	7100001f 	cmp	w0, #0x0
    56f0:	5400006d 	b.le	56fc <putchar+0x2c>
/home/pedro/devel/optee/optee_os/lib/libutee/trace_ext.c:89
    56f4:	9100a3a0 	add	x0, x29, #0x28
    56f8:	97ffffa7 	bl	5594 <trace_ext_puts>
/home/pedro/devel/optee/optee_os/lib/libutee/trace_ext.c:96
    56fc:	12001e60 	and	w0, w19, #0xff
    5700:	f9400bf3 	ldr	x19, [sp,#16]
    5704:	a8c37bfd 	ldp	x29, x30, [sp],#48
    5708:	d65f03c0 	ret

000000000000570c <raw_malloc_return_hook>:
raw_malloc_return_hook():
/home/pedro/devel/optee/optee_os/lib/libutils/isoc/bget_malloc.c:185
    570c:	d0000082 	adrp	x2, 17000 <mempool_u32+0xc58>
    5710:	913ba043 	add	x3, x2, #0xee8
    5714:	91002063 	add	x3, x3, #0x8
    5718:	f9477444 	ldr	x4, [x2,#3816]
    571c:	b9402465 	ldr	w5, [x3,#36]
    5720:	eb0400bf 	cmp	x5, x4
    5724:	5400004a 	b.ge	572c <raw_malloc_return_hook+0x20>
/home/pedro/devel/optee/optee_os/lib/libutils/isoc/bget_malloc.c:186
    5728:	b9002464 	str	w4, [x3,#36]
/home/pedro/devel/optee/optee_os/lib/libutils/isoc/bget_malloc.c:188
    572c:	b5000140 	cbnz	x0, 5754 <raw_malloc_return_hook+0x48>
/home/pedro/devel/optee/optee_os/lib/libutils/isoc/bget_malloc.c:189
    5730:	913ba040 	add	x0, x2, #0xee8
    5734:	91002000 	add	x0, x0, #0x8
    5738:	b9402c02 	ldr	w2, [x0,#44]
    573c:	11000442 	add	w2, w2, #0x1
    5740:	b9002c02 	str	w2, [x0,#44]
/home/pedro/devel/optee/optee_os/lib/libutils/isoc/bget_malloc.c:190
    5744:	b9403002 	ldr	w2, [x0,#48]
    5748:	eb01005f 	cmp	x2, x1
    574c:	54000042 	b.cs	5754 <raw_malloc_return_hook+0x48>
/home/pedro/devel/optee/optee_os/lib/libutils/isoc/bget_malloc.c:192
    5750:	29061001 	stp	w1, w4, [x0,#48]
    5754:	d65f03c0 	ret

0000000000005758 <create_free_block>:
create_free_block():
/home/pedro/devel/optee/optee_os/lib/libutils/isoc/bget_malloc.c:389
    5758:	a9bf7bfd 	stp	x29, x30, [sp,#-16]!
/home/pedro/devel/optee/optee_os/lib/libutils/isoc/bget_malloc.c:390
    575c:	8b010003 	add	x3, x0, x1
    5760:	eb02007f 	cmp	x3, x2
/home/pedro/devel/optee/optee_os/lib/libutils/isoc/bget_malloc.c:389
    5764:	910003fd 	mov	x29, sp
/home/pedro/devel/optee/optee_os/lib/libutils/isoc/bget_malloc.c:390
    5768:	54000140 	b.eq	5790 <create_free_block+0x38>
/home/pedro/devel/optee/optee_os/lib/libutils/isoc/bget_malloc.c:390 (discriminator 1)
    576c:	d0000023 	adrp	x3, b000 <mpa_set_oct_str+0x7c>
    5770:	f0000021 	adrp	x1, c000 <PRIME_TABLE+0x8a0>
    5774:	f0000020 	adrp	x0, c000 <PRIME_TABLE+0x8a0>
    5778:	91192063 	add	x3, x3, #0x648
    577c:	912e6821 	add	x1, x1, #0xb9a
    5780:	912ee800 	add	x0, x0, #0xbba
    5784:	528030c2 	mov	w2, #0x186                 	// #390
/home/pedro/devel/optee/optee_os/lib/libutils/isoc/bget_malloc.c:391 (discriminator 1)
    5788:	97fffdb7 	bl	4e64 <_assert_log>
    578c:	97fffdc7 	bl	4ea8 <_assert_break>
/home/pedro/devel/optee/optee_os/lib/libutils/isoc/bget_malloc.c:391
    5790:	f9400462 	ldr	x2, [x3,#8]
    5794:	b7f80122 	tbnz	x2, #63, 57b8 <create_free_block+0x60>
/home/pedro/devel/optee/optee_os/lib/libutils/isoc/bget_malloc.c:391 (discriminator 1)
    5798:	d0000023 	adrp	x3, b000 <mpa_set_oct_str+0x7c>
    579c:	f0000021 	adrp	x1, c000 <PRIME_TABLE+0x8a0>
    57a0:	f0000020 	adrp	x0, c000 <PRIME_TABLE+0x8a0>
    57a4:	91192063 	add	x3, x3, #0x648
    57a8:	528030e2 	mov	w2, #0x187                 	// #391
    57ac:	912e6821 	add	x1, x1, #0xb9a
    57b0:	912f5800 	add	x0, x0, #0xbd6
    57b4:	17fffff5 	b	5788 <create_free_block+0x30>
/home/pedro/devel/optee/optee_os/lib/libutils/isoc/bget_malloc.c:393
    57b8:	f8616802 	ldr	x2, [x0,x1]
    57bc:	b4000122 	cbz	x2, 57e0 <create_free_block+0x88>
/home/pedro/devel/optee/optee_os/lib/libutils/isoc/bget_malloc.c:393 (discriminator 1)
    57c0:	d0000023 	adrp	x3, b000 <mpa_set_oct_str+0x7c>
    57c4:	f0000021 	adrp	x1, c000 <PRIME_TABLE+0x8a0>
    57c8:	f0000020 	adrp	x0, c000 <PRIME_TABLE+0x8a0>
    57cc:	91192063 	add	x3, x3, #0x648
    57d0:	52803122 	mov	w2, #0x189                 	// #393
    57d4:	912e6821 	add	x1, x1, #0xb9a
    57d8:	912f9000 	add	x0, x0, #0xbe4
    57dc:	17ffffeb 	b	5788 <create_free_block+0x30>
/home/pedro/devel/optee/optee_os/lib/libutils/isoc/bget_malloc.c:396
    57e0:	a900041f 	stp	xzr, x1, [x0]
/home/pedro/devel/optee/optee_os/lib/libutils/isoc/bget_malloc.c:400
    57e4:	f8216801 	str	x1, [x0,x1]
/home/pedro/devel/optee/optee_os/lib/libutils/isoc/bget_malloc.c:403
    57e8:	b0000041 	adrp	x1, e000 <modulus_dbstore>
    57ec:	910c6021 	add	x1, x1, #0x318
    57f0:	f9400c23 	ldr	x3, [x1,#24]
    57f4:	f9400862 	ldr	x2, [x3,#16]
    57f8:	eb01005f 	cmp	x2, x1
    57fc:	54000120 	b.eq	5820 <create_free_block+0xc8>
/home/pedro/devel/optee/optee_os/lib/libutils/isoc/bget_malloc.c:403 (discriminator 1)
    5800:	d0000023 	adrp	x3, b000 <mpa_set_oct_str+0x7c>
    5804:	f0000021 	adrp	x1, c000 <PRIME_TABLE+0x8a0>
    5808:	f0000020 	adrp	x0, c000 <PRIME_TABLE+0x8a0>
    580c:	91192063 	add	x3, x3, #0x648
    5810:	52803262 	mov	w2, #0x193                 	// #403
    5814:	912e6821 	add	x1, x1, #0xb9a
    5818:	912fd800 	add	x0, x0, #0xbf6
    581c:	17ffffdb 	b	5788 <create_free_block+0x30>
/home/pedro/devel/optee/optee_os/lib/libutils/isoc/bget_malloc.c:404
    5820:	f9400841 	ldr	x1, [x2,#16]
    5824:	f9400c21 	ldr	x1, [x1,#24]
    5828:	eb02003f 	cmp	x1, x2
    582c:	54000120 	b.eq	5850 <create_free_block+0xf8>
/home/pedro/devel/optee/optee_os/lib/libutils/isoc/bget_malloc.c:404 (discriminator 1)
    5830:	d0000023 	adrp	x3, b000 <mpa_set_oct_str+0x7c>
    5834:	f0000021 	adrp	x1, c000 <PRIME_TABLE+0x8a0>
    5838:	f0000020 	adrp	x0, c000 <PRIME_TABLE+0x8a0>
    583c:	91192063 	add	x3, x3, #0x648
    5840:	52803282 	mov	w2, #0x194                 	// #404
    5844:	912e6821 	add	x1, x1, #0xb9a
    5848:	91307c00 	add	x0, x0, #0xc1f
    584c:	17ffffcf 	b	5788 <create_free_block+0x30>
/home/pedro/devel/optee/optee_os/lib/libutils/isoc/bget_malloc.c:406
    5850:	a9010c01 	stp	x1, x3, [x0,#16]
/home/pedro/devel/optee/optee_os/lib/libutils/isoc/bget_malloc.c:407
    5854:	f9000c20 	str	x0, [x1,#24]
/home/pedro/devel/optee/optee_os/lib/libutils/isoc/bget_malloc.c:408
    5858:	f9400c01 	ldr	x1, [x0,#24]
    585c:	f9000820 	str	x0, [x1,#16]
/home/pedro/devel/optee/optee_os/lib/libutils/isoc/bget_malloc.c:409
    5860:	a8c17bfd 	ldp	x29, x30, [sp],#16
    5864:	d65f03c0 	ret

0000000000005868 <bget>:
bget():
/home/pedro/devel/optee/optee_os/lib/libutils/isoc/bget.c:575
    5868:	a9bf7bfd 	stp	x29, x30, [sp,#-16]!
/home/pedro/devel/optee/optee_os/lib/libutils/isoc/bget.c:586
    586c:	f100001f 	cmp	x0, #0x0
/home/pedro/devel/optee/optee_os/lib/libutils/isoc/bget.c:575
    5870:	910003fd 	mov	x29, sp
/home/pedro/devel/optee/optee_os/lib/libutils/isoc/bget.c:586
    5874:	5400016c 	b.gt	58a0 <bget+0x38>
/home/pedro/devel/optee/optee_os/lib/libutils/isoc/bget.c:586 (discriminator 1)
    5878:	d0000023 	adrp	x3, b000 <mpa_set_oct_str+0x7c>
    587c:	91192063 	add	x3, x3, #0x648
    5880:	f0000021 	adrp	x1, c000 <PRIME_TABLE+0x8a0>
    5884:	f0000020 	adrp	x0, c000 <PRIME_TABLE+0x8a0>
    5888:	91006063 	add	x3, x3, #0x18
    588c:	91312021 	add	x1, x1, #0xc48
    5890:	9138d800 	add	x0, x0, #0xe36
    5894:	52804942 	mov	w2, #0x24a                 	// #586
/home/pedro/devel/optee/optee_os/lib/libutils/isoc/bget.c:645 (discriminator 1)
    5898:	97fffd73 	bl	4e64 <_assert_log>
    589c:	97fffd83 	bl	4ea8 <_assert_break>
/home/pedro/devel/optee/optee_os/lib/libutils/isoc/bget.c:593
    58a0:	f100401f 	cmp	x0, #0x10
/home/pedro/devel/optee/optee_os/lib/libutils/isoc/bget.c:607
    58a4:	b0000042 	adrp	x2, e000 <modulus_dbstore>
    58a8:	910c6042 	add	x2, x2, #0x318
/home/pedro/devel/optee/optee_os/lib/libutils/isoc/bget.c:593
    58ac:	d2800201 	mov	x1, #0x10                  	// #16
    58b0:	9a81a001 	csel	x1, x0, x1, ge
/home/pedro/devel/optee/optee_os/lib/libutils/isoc/bget.c:628
    58b4:	aa0203e3 	mov	x3, x2
/home/pedro/devel/optee/optee_os/lib/libutils/isoc/bget.c:593
    58b8:	91003c21 	add	x1, x1, #0xf
    58bc:	927cec21 	and	x1, x1, #0xfffffffffffffff0
/home/pedro/devel/optee/optee_os/lib/libutils/isoc/bget.c:607
    58c0:	f9400840 	ldr	x0, [x2,#16]
/home/pedro/devel/optee/optee_os/lib/libutils/isoc/bget.c:597
    58c4:	91004021 	add	x1, x1, #0x10
/home/pedro/devel/optee/optee_os/lib/libutils/isoc/bget.c:628
    58c8:	eb03001f 	cmp	x0, x3
    58cc:	54000061 	b.ne	58d8 <bget+0x70>
/home/pedro/devel/optee/optee_os/lib/libutils/isoc/bget.c:755
    58d0:	d2800000 	mov	x0, #0x0                   	// #0
    58d4:	14000022 	b	595c <bget+0xf4>
/home/pedro/devel/optee/optee_os/lib/libutils/isoc/bget.c:629
    58d8:	f9400402 	ldr	x2, [x0,#8]
    58dc:	eb02003f 	cmp	x1, x2
    58e0:	54000aec 	b.gt	5a3c <bget+0x1d4>
/home/pedro/devel/optee/optee_os/lib/libutils/isoc/bget.c:640
    58e4:	cb010044 	sub	x4, x2, x1
    58e8:	d0000083 	adrp	x3, 17000 <mempool_u32+0xc58>
    58ec:	f100809f 	cmp	x4, #0x20
    58f0:	540003ad 	b.le	5964 <bget+0xfc>
/home/pedro/devel/optee/optee_os/lib/libutils/isoc/bget.c:643
    58f4:	8b040005 	add	x5, x0, x4
/home/pedro/devel/optee/optee_os/lib/libutils/isoc/bget.c:645
    58f8:	f86168a6 	ldr	x6, [x5,x1]
    58fc:	eb06005f 	cmp	x2, x6
    5900:	54000140 	b.eq	5928 <bget+0xc0>
/home/pedro/devel/optee/optee_os/lib/libutils/isoc/bget.c:645 (discriminator 1)
    5904:	d0000023 	adrp	x3, b000 <mpa_set_oct_str+0x7c>
    5908:	91192063 	add	x3, x3, #0x648
    590c:	f0000021 	adrp	x1, c000 <PRIME_TABLE+0x8a0>
    5910:	f0000020 	adrp	x0, c000 <PRIME_TABLE+0x8a0>
    5914:	91006063 	add	x3, x3, #0x18
    5918:	528050a2 	mov	w2, #0x285                 	// #645
    591c:	91312021 	add	x1, x1, #0xc48
    5920:	91318400 	add	x0, x0, #0xc61
    5924:	17ffffdd 	b	5898 <bget+0x30>
/home/pedro/devel/optee/optee_os/lib/libutils/isoc/bget.c:647
    5928:	f9000404 	str	x4, [x0,#8]
/home/pedro/devel/optee/optee_os/lib/libutils/isoc/bget.c:656
    592c:	913ba062 	add	x2, x3, #0xee8
/home/pedro/devel/optee/optee_os/lib/libutils/isoc/bget.c:649
    5930:	f8246804 	str	x4, [x0,x4]
/home/pedro/devel/optee/optee_os/lib/libutils/isoc/bget.c:651
    5934:	cb0103e0 	neg	x0, x1
    5938:	f90004a0 	str	x0, [x5,#8]
/home/pedro/devel/optee/optee_os/lib/libutils/isoc/bget.c:656
    593c:	f9477460 	ldr	x0, [x3,#3816]
/home/pedro/devel/optee/optee_os/lib/libutils/isoc/bget.c:653
    5940:	f82168bf 	str	xzr, [x5,x1]
/home/pedro/devel/optee/optee_os/lib/libutils/isoc/bget.c:656
    5944:	8b010001 	add	x1, x0, x1
/home/pedro/devel/optee/optee_os/lib/libutils/isoc/bget.c:657
    5948:	f9402040 	ldr	x0, [x2,#64]
/home/pedro/devel/optee/optee_os/lib/libutils/isoc/bget.c:656
    594c:	f9077461 	str	x1, [x3,#3816]
/home/pedro/devel/optee/optee_os/lib/libutils/isoc/bget.c:657
    5950:	91000400 	add	x0, x0, #0x1
    5954:	f9002040 	str	x0, [x2,#64]
/home/pedro/devel/optee/optee_os/lib/libutils/isoc/bget.c:659
    5958:	910040a0 	add	x0, x5, #0x10
/home/pedro/devel/optee/optee_os/lib/libutils/isoc/bget.c:756
    595c:	a8c17bfd 	ldp	x29, x30, [sp],#16
    5960:	d65f03c0 	ret
/home/pedro/devel/optee/optee_os/lib/libutils/isoc/bget.c:666
    5964:	f8626801 	ldr	x1, [x0,x2]
/home/pedro/devel/optee/optee_os/lib/libutils/isoc/bget.c:665
    5968:	8b020005 	add	x5, x0, x2
/home/pedro/devel/optee/optee_os/lib/libutils/isoc/bget.c:666
    596c:	eb01005f 	cmp	x2, x1
    5970:	54000140 	b.eq	5998 <bget+0x130>
/home/pedro/devel/optee/optee_os/lib/libutils/isoc/bget.c:666 (discriminator 1)
    5974:	d0000023 	adrp	x3, b000 <mpa_set_oct_str+0x7c>
    5978:	91192063 	add	x3, x3, #0x648
    597c:	f0000021 	adrp	x1, c000 <PRIME_TABLE+0x8a0>
    5980:	f0000020 	adrp	x0, c000 <PRIME_TABLE+0x8a0>
    5984:	91006063 	add	x3, x3, #0x18
    5988:	52805342 	mov	w2, #0x29a                 	// #666
    598c:	91312021 	add	x1, x1, #0xc48
    5990:	9131f400 	add	x0, x0, #0xc7d
    5994:	17ffffc1 	b	5898 <bget+0x30>
/home/pedro/devel/optee/optee_os/lib/libutils/isoc/bget.c:671
    5998:	f9400c01 	ldr	x1, [x0,#24]
    599c:	f9400824 	ldr	x4, [x1,#16]
    59a0:	eb04001f 	cmp	x0, x4
    59a4:	54000140 	b.eq	59cc <bget+0x164>
/home/pedro/devel/optee/optee_os/lib/libutils/isoc/bget.c:671 (discriminator 1)
    59a8:	d0000023 	adrp	x3, b000 <mpa_set_oct_str+0x7c>
    59ac:	91192063 	add	x3, x3, #0x648
    59b0:	f0000021 	adrp	x1, c000 <PRIME_TABLE+0x8a0>
    59b4:	f0000020 	adrp	x0, c000 <PRIME_TABLE+0x8a0>
    59b8:	91006063 	add	x3, x3, #0x18
    59bc:	528053e2 	mov	w2, #0x29f                 	// #671
    59c0:	91312021 	add	x1, x1, #0xc48
    59c4:	91326400 	add	x0, x0, #0xc99
    59c8:	17ffffb4 	b	5898 <bget+0x30>
/home/pedro/devel/optee/optee_os/lib/libutils/isoc/bget.c:672
    59cc:	f9400804 	ldr	x4, [x0,#16]
    59d0:	f9400c86 	ldr	x6, [x4,#24]
    59d4:	eb06001f 	cmp	x0, x6
    59d8:	54000140 	b.eq	5a00 <bget+0x198>
/home/pedro/devel/optee/optee_os/lib/libutils/isoc/bget.c:672 (discriminator 1)
    59dc:	d0000023 	adrp	x3, b000 <mpa_set_oct_str+0x7c>
    59e0:	91192063 	add	x3, x3, #0x648
    59e4:	f0000021 	adrp	x1, c000 <PRIME_TABLE+0x8a0>
    59e8:	f0000020 	adrp	x0, c000 <PRIME_TABLE+0x8a0>
    59ec:	91006063 	add	x3, x3, #0x18
    59f0:	52805402 	mov	w2, #0x2a0                 	// #672
    59f4:	91312021 	add	x1, x1, #0xc48
    59f8:	9132d000 	add	x0, x0, #0xcb4
    59fc:	17ffffa7 	b	5898 <bget+0x30>
/home/pedro/devel/optee/optee_os/lib/libutils/isoc/bget.c:673
    5a00:	f9000824 	str	x4, [x1,#16]
/home/pedro/devel/optee/optee_os/lib/libutils/isoc/bget.c:688
    5a04:	91004000 	add	x0, x0, #0x10
/home/pedro/devel/optee/optee_os/lib/libutils/isoc/bget.c:674
    5a08:	f9400004 	ldr	x4, [x0]
    5a0c:	f9000c81 	str	x1, [x4,#24]
/home/pedro/devel/optee/optee_os/lib/libutils/isoc/bget.c:677
    5a10:	913ba064 	add	x4, x3, #0xee8
    5a14:	f9477461 	ldr	x1, [x3,#3816]
    5a18:	8b020021 	add	x1, x1, x2
    5a1c:	f9077461 	str	x1, [x3,#3816]
/home/pedro/devel/optee/optee_os/lib/libutils/isoc/bget.c:678
    5a20:	f9402081 	ldr	x1, [x4,#64]
/home/pedro/devel/optee/optee_os/lib/libutils/isoc/bget.c:681
    5a24:	cb0203e2 	neg	x2, x2
    5a28:	f81f8002 	stur	x2, [x0,#-8]
/home/pedro/devel/optee/optee_os/lib/libutils/isoc/bget.c:678
    5a2c:	91000421 	add	x1, x1, #0x1
/home/pedro/devel/optee/optee_os/lib/libutils/isoc/bget.c:685
    5a30:	f90000bf 	str	xzr, [x5]
/home/pedro/devel/optee/optee_os/lib/libutils/isoc/bget.c:678
    5a34:	f9002081 	str	x1, [x4,#64]
/home/pedro/devel/optee/optee_os/lib/libutils/isoc/bget.c:690
    5a38:	17ffffc9 	b	595c <bget+0xf4>
/home/pedro/devel/optee/optee_os/lib/libutils/isoc/bget.c:693
    5a3c:	f9400800 	ldr	x0, [x0,#16]
    5a40:	17ffffa2 	b	58c8 <bget+0x60>

0000000000005a44 <bgetz>:
bgetz():
/home/pedro/devel/optee/optee_os/lib/libutils/isoc/bget.c:764
    5a44:	a9be7bfd 	stp	x29, x30, [sp,#-32]!
    5a48:	910003fd 	mov	x29, sp
    5a4c:	a90153f3 	stp	x19, x20, [sp,#16]
    5a50:	aa0003f4 	mov	x20, x0
/home/pedro/devel/optee/optee_os/lib/libutils/isoc/bget.c:765
    5a54:	97ffff85 	bl	5868 <bget>
    5a58:	aa0003f3 	mov	x19, x0
/home/pedro/devel/optee/optee_os/lib/libutils/isoc/bget.c:767
    5a5c:	b4000300 	cbz	x0, 5abc <bgetz+0x78>
/home/pedro/devel/optee/optee_os/lib/libutils/isoc/bget.c:772
    5a60:	f85f8000 	ldur	x0, [x0,#-8]
/home/pedro/devel/optee/optee_os/lib/libutils/isoc/bget.c:773
    5a64:	b50001e0 	cbnz	x0, 5aa0 <bgetz+0x5c>
/home/pedro/devel/optee/optee_os/lib/libutils/isoc/bget.c:777
    5a68:	f85e8262 	ldur	x2, [x19,#-24]
    5a6c:	d1006042 	sub	x2, x2, #0x18
/home/pedro/devel/optee/optee_os/lib/libutils/isoc/bget.c:781
    5a70:	eb14005f 	cmp	x2, x20
    5a74:	540001ca 	b.ge	5aac <bgetz+0x68>
    5a78:	d0000023 	adrp	x3, b000 <mpa_set_oct_str+0x7c>
    5a7c:	91192063 	add	x3, x3, #0x648
    5a80:	91008063 	add	x3, x3, #0x20
    5a84:	f0000021 	adrp	x1, c000 <PRIME_TABLE+0x8a0>
    5a88:	f0000020 	adrp	x0, c000 <PRIME_TABLE+0x8a0>
    5a8c:	91312021 	add	x1, x1, #0xc48
    5a90:	91333c00 	add	x0, x0, #0xccf
    5a94:	528061a2 	mov	w2, #0x30d                 	// #781
    5a98:	97fffcf3 	bl	4e64 <_assert_log>
    5a9c:	97fffd03 	bl	4ea8 <_assert_break>
/home/pedro/devel/optee/optee_os/lib/libutils/isoc/bget.c:779
    5aa0:	928001e2 	mov	x2, #0xfffffffffffffff0    	// #-16
    5aa4:	cb000042 	sub	x2, x2, x0
    5aa8:	17fffff2 	b	5a70 <bgetz+0x2c>
memset_unchecked():
/home/pedro/devel/optee/optee_os/lib/libutils/isoc/bget_malloc.c:164
    5aac:	93407c42 	sxtw	x2, w2
    5ab0:	52800001 	mov	w1, #0x0                   	// #0
    5ab4:	aa1303e0 	mov	x0, x19
    5ab8:	94000376 	bl	6890 <memset>
bgetz():
/home/pedro/devel/optee/optee_os/lib/libutils/isoc/bget.c:785
    5abc:	aa1303e0 	mov	x0, x19
    5ac0:	a94153f3 	ldp	x19, x20, [sp,#16]
    5ac4:	a8c27bfd 	ldp	x29, x30, [sp],#32
    5ac8:	d65f03c0 	ret

0000000000005acc <brel>:
brel():
/home/pedro/devel/optee/optee_os/lib/libutils/isoc/bget.c:835
    5acc:	d0000084 	adrp	x4, 17000 <mempool_u32+0xc58>
    5ad0:	913ba083 	add	x3, x4, #0xee8
/home/pedro/devel/optee/optee_os/lib/libutils/isoc/bget.c:829
    5ad4:	a9bf7bfd 	stp	x29, x30, [sp,#-16]!
    5ad8:	910003fd 	mov	x29, sp
/home/pedro/devel/optee/optee_os/lib/libutils/isoc/bget.c:835
    5adc:	f9402462 	ldr	x2, [x3,#72]
    5ae0:	91000442 	add	x2, x2, #0x1
    5ae4:	f9002462 	str	x2, [x3,#72]
/home/pedro/devel/optee/optee_os/lib/libutils/isoc/bget.c:837
    5ae8:	b5000160 	cbnz	x0, 5b14 <brel+0x48>
/home/pedro/devel/optee/optee_os/lib/libutils/isoc/bget.c:837 (discriminator 1)
    5aec:	d0000023 	adrp	x3, b000 <mpa_set_oct_str+0x7c>
    5af0:	91192063 	add	x3, x3, #0x648
    5af4:	f0000021 	adrp	x1, c000 <PRIME_TABLE+0x8a0>
    5af8:	f0000020 	adrp	x0, c000 <PRIME_TABLE+0x8a0>
    5afc:	9100a063 	add	x3, x3, #0x28
    5b00:	91312021 	add	x1, x1, #0xc48
    5b04:	91337400 	add	x0, x0, #0xcdd
    5b08:	528068a2 	mov	w2, #0x345                 	// #837
/home/pedro/devel/optee/optee_os/lib/libutils/isoc/bget.c:868 (discriminator 1)
    5b0c:	97fffcd6 	bl	4e64 <_assert_log>
    5b10:	97fffce6 	bl	4ea8 <_assert_break>
/home/pedro/devel/optee/optee_os/lib/libutils/isoc/bget.c:865
    5b14:	f85f8002 	ldur	x2, [x0,#-8]
/home/pedro/devel/optee/optee_os/lib/libutils/isoc/bget.c:868
    5b18:	b7f80142 	tbnz	x2, #63, 5b40 <brel+0x74>
/home/pedro/devel/optee/optee_os/lib/libutils/isoc/bget.c:868 (discriminator 1)
    5b1c:	d0000023 	adrp	x3, b000 <mpa_set_oct_str+0x7c>
    5b20:	91192063 	add	x3, x3, #0x648
    5b24:	f0000021 	adrp	x1, c000 <PRIME_TABLE+0x8a0>
    5b28:	f0000020 	adrp	x0, c000 <PRIME_TABLE+0x8a0>
    5b2c:	9100a063 	add	x3, x3, #0x28
    5b30:	52806c82 	mov	w2, #0x364                 	// #868
    5b34:	91312021 	add	x1, x1, #0xc48
    5b38:	9133a400 	add	x0, x0, #0xce9
    5b3c:	17fffff4 	b	5b0c <brel+0x40>
    5b40:	d1004001 	sub	x1, x0, #0x10
/home/pedro/devel/optee/optee_os/lib/libutils/isoc/bget.c:874
    5b44:	cb020023 	sub	x3, x1, x2
    5b48:	f9400063 	ldr	x3, [x3]
    5b4c:	b4000143 	cbz	x3, 5b74 <brel+0xa8>
/home/pedro/devel/optee/optee_os/lib/libutils/isoc/bget.c:874 (discriminator 1)
    5b50:	d0000023 	adrp	x3, b000 <mpa_set_oct_str+0x7c>
    5b54:	91192063 	add	x3, x3, #0x648
    5b58:	f0000021 	adrp	x1, c000 <PRIME_TABLE+0x8a0>
    5b5c:	f0000020 	adrp	x0, c000 <PRIME_TABLE+0x8a0>
    5b60:	9100a063 	add	x3, x3, #0x28
    5b64:	52806d42 	mov	w2, #0x36a                 	// #874
    5b68:	91312021 	add	x1, x1, #0xc48
    5b6c:	9133e400 	add	x0, x0, #0xcf9
    5b70:	17ffffe7 	b	5b0c <brel+0x40>
/home/pedro/devel/optee/optee_os/lib/libutils/isoc/bget.c:877
    5b74:	f9477483 	ldr	x3, [x4,#3816]
    5b78:	8b030043 	add	x3, x2, x3
    5b7c:	f9077483 	str	x3, [x4,#3816]
/home/pedro/devel/optee/optee_os/lib/libutils/isoc/bget.c:878
    5b80:	b6f80143 	tbz	x3, #63, 5ba8 <brel+0xdc>
/home/pedro/devel/optee/optee_os/lib/libutils/isoc/bget.c:878 (discriminator 1)
    5b84:	d0000023 	adrp	x3, b000 <mpa_set_oct_str+0x7c>
    5b88:	91192063 	add	x3, x3, #0x648
    5b8c:	f0000021 	adrp	x1, c000 <PRIME_TABLE+0x8a0>
    5b90:	f0000020 	adrp	x0, c000 <PRIME_TABLE+0x8a0>
    5b94:	9100a063 	add	x3, x3, #0x28
    5b98:	52806dc2 	mov	w2, #0x36e                 	// #878
    5b9c:	91312021 	add	x1, x1, #0xc48
    5ba0:	91349400 	add	x0, x0, #0xd25
    5ba4:	17ffffda 	b	5b0c <brel+0x40>
/home/pedro/devel/optee/optee_os/lib/libutils/isoc/bget.c:883
    5ba8:	f85f0003 	ldur	x3, [x0,#-16]
    5bac:	b4000423 	cbz	x3, 5c30 <brel+0x164>
/home/pedro/devel/optee/optee_os/lib/libutils/isoc/bget.c:894
    5bb0:	cb030021 	sub	x1, x1, x3
    5bb4:	f9400420 	ldr	x0, [x1,#8]
    5bb8:	eb00007f 	cmp	x3, x0
    5bbc:	54000140 	b.eq	5be4 <brel+0x118>
/home/pedro/devel/optee/optee_os/lib/libutils/isoc/bget.c:894 (discriminator 1)
    5bc0:	d0000023 	adrp	x3, b000 <mpa_set_oct_str+0x7c>
    5bc4:	91192063 	add	x3, x3, #0x648
    5bc8:	f0000021 	adrp	x1, c000 <PRIME_TABLE+0x8a0>
    5bcc:	f0000020 	adrp	x0, c000 <PRIME_TABLE+0x8a0>
    5bd0:	9100a063 	add	x3, x3, #0x28
    5bd4:	52806fc2 	mov	w2, #0x37e                 	// #894
    5bd8:	91312021 	add	x1, x1, #0xc48
    5bdc:	9134cc00 	add	x0, x0, #0xd33
    5be0:	17ffffcb 	b	5b0c <brel+0x40>
/home/pedro/devel/optee/optee_os/lib/libutils/isoc/bget.c:896
    5be4:	cb020062 	sub	x2, x3, x2
    5be8:	f9000422 	str	x2, [x1,#8]
/home/pedro/devel/optee/optee_os/lib/libutils/isoc/bget.c:916
    5bec:	f9400422 	ldr	x2, [x1,#8]
    5bf0:	8b020020 	add	x0, x1, x2
/home/pedro/devel/optee/optee_os/lib/libutils/isoc/bget.c:917
    5bf4:	f9400403 	ldr	x3, [x0,#8]
    5bf8:	f100007f 	cmp	x3, #0x0
    5bfc:	54000a0d 	b.le	5d3c <brel+0x270>
/home/pedro/devel/optee/optee_os/lib/libutils/isoc/bget.c:922
    5c00:	f8636804 	ldr	x4, [x0,x3]
    5c04:	eb04007f 	cmp	x3, x4
    5c08:	540005a0 	b.eq	5cbc <brel+0x1f0>
/home/pedro/devel/optee/optee_os/lib/libutils/isoc/bget.c:922 (discriminator 1)
    5c0c:	d0000023 	adrp	x3, b000 <mpa_set_oct_str+0x7c>
    5c10:	91192063 	add	x3, x3, #0x648
    5c14:	f0000021 	adrp	x1, c000 <PRIME_TABLE+0x8a0>
    5c18:	f0000020 	adrp	x0, c000 <PRIME_TABLE+0x8a0>
    5c1c:	9100a063 	add	x3, x3, #0x28
    5c20:	52807342 	mov	w2, #0x39a                 	// #922
    5c24:	91312021 	add	x1, x1, #0xc48
    5c28:	9135b000 	add	x0, x0, #0xd6c
    5c2c:	17ffffb8 	b	5b0c <brel+0x40>
/home/pedro/devel/optee/optee_os/lib/libutils/isoc/bget.c:902
    5c30:	b0000043 	adrp	x3, e000 <modulus_dbstore>
    5c34:	910c6063 	add	x3, x3, #0x318
    5c38:	f9400c65 	ldr	x5, [x3,#24]
    5c3c:	f94008a4 	ldr	x4, [x5,#16]
    5c40:	eb03009f 	cmp	x4, x3
    5c44:	54000140 	b.eq	5c6c <brel+0x1a0>
/home/pedro/devel/optee/optee_os/lib/libutils/isoc/bget.c:902 (discriminator 1)
    5c48:	d0000023 	adrp	x3, b000 <mpa_set_oct_str+0x7c>
    5c4c:	91192063 	add	x3, x3, #0x648
    5c50:	f0000021 	adrp	x1, c000 <PRIME_TABLE+0x8a0>
    5c54:	f0000020 	adrp	x0, c000 <PRIME_TABLE+0x8a0>
    5c58:	9100a063 	add	x3, x3, #0x28
    5c5c:	528070c2 	mov	w2, #0x386                 	// #902
    5c60:	91312021 	add	x1, x1, #0xc48
    5c64:	912fd800 	add	x0, x0, #0xbf6
    5c68:	17ffffa9 	b	5b0c <brel+0x40>
/home/pedro/devel/optee/optee_os/lib/libutils/isoc/bget.c:903
    5c6c:	f9400883 	ldr	x3, [x4,#16]
    5c70:	f9400c63 	ldr	x3, [x3,#24]
    5c74:	eb04007f 	cmp	x3, x4
    5c78:	54000140 	b.eq	5ca0 <brel+0x1d4>
/home/pedro/devel/optee/optee_os/lib/libutils/isoc/bget.c:903 (discriminator 1)
    5c7c:	d0000023 	adrp	x3, b000 <mpa_set_oct_str+0x7c>
    5c80:	91192063 	add	x3, x3, #0x648
    5c84:	f0000021 	adrp	x1, c000 <PRIME_TABLE+0x8a0>
    5c88:	f0000020 	adrp	x0, c000 <PRIME_TABLE+0x8a0>
    5c8c:	9100a063 	add	x3, x3, #0x28
    5c90:	528070e2 	mov	w2, #0x387                 	// #903
    5c94:	91312021 	add	x1, x1, #0xc48
    5c98:	91307c00 	add	x0, x0, #0xc1f
    5c9c:	17ffff9c 	b	5b0c <brel+0x40>
/home/pedro/devel/optee/optee_os/lib/libutils/isoc/bget.c:905
    5ca0:	a9011423 	stp	x3, x5, [x1,#16]
/home/pedro/devel/optee/optee_os/lib/libutils/isoc/bget.c:869
    5ca4:	cb0203e2 	neg	x2, x2
/home/pedro/devel/optee/optee_os/lib/libutils/isoc/bget.c:906
    5ca8:	f9000c61 	str	x1, [x3,#24]
/home/pedro/devel/optee/optee_os/lib/libutils/isoc/bget.c:907
    5cac:	f9400c23 	ldr	x3, [x1,#24]
    5cb0:	f9000861 	str	x1, [x3,#16]
/home/pedro/devel/optee/optee_os/lib/libutils/isoc/bget.c:908
    5cb4:	f81f8002 	stur	x2, [x0,#-8]
    5cb8:	17ffffcd 	b	5bec <brel+0x120>
/home/pedro/devel/optee/optee_os/lib/libutils/isoc/bget.c:923
    5cbc:	f9400c04 	ldr	x4, [x0,#24]
    5cc0:	f9400885 	ldr	x5, [x4,#16]
    5cc4:	eb05001f 	cmp	x0, x5
    5cc8:	54000140 	b.eq	5cf0 <brel+0x224>
/home/pedro/devel/optee/optee_os/lib/libutils/isoc/bget.c:923 (discriminator 1)
    5ccc:	d0000023 	adrp	x3, b000 <mpa_set_oct_str+0x7c>
    5cd0:	91192063 	add	x3, x3, #0x648
    5cd4:	f0000021 	adrp	x1, c000 <PRIME_TABLE+0x8a0>
    5cd8:	f0000020 	adrp	x0, c000 <PRIME_TABLE+0x8a0>
    5cdc:	9100a063 	add	x3, x3, #0x28
    5ce0:	52807362 	mov	w2, #0x39b                 	// #923
    5ce4:	91312021 	add	x1, x1, #0xc48
    5ce8:	91369400 	add	x0, x0, #0xda5
    5cec:	17ffff88 	b	5b0c <brel+0x40>
/home/pedro/devel/optee/optee_os/lib/libutils/isoc/bget.c:924
    5cf0:	f9400805 	ldr	x5, [x0,#16]
    5cf4:	f9400ca6 	ldr	x6, [x5,#24]
    5cf8:	eb06001f 	cmp	x0, x6
    5cfc:	54000140 	b.eq	5d24 <brel+0x258>
/home/pedro/devel/optee/optee_os/lib/libutils/isoc/bget.c:924 (discriminator 1)
    5d00:	d0000023 	adrp	x3, b000 <mpa_set_oct_str+0x7c>
    5d04:	91192063 	add	x3, x3, #0x648
    5d08:	f0000021 	adrp	x1, c000 <PRIME_TABLE+0x8a0>
    5d0c:	f0000020 	adrp	x0, c000 <PRIME_TABLE+0x8a0>
    5d10:	9100a063 	add	x3, x3, #0x28
    5d14:	52807382 	mov	w2, #0x39c                 	// #924
    5d18:	91312021 	add	x1, x1, #0xc48
    5d1c:	91370800 	add	x0, x0, #0xdc2
    5d20:	17ffff7b 	b	5b0c <brel+0x40>
/home/pedro/devel/optee/optee_os/lib/libutils/isoc/bget.c:925
    5d24:	f9000885 	str	x5, [x4,#16]
/home/pedro/devel/optee/optee_os/lib/libutils/isoc/bget.c:926
    5d28:	f9400800 	ldr	x0, [x0,#16]
    5d2c:	f9000c04 	str	x4, [x0,#24]
/home/pedro/devel/optee/optee_os/lib/libutils/isoc/bget.c:927
    5d30:	8b030040 	add	x0, x2, x3
    5d34:	f9000420 	str	x0, [x1,#8]
/home/pedro/devel/optee/optee_os/lib/libutils/isoc/bget.c:936
    5d38:	8b000020 	add	x0, x1, x0
/home/pedro/devel/optee/optee_os/lib/libutils/isoc/bget.c:942
    5d3c:	f9400402 	ldr	x2, [x0,#8]
    5d40:	b7f80142 	tbnz	x2, #63, 5d68 <brel+0x29c>
/home/pedro/devel/optee/optee_os/lib/libutils/isoc/bget.c:942 (discriminator 1)
    5d44:	d0000023 	adrp	x3, b000 <mpa_set_oct_str+0x7c>
    5d48:	91192063 	add	x3, x3, #0x648
    5d4c:	f0000021 	adrp	x1, c000 <PRIME_TABLE+0x8a0>
    5d50:	f0000020 	adrp	x0, c000 <PRIME_TABLE+0x8a0>
    5d54:	9100a063 	add	x3, x3, #0x28
    5d58:	528075c2 	mov	w2, #0x3ae                 	// #942
    5d5c:	91312021 	add	x1, x1, #0xc48
    5d60:	91377c00 	add	x0, x0, #0xddf
    5d64:	17ffff6a 	b	5b0c <brel+0x40>
/home/pedro/devel/optee/optee_os/lib/libutils/isoc/bget.c:947
    5d68:	f9400421 	ldr	x1, [x1,#8]
    5d6c:	f9000001 	str	x1, [x0]
/home/pedro/devel/optee/optee_os/lib/libutils/isoc/bget.c:975
    5d70:	a8c17bfd 	ldp	x29, x30, [sp],#16
    5d74:	d65f03c0 	ret

0000000000005d78 <bgetr>:
bgetr():
/home/pedro/devel/optee/optee_os/lib/libutils/isoc/bget.c:795
    5d78:	a9bd7bfd 	stp	x29, x30, [sp,#-48]!
    5d7c:	910003fd 	mov	x29, sp
    5d80:	a90153f3 	stp	x19, x20, [sp,#16]
    5d84:	aa0003f3 	mov	x19, x0
    5d88:	f90013f5 	str	x21, [sp,#32]
    5d8c:	aa0103f4 	mov	x20, x1
/home/pedro/devel/optee/optee_os/lib/libutils/isoc/bget.c:800
    5d90:	aa0103e0 	mov	x0, x1
    5d94:	97fffeb5 	bl	5868 <bget>
    5d98:	aa0003f5 	mov	x21, x0
    5d9c:	b4000320 	cbz	x0, 5e00 <bgetr+0x88>
/home/pedro/devel/optee/optee_os/lib/libutils/isoc/bget.c:803
    5da0:	b4000313 	cbz	x19, 5e00 <bgetr+0x88>
/home/pedro/devel/optee/optee_os/lib/libutils/isoc/bget.c:817
    5da4:	f85f8261 	ldur	x1, [x19,#-8]
    5da8:	928001e3 	mov	x3, #0xfffffffffffffff0    	// #-16
    5dac:	cb010063 	sub	x3, x3, x1
/home/pedro/devel/optee/optee_os/lib/libutils/isoc/bget.c:818
    5db0:	f100007f 	cmp	x3, #0x0
    5db4:	5400016c 	b.gt	5de0 <bgetr+0x68>
    5db8:	d0000023 	adrp	x3, b000 <mpa_set_oct_str+0x7c>
    5dbc:	91192063 	add	x3, x3, #0x648
    5dc0:	9100c063 	add	x3, x3, #0x30
    5dc4:	f0000021 	adrp	x1, c000 <PRIME_TABLE+0x8a0>
    5dc8:	f0000020 	adrp	x0, c000 <PRIME_TABLE+0x8a0>
    5dcc:	91312021 	add	x1, x1, #0xc48
    5dd0:	9137c000 	add	x0, x0, #0xdf0
    5dd4:	52806642 	mov	w2, #0x332                 	// #818
    5dd8:	97fffc23 	bl	4e64 <_assert_log>
    5ddc:	97fffc33 	bl	4ea8 <_assert_break>
/home/pedro/devel/optee/optee_os/lib/libutils/isoc/bget.c:819
    5de0:	93407e81 	sxtw	x1, w20
    5de4:	93407c62 	sxtw	x2, w3
    5de8:	eb03029f 	cmp	x20, x3
    5dec:	9a81a042 	csel	x2, x2, x1, ge
    5df0:	aa1303e1 	mov	x1, x19
    5df4:	9400028c 	bl	6824 <memcpy>
/home/pedro/devel/optee/optee_os/lib/libutils/isoc/bget.c:821
    5df8:	aa1303e0 	mov	x0, x19
    5dfc:	97ffff34 	bl	5acc <brel>
/home/pedro/devel/optee/optee_os/lib/libutils/isoc/bget.c:823
    5e00:	aa1503e0 	mov	x0, x21
    5e04:	f94013f5 	ldr	x21, [sp,#32]
    5e08:	a94153f3 	ldp	x19, x20, [sp,#16]
    5e0c:	a8c37bfd 	ldp	x29, x30, [sp],#48
    5e10:	d65f03c0 	ret

0000000000005e14 <bpool>:
bpool():
/home/pedro/devel/optee/optee_os/lib/libutils/isoc/bget.c:999
    5e14:	a9bf7bfd 	stp	x29, x30, [sp,#-16]!
/home/pedro/devel/optee/optee_os/lib/libutils/isoc/bget.c:1004
    5e18:	927cec21 	and	x1, x1, #0xfffffffffffffff0
/home/pedro/devel/optee/optee_os/lib/libutils/isoc/bget.c:1023
    5e1c:	f1004021 	subs	x1, x1, #0x10
/home/pedro/devel/optee/optee_os/lib/libutils/isoc/bget.c:999
    5e20:	910003fd 	mov	x29, sp
/home/pedro/devel/optee/optee_os/lib/libutils/isoc/bget.c:1023
    5e24:	54000165 	b.pl	5e50 <bpool+0x3c>
    5e28:	d0000023 	adrp	x3, b000 <mpa_set_oct_str+0x7c>
    5e2c:	91192063 	add	x3, x3, #0x648
    5e30:	f0000021 	adrp	x1, c000 <PRIME_TABLE+0x8a0>
    5e34:	f0000020 	adrp	x0, c000 <PRIME_TABLE+0x8a0>
    5e38:	9100e063 	add	x3, x3, #0x38
    5e3c:	91312021 	add	x1, x1, #0xc48
    5e40:	9137e800 	add	x0, x0, #0xdfa
    5e44:	52807fe2 	mov	w2, #0x3ff                 	// #1023
/home/pedro/devel/optee/optee_os/lib/libutils/isoc/bget.c:1033 (discriminator 1)
    5e48:	97fffc07 	bl	4e64 <_assert_log>
    5e4c:	97fffc17 	bl	4ea8 <_assert_break>
/home/pedro/devel/optee/optee_os/lib/libutils/isoc/bget.c:1033
    5e50:	b0000042 	adrp	x2, e000 <modulus_dbstore>
    5e54:	910c6042 	add	x2, x2, #0x318
    5e58:	f9400c44 	ldr	x4, [x2,#24]
    5e5c:	f9400883 	ldr	x3, [x4,#16]
/home/pedro/devel/optee/optee_os/lib/libutils/isoc/bget.c:1029
    5e60:	f900001f 	str	xzr, [x0]
/home/pedro/devel/optee/optee_os/lib/libutils/isoc/bget.c:1033
    5e64:	eb02007f 	cmp	x3, x2
    5e68:	54000140 	b.eq	5e90 <bpool+0x7c>
/home/pedro/devel/optee/optee_os/lib/libutils/isoc/bget.c:1033 (discriminator 1)
    5e6c:	d0000023 	adrp	x3, b000 <mpa_set_oct_str+0x7c>
    5e70:	91192063 	add	x3, x3, #0x648
    5e74:	f0000021 	adrp	x1, c000 <PRIME_TABLE+0x8a0>
    5e78:	f0000020 	adrp	x0, c000 <PRIME_TABLE+0x8a0>
    5e7c:	9100e063 	add	x3, x3, #0x38
    5e80:	52808122 	mov	w2, #0x409                 	// #1033
    5e84:	91312021 	add	x1, x1, #0xc48
    5e88:	912fd800 	add	x0, x0, #0xbf6
    5e8c:	17ffffef 	b	5e48 <bpool+0x34>
/home/pedro/devel/optee/optee_os/lib/libutils/isoc/bget.c:1034
    5e90:	f9400862 	ldr	x2, [x3,#16]
    5e94:	f9400c42 	ldr	x2, [x2,#24]
    5e98:	eb03005f 	cmp	x2, x3
    5e9c:	54000140 	b.eq	5ec4 <bpool+0xb0>
/home/pedro/devel/optee/optee_os/lib/libutils/isoc/bget.c:1034 (discriminator 1)
    5ea0:	d0000023 	adrp	x3, b000 <mpa_set_oct_str+0x7c>
    5ea4:	91192063 	add	x3, x3, #0x648
    5ea8:	f0000021 	adrp	x1, c000 <PRIME_TABLE+0x8a0>
    5eac:	f0000020 	adrp	x0, c000 <PRIME_TABLE+0x8a0>
    5eb0:	9100e063 	add	x3, x3, #0x38
    5eb4:	52808142 	mov	w2, #0x40a                 	// #1034
    5eb8:	91312021 	add	x1, x1, #0xc48
    5ebc:	91307c00 	add	x0, x0, #0xc1f
    5ec0:	17ffffe2 	b	5e48 <bpool+0x34>
/home/pedro/devel/optee/optee_os/lib/libutils/isoc/bget.c:1036
    5ec4:	a9011002 	stp	x2, x4, [x0,#16]
/home/pedro/devel/optee/optee_os/lib/libutils/isoc/bget.c:1037
    5ec8:	f9000c40 	str	x0, [x2,#24]
/home/pedro/devel/optee/optee_os/lib/libutils/isoc/bget.c:1038
    5ecc:	f9400c02 	ldr	x2, [x0,#24]
    5ed0:	f9000840 	str	x0, [x2,#16]
/home/pedro/devel/optee/optee_os/lib/libutils/isoc/bget.c:1054
    5ed4:	8b010002 	add	x2, x0, x1
/home/pedro/devel/optee/optee_os/lib/libutils/isoc/bget.c:1049
    5ed8:	f9000401 	str	x1, [x0,#8]
/home/pedro/devel/optee/optee_os/lib/libutils/isoc/bget.c:1055
    5edc:	f8216801 	str	x1, [x0,x1]
/home/pedro/devel/optee/optee_os/lib/libutils/isoc/bget.c:1058
    5ee0:	d2f00000 	mov	x0, #0x8000000000000000    	// #-9223372036854775808
    5ee4:	f9000440 	str	x0, [x2,#8]
/home/pedro/devel/optee/optee_os/lib/libutils/isoc/bget.c:1059
    5ee8:	a8c17bfd 	ldp	x29, x30, [sp],#16
    5eec:	d65f03c0 	ret

0000000000005ef0 <bstats>:
bstats():
/home/pedro/devel/optee/optee_os/lib/libutils/isoc/bget.c:1071
    5ef0:	d0000087 	adrp	x7, 17000 <mempool_u32+0xc58>
    5ef4:	913ba0e8 	add	x8, x7, #0xee8
/home/pedro/devel/optee/optee_os/lib/libutils/isoc/bget.c:1069
    5ef8:	b0000045 	adrp	x5, e000 <modulus_dbstore>
    5efc:	910c60a5 	add	x5, x5, #0x318
/home/pedro/devel/optee/optee_os/lib/libutils/isoc/bget.c:1071
    5f00:	f9402109 	ldr	x9, [x8,#64]
/home/pedro/devel/optee/optee_os/lib/libutils/isoc/bget.c:1069
    5f04:	f94008a6 	ldr	x6, [x5,#16]
/home/pedro/devel/optee/optee_os/lib/libutils/isoc/bget.c:1071
    5f08:	f9000069 	str	x9, [x3]
/home/pedro/devel/optee/optee_os/lib/libutils/isoc/bget.c:1072
    5f0c:	f9402503 	ldr	x3, [x8,#72]
    5f10:	f9000083 	str	x3, [x4]
/home/pedro/devel/optee/optee_os/lib/libutils/isoc/bget.c:1073
    5f14:	f94774e3 	ldr	x3, [x7,#3816]
    5f18:	f9000003 	str	x3, [x0]
/home/pedro/devel/optee/optee_os/lib/libutils/isoc/bget.c:1075
    5f1c:	92800000 	mov	x0, #0xffffffffffffffff    	// #-1
/home/pedro/devel/optee/optee_os/lib/libutils/isoc/bget.c:1074
    5f20:	f900003f 	str	xzr, [x1]
/home/pedro/devel/optee/optee_os/lib/libutils/isoc/bget.c:1075
    5f24:	f9000040 	str	x0, [x2]
/home/pedro/devel/optee/optee_os/lib/libutils/isoc/bget.c:1076
    5f28:	eb0500df 	cmp	x6, x5
    5f2c:	54000041 	b.ne	5f34 <bstats+0x44>
    5f30:	d65f03c0 	ret
/home/pedro/devel/optee/optee_os/lib/libutils/isoc/bget.c:1077
    5f34:	f94004c3 	ldr	x3, [x6,#8]
    5f38:	f100007f 	cmp	x3, #0x0
    5f3c:	540001ac 	b.gt	5f70 <bstats+0x80>
/home/pedro/devel/optee/optee_os/lib/libutils/isoc/bget.c:1077 (discriminator 1)
    5f40:	d0000023 	adrp	x3, b000 <mpa_set_oct_str+0x7c>
    5f44:	91192063 	add	x3, x3, #0x648
    5f48:	91010063 	add	x3, x3, #0x40
    5f4c:	f0000021 	adrp	x1, c000 <PRIME_TABLE+0x8a0>
    5f50:	f0000020 	adrp	x0, c000 <PRIME_TABLE+0x8a0>
    5f54:	91312021 	add	x1, x1, #0xc48
    5f58:	9138bc00 	add	x0, x0, #0xe2f
/home/pedro/devel/optee/optee_os/lib/libutils/isoc/bget.c:1068 (discriminator 1)
    5f5c:	a9bf7bfd 	stp	x29, x30, [sp,#-16]!
/home/pedro/devel/optee/optee_os/lib/libutils/isoc/bget.c:1077 (discriminator 1)
    5f60:	528086a2 	mov	w2, #0x435                 	// #1077
/home/pedro/devel/optee/optee_os/lib/libutils/isoc/bget.c:1068 (discriminator 1)
    5f64:	910003fd 	mov	x29, sp
/home/pedro/devel/optee/optee_os/lib/libutils/isoc/bget.c:1077 (discriminator 1)
    5f68:	97fffbbf 	bl	4e64 <_assert_log>
    5f6c:	97fffbcf 	bl	4ea8 <_assert_break>
/home/pedro/devel/optee/optee_os/lib/libutils/isoc/bget.c:1078
    5f70:	f9400020 	ldr	x0, [x1]
    5f74:	8b030000 	add	x0, x0, x3
    5f78:	f9000020 	str	x0, [x1]
/home/pedro/devel/optee/optee_os/lib/libutils/isoc/bget.c:1079
    5f7c:	f9400043 	ldr	x3, [x2]
    5f80:	f94004c0 	ldr	x0, [x6,#8]
    5f84:	eb03001f 	cmp	x0, x3
    5f88:	5400004d 	b.le	5f90 <bstats+0xa0>
/home/pedro/devel/optee/optee_os/lib/libutils/isoc/bget.c:1080
    5f8c:	f9000040 	str	x0, [x2]
/home/pedro/devel/optee/optee_os/lib/libutils/isoc/bget.c:1082
    5f90:	f94008c6 	ldr	x6, [x6,#16]
    5f94:	17ffffe5 	b	5f28 <bstats+0x38>

0000000000005f98 <malloc_reset_stats>:
malloc_reset_stats():
/home/pedro/devel/optee/optee_os/lib/libutils/isoc/bget_malloc.c:201
    5f98:	d0000080 	adrp	x0, 17000 <mempool_u32+0xc58>
    5f9c:	913ba000 	add	x0, x0, #0xee8
    5fa0:	b9002c1f 	str	wzr, [x0,#44]
/home/pedro/devel/optee/optee_os/lib/libutils/isoc/bget_malloc.c:203
    5fa4:	2906fc1f 	stp	wzr, wzr, [x0,#52]
/home/pedro/devel/optee/optee_os/lib/libutils/isoc/bget_malloc.c:204
    5fa8:	b9003c1f 	str	wzr, [x0,#60]
/home/pedro/devel/optee/optee_os/lib/libutils/isoc/bget_malloc.c:201
    5fac:	d65f03c0 	ret

0000000000005fb0 <malloc_get_stats>:
malloc_get_stats():
/home/pedro/devel/optee/optee_os/lib/libutils/isoc/bget_malloc.c:209
    5fb0:	a9be7bfd 	stp	x29, x30, [sp,#-32]!
/home/pedro/devel/optee/optee_os/lib/libutils/isoc/bget_malloc.c:212
    5fb4:	d2800702 	mov	x2, #0x38                  	// #56
/home/pedro/devel/optee/optee_os/lib/libutils/isoc/bget_malloc.c:209
    5fb8:	910003fd 	mov	x29, sp
    5fbc:	f9000bf3 	str	x19, [sp,#16]
/home/pedro/devel/optee/optee_os/lib/libutils/isoc/bget_malloc.c:212
    5fc0:	d0000093 	adrp	x19, 17000 <mempool_u32+0xc58>
    5fc4:	913ba261 	add	x1, x19, #0xee8
    5fc8:	91002021 	add	x1, x1, #0x8
    5fcc:	94000216 	bl	6824 <memcpy>
    5fd0:	aa0003e3 	mov	x3, x0
/home/pedro/devel/optee/optee_os/lib/libutils/isoc/bget_malloc.c:213
    5fd4:	f9477660 	ldr	x0, [x19,#3816]
/home/pedro/devel/optee/optee_os/lib/libutils/isoc/bget_malloc.c:215
    5fd8:	f9400bf3 	ldr	x19, [sp,#16]
/home/pedro/devel/optee/optee_os/lib/libutils/isoc/bget_malloc.c:213
    5fdc:	b9002060 	str	w0, [x3,#32]
/home/pedro/devel/optee/optee_os/lib/libutils/isoc/bget_malloc.c:215
    5fe0:	a8c27bfd 	ldp	x29, x30, [sp],#32
    5fe4:	d65f03c0 	ret

0000000000005fe8 <malloc>:
malloc():
/home/pedro/devel/optee/optee_os/lib/libutils/isoc/bget_malloc.c:823
    5fe8:	a9be7bfd 	stp	x29, x30, [sp,#-32]!
raw_malloc():
/home/pedro/devel/optee/optee_os/lib/libutils/isoc/bget_malloc.c:324
    5fec:	f100001f 	cmp	x0, #0x0
malloc():
/home/pedro/devel/optee/optee_os/lib/libutils/isoc/bget_malloc.c:823
    5ff0:	910003fd 	mov	x29, sp
    5ff4:	a90153f3 	stp	x19, x20, [sp,#16]
    5ff8:	aa0003f3 	mov	x19, x0
raw_malloc():
/home/pedro/devel/optee/optee_os/lib/libutils/isoc/bget_malloc.c:327
    5ffc:	9a9f1400 	csinc	x0, x0, xzr, ne
    6000:	97fffe1a 	bl	5868 <bget>
/home/pedro/devel/optee/optee_os/lib/libutils/isoc/bget_malloc.c:329
    6004:	aa1303e1 	mov	x1, x19
/home/pedro/devel/optee/optee_os/lib/libutils/isoc/bget_malloc.c:327
    6008:	aa0003f4 	mov	x20, x0
/home/pedro/devel/optee/optee_os/lib/libutils/isoc/bget_malloc.c:329
    600c:	97fffdc0 	bl	570c <raw_malloc_return_hook>
malloc():
/home/pedro/devel/optee/optee_os/lib/libutils/isoc/bget_malloc.c:830
    6010:	aa1403e0 	mov	x0, x20
    6014:	a94153f3 	ldp	x19, x20, [sp,#16]
    6018:	a8c27bfd 	ldp	x29, x30, [sp],#32
    601c:	d65f03c0 	ret

0000000000006020 <free>:
raw_free():
/home/pedro/devel/optee/optee_os/lib/libutils/isoc/bget_malloc.c:338
    6020:	b4000040 	cbz	x0, 6028 <free+0x8>
/home/pedro/devel/optee/optee_os/lib/libutils/isoc/bget_malloc.c:339
    6024:	17fffeaa 	b	5acc <brel>
    6028:	d65f03c0 	ret

000000000000602c <calloc>:
calloc():
/home/pedro/devel/optee/optee_os/lib/libutils/isoc/bget_malloc.c:841
    602c:	a9be7bfd 	stp	x29, x30, [sp,#-32]!
    6030:	910003fd 	mov	x29, sp
    6034:	a90153f3 	stp	x19, x20, [sp,#16]
raw_calloc():
/home/pedro/devel/optee/optee_os/lib/libutils/isoc/bget_malloc.c:345
    6038:	9b017c13 	mul	x19, x0, x1
/home/pedro/devel/optee/optee_os/lib/libutils/isoc/bget_malloc.c:346
    603c:	d2800014 	mov	x20, #0x0                   	// #0
/home/pedro/devel/optee/optee_os/lib/libutils/isoc/bget_malloc.c:351
    6040:	eb13001f 	cmp	x0, x19
    6044:	fa539022 	ccmp	x1, x19, #0x2, ls
    6048:	540000a8 	b.hi	605c <calloc+0x30>
/home/pedro/devel/optee/optee_os/lib/libutils/isoc/bget_malloc.c:355
    604c:	f100027f 	cmp	x19, #0x0
/home/pedro/devel/optee/optee_os/lib/libutils/isoc/bget_malloc.c:358
    6050:	9a9f1660 	csinc	x0, x19, xzr, ne
    6054:	97fffe7c 	bl	5a44 <bgetz>
    6058:	aa0003f4 	mov	x20, x0
/home/pedro/devel/optee/optee_os/lib/libutils/isoc/bget_malloc.c:360
    605c:	aa1303e1 	mov	x1, x19
    6060:	aa1403e0 	mov	x0, x20
    6064:	97fffdaa 	bl	570c <raw_malloc_return_hook>
calloc():
/home/pedro/devel/optee/optee_os/lib/libutils/isoc/bget_malloc.c:848
    6068:	aa1403e0 	mov	x0, x20
    606c:	a94153f3 	ldp	x19, x20, [sp,#16]
    6070:	a8c27bfd 	ldp	x29, x30, [sp],#32
    6074:	d65f03c0 	ret

0000000000006078 <realloc>:
realloc():
/home/pedro/devel/optee/optee_os/lib/libutils/isoc/bget_malloc.c:856
    6078:	a9be7bfd 	stp	x29, x30, [sp,#-32]!
raw_realloc():
/home/pedro/devel/optee/optee_os/lib/libutils/isoc/bget_malloc.c:378
    607c:	f100003f 	cmp	x1, #0x0
realloc():
/home/pedro/devel/optee/optee_os/lib/libutils/isoc/bget_malloc.c:856
    6080:	910003fd 	mov	x29, sp
    6084:	a90153f3 	stp	x19, x20, [sp,#16]
    6088:	aa0103f3 	mov	x19, x1
raw_realloc():
/home/pedro/devel/optee/optee_os/lib/libutils/isoc/bget_malloc.c:381
    608c:	9a9f1421 	csinc	x1, x1, xzr, ne
    6090:	97ffff3a 	bl	5d78 <bgetr>
/home/pedro/devel/optee/optee_os/lib/libutils/isoc/bget_malloc.c:383
    6094:	aa1303e1 	mov	x1, x19
/home/pedro/devel/optee/optee_os/lib/libutils/isoc/bget_malloc.c:381
    6098:	aa0003f4 	mov	x20, x0
/home/pedro/devel/optee/optee_os/lib/libutils/isoc/bget_malloc.c:383
    609c:	97fffd9c 	bl	570c <raw_malloc_return_hook>
realloc():
/home/pedro/devel/optee/optee_os/lib/libutils/isoc/bget_malloc.c:863
    60a0:	aa1403e0 	mov	x0, x20
    60a4:	a94153f3 	ldp	x19, x20, [sp,#16]
    60a8:	a8c27bfd 	ldp	x29, x30, [sp],#32
    60ac:	d65f03c0 	ret

00000000000060b0 <memalign>:
memalign():
/home/pedro/devel/optee/optee_os/lib/libutils/isoc/bget_malloc.c:866
    60b0:	a9bd7bfd 	stp	x29, x30, [sp,#-48]!
    60b4:	910003fd 	mov	x29, sp
    60b8:	a90153f3 	stp	x19, x20, [sp,#16]
    60bc:	a9025bf5 	stp	x21, x22, [sp,#32]
raw_memalign():
/home/pedro/devel/optee/optee_os/lib/libutils/isoc/bget_malloc.c:542
    60c0:	b4001bc0 	cbz	x0, 6438 <memalign+0x388>
    60c4:	cb0003f3 	neg	x19, x0
    60c8:	ea33001f 	bics	xzr, x0, x19
    60cc:	54001b61 	b.ne	6438 <memalign+0x388>
    60d0:	aa0103f5 	mov	x21, x1
    60d4:	aa0003f4 	mov	x20, x0
/home/pedro/devel/optee/optee_os/lib/libutils/isoc/bget_malloc.c:549
    60d8:	f100401f 	cmp	x0, #0x10
    60dc:	54000188 	b.hi	610c <memalign+0x5c>
raw_malloc():
/home/pedro/devel/optee/optee_os/lib/libutils/isoc/bget_malloc.c:324
    60e0:	f100003f 	cmp	x1, #0x0
/home/pedro/devel/optee/optee_os/lib/libutils/isoc/bget_malloc.c:327
    60e4:	9a9f1420 	csinc	x0, x1, xzr, ne
    60e8:	97fffde0 	bl	5868 <bget>
    60ec:	aa0003f3 	mov	x19, x0
/home/pedro/devel/optee/optee_os/lib/libutils/isoc/bget_malloc.c:329
    60f0:	aa1503e1 	mov	x1, x21
raw_memalign():
/home/pedro/devel/optee/optee_os/lib/libutils/isoc/bget_malloc.c:596
    60f4:	97fffd86 	bl	570c <raw_malloc_return_hook>
memalign():
/home/pedro/devel/optee/optee_os/lib/libutils/isoc/bget_malloc.c:873
    60f8:	aa1303e0 	mov	x0, x19
    60fc:	a94153f3 	ldp	x19, x20, [sp,#16]
    6100:	a9425bf5 	ldp	x21, x22, [sp,#32]
    6104:	a8c37bfd 	ldp	x29, x30, [sp],#48
    6108:	d65f03c0 	ret
raw_memalign():
/home/pedro/devel/optee/optee_os/lib/libutils/isoc/bget_malloc.c:552
    610c:	91008036 	add	x22, x1, #0x20
    6110:	8b0002d6 	add	x22, x22, x0
/home/pedro/devel/optee/optee_os/lib/libutils/isoc/bget_malloc.c:556
    6114:	eb16001f 	cmp	x0, x22
    6118:	fa569022 	ccmp	x1, x22, #0x2, ls
    611c:	540018e8 	b.hi	6438 <memalign+0x388>
/home/pedro/devel/optee/optee_os/lib/libutils/isoc/bget_malloc.c:559
    6120:	aa1603e0 	mov	x0, x22
    6124:	97fffdd1 	bl	5868 <bget>
    6128:	aa0003e1 	mov	x1, x0
/home/pedro/devel/optee/optee_os/lib/libutils/isoc/bget_malloc.c:560
    612c:	b40017e0 	cbz	x0, 6428 <memalign+0x378>
/home/pedro/devel/optee/optee_os/lib/libutils/isoc/bget_malloc.c:563
    6130:	d1000680 	sub	x0, x20, #0x1
    6134:	ea00003f 	tst	x1, x0
    6138:	54000a80 	b.eq	6288 <memalign+0x1d8>
/home/pedro/devel/optee/optee_os/lib/libutils/isoc/bget_malloc.c:576
    613c:	8b010280 	add	x0, x20, x1
/home/pedro/devel/optee/optee_os/lib/libutils/isoc/bget_malloc.c:581
    6140:	8b160036 	add	x22, x1, x22
/home/pedro/devel/optee/optee_os/lib/libutils/isoc/bget_malloc.c:577
    6144:	8a000273 	and	x19, x19, x0
/home/pedro/devel/optee/optee_os/lib/libutils/isoc/bget_malloc.c:579
    6148:	cb010260 	sub	x0, x19, x1
/home/pedro/devel/optee/optee_os/lib/libutils/isoc/bget_malloc.c:580
    614c:	8b140274 	add	x20, x19, x20
    6150:	f1007c1f 	cmp	x0, #0x1f
    6154:	9a939293 	csel	x19, x20, x19, ls
/home/pedro/devel/optee/optee_os/lib/libutils/isoc/bget_malloc.c:581
    6158:	8b1302a0 	add	x0, x21, x19
    615c:	eb16001f 	cmp	x0, x22
    6160:	54000169 	b.ls	618c <memalign+0xdc>
    6164:	b0000023 	adrp	x3, b000 <mpa_set_oct_str+0x7c>
    6168:	91192063 	add	x3, x3, #0x648
    616c:	d0000021 	adrp	x1, c000 <PRIME_TABLE+0x8a0>
    6170:	d0000020 	adrp	x0, c000 <PRIME_TABLE+0x8a0>
    6174:	91012063 	add	x3, x3, #0x48
    6178:	912e6821 	add	x1, x1, #0xb9a
    617c:	9138fc00 	add	x0, x0, #0xe3f
    6180:	528048a2 	mov	w2, #0x245                 	// #581
brel_before():
/home/pedro/devel/optee/optee_os/lib/libutils/isoc/bget_malloc.c:418
    6184:	97fffb38 	bl	4e64 <_assert_log>
    6188:	97fffb48 	bl	4ea8 <_assert_break>
    618c:	eb13003f 	cmp	x1, x19
    6190:	54000143 	b.cc	61b8 <memalign+0x108>
    6194:	b0000023 	adrp	x3, b000 <mpa_set_oct_str+0x7c>
    6198:	91192063 	add	x3, x3, #0x648
    619c:	d0000021 	adrp	x1, c000 <PRIME_TABLE+0x8a0>
    61a0:	d0000020 	adrp	x0, c000 <PRIME_TABLE+0x8a0>
    61a4:	91016063 	add	x3, x3, #0x58
    61a8:	52803442 	mov	w2, #0x1a2                 	// #418
    61ac:	912e6821 	add	x1, x1, #0xb9a
    61b0:	9139ac00 	add	x0, x0, #0xe6b
    61b4:	17fffff4 	b	6184 <memalign+0xd4>
/home/pedro/devel/optee/optee_os/lib/libutils/isoc/bget_malloc.c:420
    61b8:	cb010274 	sub	x20, x19, x1
/home/pedro/devel/optee/optee_os/lib/libutils/isoc/bget_malloc.c:421
    61bc:	f1007e9f 	cmp	x20, #0x1f
    61c0:	54000148 	b.hi	61e8 <memalign+0x138>
    61c4:	b0000023 	adrp	x3, b000 <mpa_set_oct_str+0x7c>
    61c8:	91192063 	add	x3, x3, #0x648
    61cc:	d0000021 	adrp	x1, c000 <PRIME_TABLE+0x8a0>
    61d0:	d0000020 	adrp	x0, c000 <PRIME_TABLE+0x8a0>
    61d4:	91016063 	add	x3, x3, #0x58
    61d8:	528034a2 	mov	w2, #0x1a5                 	// #421
    61dc:	912e6821 	add	x1, x1, #0xb9a
    61e0:	9139f800 	add	x0, x0, #0xe7e
    61e4:	17ffffe8 	b	6184 <memalign+0xd4>
/home/pedro/devel/optee/optee_os/lib/libutils/isoc/bget_malloc.c:425
    61e8:	f85f8022 	ldur	x2, [x1,#-8]
/home/pedro/devel/optee/optee_os/lib/libutils/isoc/bget_malloc.c:424
    61ec:	d1004020 	sub	x0, x1, #0x10
/home/pedro/devel/optee/optee_os/lib/libutils/isoc/bget_malloc.c:430
    61f0:	f85f0021 	ldur	x1, [x1,#-16]
    61f4:	8b020282 	add	x2, x20, x2
    61f8:	b40003e1 	cbz	x1, 6274 <memalign+0x1c4>
/home/pedro/devel/optee/optee_os/lib/libutils/isoc/bget_malloc.c:435
    61fc:	cb010000 	sub	x0, x0, x1
/home/pedro/devel/optee/optee_os/lib/libutils/isoc/bget_malloc.c:436
    6200:	f9400403 	ldr	x3, [x0,#8]
    6204:	eb03003f 	cmp	x1, x3
    6208:	54000140 	b.eq	6230 <memalign+0x180>
    620c:	b0000023 	adrp	x3, b000 <mpa_set_oct_str+0x7c>
    6210:	91192063 	add	x3, x3, #0x648
    6214:	d0000021 	adrp	x1, c000 <PRIME_TABLE+0x8a0>
    6218:	d0000020 	adrp	x0, c000 <PRIME_TABLE+0x8a0>
    621c:	91016063 	add	x3, x3, #0x58
    6220:	52803682 	mov	w2, #0x1b4                 	// #436
    6224:	912e6821 	add	x1, x1, #0xb9a
    6228:	913a9400 	add	x0, x0, #0xea5
    622c:	17ffffd6 	b	6184 <memalign+0xd4>
/home/pedro/devel/optee/optee_os/lib/libutils/isoc/bget_malloc.c:437
    6230:	8b010281 	add	x1, x20, x1
    6234:	f9000401 	str	x1, [x0,#8]
/home/pedro/devel/optee/optee_os/lib/libutils/isoc/bget_malloc.c:442
    6238:	a93f0a61 	stp	x1, x2, [x19,#-16]
/home/pedro/devel/optee/optee_os/lib/libutils/isoc/bget_malloc.c:456
    623c:	b0000081 	adrp	x1, 17000 <mempool_u32+0xc58>
    6240:	f9477420 	ldr	x0, [x1,#3816]
    6244:	cb140014 	sub	x20, x0, x20
    6248:	f9077434 	str	x20, [x1,#3816]
/home/pedro/devel/optee/optee_os/lib/libutils/isoc/bget_malloc.c:457
    624c:	b6f80214 	tbz	x20, #63, 628c <memalign+0x1dc>
    6250:	b0000023 	adrp	x3, b000 <mpa_set_oct_str+0x7c>
    6254:	91192063 	add	x3, x3, #0x648
    6258:	91016063 	add	x3, x3, #0x58
    625c:	52803922 	mov	w2, #0x1c9                 	// #457
brel_after():
/home/pedro/devel/optee/optee_os/lib/libutils/isoc/bget_malloc.c:529
    6260:	d0000021 	adrp	x1, c000 <PRIME_TABLE+0x8a0>
    6264:	d0000020 	adrp	x0, c000 <PRIME_TABLE+0x8a0>
    6268:	912e6821 	add	x1, x1, #0xb9a
    626c:	91349400 	add	x0, x0, #0xd25
    6270:	17ffffc5 	b	6184 <memalign+0xd4>
brel_before():
/home/pedro/devel/optee/optee_os/lib/libutils/isoc/bget_malloc.c:450
    6274:	f81f8262 	stur	x2, [x19,#-8]
/home/pedro/devel/optee/optee_os/lib/libutils/isoc/bget_malloc.c:452
    6278:	aa1403e1 	mov	x1, x20
    627c:	d1004262 	sub	x2, x19, #0x10
    6280:	97fffd36 	bl	5758 <create_free_block>
    6284:	17ffffee 	b	623c <memalign+0x18c>
raw_memalign():
/home/pedro/devel/optee/optee_os/lib/libutils/isoc/bget_malloc.c:563
    6288:	aa0103f3 	mov	x19, x1
brel_after():
/home/pedro/devel/optee/optee_os/lib/libutils/isoc/bget_malloc.c:473
    628c:	f10042bf 	cmp	x21, #0x10
    6290:	d2800200 	mov	x0, #0x10                  	// #16
    6294:	9a8022a0 	csel	x0, x21, x0, cs
/home/pedro/devel/optee/optee_os/lib/libutils/isoc/bget_malloc.c:477
    6298:	f85f8262 	ldur	x2, [x19,#-8]
/home/pedro/devel/optee/optee_os/lib/libutils/isoc/bget_malloc.c:473
    629c:	91003c00 	add	x0, x0, #0xf
/home/pedro/devel/optee/optee_os/lib/libutils/isoc/bget_malloc.c:477
    62a0:	d1004264 	sub	x4, x19, #0x10
/home/pedro/devel/optee/optee_os/lib/libutils/isoc/bget_malloc.c:473
    62a4:	927cec00 	and	x0, x0, #0xfffffffffffffff0
/home/pedro/devel/optee/optee_os/lib/libutils/isoc/bget_malloc.c:477
    62a8:	cb0203f4 	neg	x20, x2
/home/pedro/devel/optee/optee_os/lib/libutils/isoc/bget_malloc.c:476
    62ac:	91004001 	add	x1, x0, #0x10
/home/pedro/devel/optee/optee_os/lib/libutils/isoc/bget_malloc.c:477
    62b0:	eb14003f 	cmp	x1, x20
    62b4:	5400014d 	b.le	62dc <memalign+0x22c>
    62b8:	b0000023 	adrp	x3, b000 <mpa_set_oct_str+0x7c>
    62bc:	91192063 	add	x3, x3, #0x648
    62c0:	d0000021 	adrp	x1, c000 <PRIME_TABLE+0x8a0>
    62c4:	d0000020 	adrp	x0, c000 <PRIME_TABLE+0x8a0>
    62c8:	9101a063 	add	x3, x3, #0x68
    62cc:	52803ba2 	mov	w2, #0x1dd                 	// #477
    62d0:	912e6821 	add	x1, x1, #0xb9a
    62d4:	913b1800 	add	x0, x0, #0xec6
    62d8:	17ffffab 	b	6184 <memalign+0xd4>
/home/pedro/devel/optee/optee_os/lib/libutils/isoc/bget_malloc.c:483
    62dc:	cb010294 	sub	x20, x20, x1
/home/pedro/devel/optee/optee_os/lib/libutils/isoc/bget_malloc.c:484
    62e0:	f1007e9f 	cmp	x20, #0x1f
    62e4:	54000a4d 	b.le	642c <memalign+0x37c>
/home/pedro/devel/optee/optee_os/lib/libutils/isoc/bget_malloc.c:487
    62e8:	928001e3 	mov	x3, #0xfffffffffffffff0    	// #-16
    62ec:	cb020063 	sub	x3, x3, x2
    62f0:	8b030262 	add	x2, x19, x3
/home/pedro/devel/optee/optee_os/lib/libutils/isoc/bget_malloc.c:491
    62f4:	cb0103e1 	neg	x1, x1
    62f8:	f9000481 	str	x1, [x4,#8]
    62fc:	8b000260 	add	x0, x19, x0
/home/pedro/devel/optee/optee_os/lib/libutils/isoc/bget_malloc.c:492
    6300:	f9400441 	ldr	x1, [x2,#8]
    6304:	f100003f 	cmp	x1, #0x0
    6308:	540008ad 	b.le	641c <memalign+0x36c>
/home/pedro/devel/optee/optee_os/lib/libutils/isoc/bget_malloc.c:498
    630c:	f8636a63 	ldr	x3, [x19,x3]
    6310:	b4000143 	cbz	x3, 6338 <memalign+0x288>
    6314:	b0000023 	adrp	x3, b000 <mpa_set_oct_str+0x7c>
    6318:	91192063 	add	x3, x3, #0x648
    631c:	d0000021 	adrp	x1, c000 <PRIME_TABLE+0x8a0>
    6320:	d0000020 	adrp	x0, c000 <PRIME_TABLE+0x8a0>
    6324:	9101a063 	add	x3, x3, #0x68
    6328:	52803e42 	mov	w2, #0x1f2                 	// #498
    632c:	912e6821 	add	x1, x1, #0xb9a
    6330:	913b7000 	add	x0, x0, #0xedc
    6334:	17ffff94 	b	6184 <memalign+0xd4>
/home/pedro/devel/optee/optee_os/lib/libutils/isoc/bget_malloc.c:499
    6338:	f8616843 	ldr	x3, [x2,x1]
    633c:	eb03003f 	cmp	x1, x3
    6340:	54000140 	b.eq	6368 <memalign+0x2b8>
    6344:	b0000023 	adrp	x3, b000 <mpa_set_oct_str+0x7c>
    6348:	91192063 	add	x3, x3, #0x648
    634c:	d0000021 	adrp	x1, c000 <PRIME_TABLE+0x8a0>
    6350:	d0000020 	adrp	x0, c000 <PRIME_TABLE+0x8a0>
    6354:	9101a063 	add	x3, x3, #0x68
    6358:	52803e62 	mov	w2, #0x1f3                 	// #499
    635c:	912e6821 	add	x1, x1, #0xb9a
    6360:	913bc800 	add	x0, x0, #0xef2
    6364:	17ffff88 	b	6184 <memalign+0xd4>
/home/pedro/devel/optee/optee_os/lib/libutils/isoc/bget_malloc.c:503
    6368:	8b010283 	add	x3, x20, x1
    636c:	a9000c1f 	stp	xzr, x3, [x0]
/home/pedro/devel/optee/optee_os/lib/libutils/isoc/bget_malloc.c:506
    6370:	f8616843 	ldr	x3, [x2,x1]
    6374:	8b140063 	add	x3, x3, x20
    6378:	f8216843 	str	x3, [x2,x1]
/home/pedro/devel/optee/optee_os/lib/libutils/isoc/bget_malloc.c:512
    637c:	f9400c41 	ldr	x1, [x2,#24]
    6380:	f9400823 	ldr	x3, [x1,#16]
    6384:	eb03005f 	cmp	x2, x3
    6388:	54000140 	b.eq	63b0 <memalign+0x300>
    638c:	b0000023 	adrp	x3, b000 <mpa_set_oct_str+0x7c>
    6390:	91192063 	add	x3, x3, #0x648
    6394:	d0000021 	adrp	x1, c000 <PRIME_TABLE+0x8a0>
    6398:	d0000020 	adrp	x0, c000 <PRIME_TABLE+0x8a0>
    639c:	9101a063 	add	x3, x3, #0x68
    63a0:	52804002 	mov	w2, #0x200                 	// #512
    63a4:	912e6821 	add	x1, x1, #0xb9a
    63a8:	913c4400 	add	x0, x0, #0xf11
    63ac:	17ffff76 	b	6184 <memalign+0xd4>
/home/pedro/devel/optee/optee_os/lib/libutils/isoc/bget_malloc.c:513
    63b0:	f9400843 	ldr	x3, [x2,#16]
    63b4:	f9400c64 	ldr	x4, [x3,#24]
    63b8:	eb04005f 	cmp	x2, x4
    63bc:	54000140 	b.eq	63e4 <memalign+0x334>
    63c0:	b0000023 	adrp	x3, b000 <mpa_set_oct_str+0x7c>
    63c4:	91192063 	add	x3, x3, #0x648
    63c8:	d0000021 	adrp	x1, c000 <PRIME_TABLE+0x8a0>
    63cc:	d0000020 	adrp	x0, c000 <PRIME_TABLE+0x8a0>
    63d0:	9101a063 	add	x3, x3, #0x68
    63d4:	52804022 	mov	w2, #0x201                 	// #513
    63d8:	912e6821 	add	x1, x1, #0xb9a
    63dc:	913cc000 	add	x0, x0, #0xf30
    63e0:	17ffff69 	b	6184 <memalign+0xd4>
/home/pedro/devel/optee/optee_os/lib/libutils/isoc/bget_malloc.c:516
    63e4:	a9010403 	stp	x3, x1, [x0,#16]
/home/pedro/devel/optee/optee_os/lib/libutils/isoc/bget_malloc.c:520
    63e8:	f9000820 	str	x0, [x1,#16]
/home/pedro/devel/optee/optee_os/lib/libutils/isoc/bget_malloc.c:521
    63ec:	f9400801 	ldr	x1, [x0,#16]
    63f0:	f9000c20 	str	x0, [x1,#24]
/home/pedro/devel/optee/optee_os/lib/libutils/isoc/bget_malloc.c:528
    63f4:	b0000081 	adrp	x1, 17000 <mempool_u32+0xc58>
    63f8:	f9477420 	ldr	x0, [x1,#3816]
    63fc:	cb140014 	sub	x20, x0, x20
    6400:	f9077434 	str	x20, [x1,#3816]
/home/pedro/devel/optee/optee_os/lib/libutils/isoc/bget_malloc.c:529
    6404:	b6f80154 	tbz	x20, #63, 642c <memalign+0x37c>
    6408:	b0000023 	adrp	x3, b000 <mpa_set_oct_str+0x7c>
    640c:	91192063 	add	x3, x3, #0x648
    6410:	9101a063 	add	x3, x3, #0x68
    6414:	52804222 	mov	w2, #0x211                 	// #529
    6418:	17ffff92 	b	6260 <memalign+0x1b0>
/home/pedro/devel/optee/optee_os/lib/libutils/isoc/bget_malloc.c:524
    641c:	aa1403e1 	mov	x1, x20
    6420:	97fffcce 	bl	5758 <create_free_block>
    6424:	17fffff4 	b	63f4 <memalign+0x344>
raw_memalign():
/home/pedro/devel/optee/optee_os/lib/libutils/isoc/bget_malloc.c:560
    6428:	d2800013 	mov	x19, #0x0                   	// #0
/home/pedro/devel/optee/optee_os/lib/libutils/isoc/bget_malloc.c:596
    642c:	aa1503e1 	mov	x1, x21
    6430:	aa1303e0 	mov	x0, x19
    6434:	17ffff30 	b	60f4 <memalign+0x44>
/home/pedro/devel/optee/optee_os/lib/libutils/isoc/bget_malloc.c:543
    6438:	d2800013 	mov	x19, #0x0                   	// #0
memalign():
/home/pedro/devel/optee/optee_os/lib/libutils/isoc/bget_malloc.c:872
    643c:	17ffff2f 	b	60f8 <memalign+0x48>

0000000000006440 <malloc_add_pool>:
malloc_add_pool():
/home/pedro/devel/optee/optee_os/lib/libutils/isoc/bget_malloc.c:884
    6440:	a9bc7bfd 	stp	x29, x30, [sp,#-64]!
    6444:	910003fd 	mov	x29, sp
    6448:	a90153f3 	stp	x19, x20, [sp,#16]
/home/pedro/devel/optee/optee_os/lib/libutils/isoc/bget_malloc.c:889
    644c:	8b010013 	add	x19, x0, x1
/home/pedro/devel/optee/optee_os/lib/libutils/isoc/bget_malloc.c:884
    6450:	a9025bf5 	stp	x21, x22, [sp,#32]
/home/pedro/devel/optee/optee_os/lib/libutils/isoc/bget_malloc.c:895
    6454:	91003c00 	add	x0, x0, #0xf
/home/pedro/devel/optee/optee_os/lib/libutils/isoc/bget_malloc.c:884
    6458:	a90363f7 	stp	x23, x24, [sp,#48]
/home/pedro/devel/optee/optee_os/lib/libutils/isoc/bget_malloc.c:895
    645c:	927cec14 	and	x20, x0, #0xfffffffffffffff0
/home/pedro/devel/optee/optee_os/lib/libutils/isoc/bget_malloc.c:896
    6460:	927cee73 	and	x19, x19, #0xfffffffffffffff0
/home/pedro/devel/optee/optee_os/lib/libutils/isoc/bget_malloc.c:897
    6464:	eb13029f 	cmp	x20, x19
    6468:	54000163 	b.cc	6494 <malloc_add_pool+0x54>
/home/pedro/devel/optee/optee_os/lib/libutils/isoc/bget_malloc.c:897 (discriminator 1)
    646c:	b0000023 	adrp	x3, b000 <mpa_set_oct_str+0x7c>
    6470:	91192063 	add	x3, x3, #0x648
    6474:	d0000021 	adrp	x1, c000 <PRIME_TABLE+0x8a0>
    6478:	d0000020 	adrp	x0, c000 <PRIME_TABLE+0x8a0>
    647c:	9101e063 	add	x3, x3, #0x78
    6480:	912e6821 	add	x1, x1, #0xb9a
    6484:	913d3c00 	add	x0, x0, #0xf4f
    6488:	52807022 	mov	w2, #0x381                 	// #897
/home/pedro/devel/optee/optee_os/lib/libutils/isoc/bget_malloc.c:909 (discriminator 1)
    648c:	97fffa76 	bl	4e64 <_assert_log>
    6490:	97fffa86 	bl	4ea8 <_assert_break>
/home/pedro/devel/optee/optee_os/lib/libutils/isoc/bget_malloc.c:899
    6494:	cb140273 	sub	x19, x19, x20
    6498:	f100be7f 	cmp	x19, #0x2f
    649c:	54000449 	b.ls	6524 <malloc_add_pool+0xe4>
/home/pedro/devel/optee/optee_os/lib/libutils/isoc/bget_malloc.c:907
    64a0:	b0000095 	adrp	x21, 17000 <mempool_u32+0xc58>
    64a4:	913ba2b5 	add	x21, x21, #0xee8
/home/pedro/devel/optee/optee_os/lib/libutils/isoc/bget_malloc.c:906
    64a8:	aa1303e1 	mov	x1, x19
    64ac:	aa1403e0 	mov	x0, x20
    64b0:	97fffe59 	bl	5e14 <bpool>
raw_realloc():
/home/pedro/devel/optee/optee_os/lib/libutils/isoc/bget_malloc.c:381
    64b4:	a94502b6 	ldp	x22, x0, [x21,#80]
malloc_add_pool():
/home/pedro/devel/optee/optee_os/lib/libutils/isoc/bget_malloc.c:907
    64b8:	910006d6 	add	x22, x22, #0x1
/home/pedro/devel/optee/optee_os/lib/libutils/isoc/bget_malloc.c:908
    64bc:	d37ceed7 	lsl	x23, x22, #4
raw_realloc():
/home/pedro/devel/optee/optee_os/lib/libutils/isoc/bget_malloc.c:378
    64c0:	f10002ff 	cmp	x23, #0x0
/home/pedro/devel/optee/optee_os/lib/libutils/isoc/bget_malloc.c:381
    64c4:	9a9f16e1 	csinc	x1, x23, xzr, ne
    64c8:	97fffe2c 	bl	5d78 <bgetr>
    64cc:	aa0003f8 	mov	x24, x0
/home/pedro/devel/optee/optee_os/lib/libutils/isoc/bget_malloc.c:383
    64d0:	aa1703e1 	mov	x1, x23
    64d4:	97fffc8e 	bl	570c <raw_malloc_return_hook>
malloc_add_pool():
/home/pedro/devel/optee/optee_os/lib/libutils/isoc/bget_malloc.c:909
    64d8:	b5000158 	cbnz	x24, 6500 <malloc_add_pool+0xc0>
/home/pedro/devel/optee/optee_os/lib/libutils/isoc/bget_malloc.c:909 (discriminator 1)
    64dc:	b0000023 	adrp	x3, b000 <mpa_set_oct_str+0x7c>
    64e0:	91192063 	add	x3, x3, #0x648
    64e4:	d0000021 	adrp	x1, c000 <PRIME_TABLE+0x8a0>
    64e8:	d0000020 	adrp	x0, c000 <PRIME_TABLE+0x8a0>
    64ec:	9101e063 	add	x3, x3, #0x78
    64f0:	528071a2 	mov	w2, #0x38d                 	// #909
    64f4:	912e6821 	add	x1, x1, #0xb9a
    64f8:	913d6c00 	add	x0, x0, #0xf5b
    64fc:	17ffffe4 	b	648c <malloc_add_pool+0x4c>
/home/pedro/devel/optee/optee_os/lib/libutils/isoc/bget_malloc.c:911
    6500:	f9402aa0 	ldr	x0, [x21,#80]
/home/pedro/devel/optee/optee_os/lib/libutils/isoc/bget_malloc.c:910
    6504:	a90562b6 	stp	x22, x24, [x21,#80]
/home/pedro/devel/optee/optee_os/lib/libutils/isoc/bget_malloc.c:911
    6508:	d37cec00 	lsl	x0, x0, #4
    650c:	8b000301 	add	x1, x24, x0
    6510:	f8206b14 	str	x20, [x24,x0]
/home/pedro/devel/optee/optee_os/lib/libutils/isoc/bget_malloc.c:912
    6514:	f9000433 	str	x19, [x1,#8]
/home/pedro/devel/optee/optee_os/lib/libutils/isoc/bget_malloc.c:914
    6518:	b94032a1 	ldr	w1, [x21,#48]
    651c:	0b130033 	add	w19, w1, w19
    6520:	b90032b3 	str	w19, [x21,#48]
/home/pedro/devel/optee/optee_os/lib/libutils/isoc/bget_malloc.c:918
    6524:	a94153f3 	ldp	x19, x20, [sp,#16]
    6528:	a9425bf5 	ldp	x21, x22, [sp,#32]
    652c:	a94363f7 	ldp	x23, x24, [sp,#48]
    6530:	a8c47bfd 	ldp	x29, x30, [sp],#64
    6534:	d65f03c0 	ret

0000000000006538 <malloc_buffer_is_within_alloced>:
malloc_buffer_is_within_alloced():
/home/pedro/devel/optee/optee_os/lib/libutils/isoc/bget_malloc.c:925
    6538:	8b010001 	add	x1, x0, x1
/home/pedro/devel/optee/optee_os/lib/libutils/isoc/bget_malloc.c:932
    653c:	eb01001f 	cmp	x0, x1
    6540:	54000b88 	b.hi	66b0 <malloc_buffer_is_within_alloced+0x178>
    6544:	aa0003e5 	mov	x5, x0
bpool_foreach_iterator_init():
/home/pedro/devel/optee/optee_os/lib/libutils/isoc/bget_malloc.c:247
    6548:	b0000080 	adrp	x0, 17000 <mempool_u32+0xc58>
    654c:	913ba000 	add	x0, x0, #0xee8
/home/pedro/devel/optee/optee_os/lib/libutils/isoc/bget_malloc.c:246
    6550:	d2800006 	mov	x6, #0x0                   	// #0
bpool_foreach_pool():
/home/pedro/devel/optee/optee_os/lib/libutils/isoc/bget_malloc.c:256
    6554:	d2f0000b 	mov	x11, #0x8000000000000000    	// #-9223372036854775808
bget_buf_size():
/home/pedro/devel/optee/optee_os/lib/libutils/isoc/bget_malloc.c:618
    6558:	928001e9 	mov	x9, #0xfffffffffffffff0    	// #-16
bpool_foreach_iterator_init():
/home/pedro/devel/optee/optee_os/lib/libutils/isoc/bget_malloc.c:247
    655c:	a9451c0a 	ldp	x10, x7, [x0,#80]
    6560:	f94000e3 	ldr	x3, [x7]
bpool_foreach_pool():
/home/pedro/devel/optee/optee_os/lib/libutils/isoc/bget_malloc.c:254
    6564:	f9400462 	ldr	x2, [x3,#8]
bpool_foreach():
/home/pedro/devel/optee/optee_os/lib/libutils/isoc/bget_malloc.c:296
    6568:	aa0303e4 	mov	x4, x3
bpool_foreach_pool():
/home/pedro/devel/optee/optee_os/lib/libutils/isoc/bget_malloc.c:256
    656c:	eb0b005f 	cmp	x2, x11
    6570:	540009a0 	b.eq	66a4 <malloc_buffer_is_within_alloced+0x16c>
malloc_buffer_is_within_alloced():
/home/pedro/devel/optee/optee_os/lib/libutils/isoc/bget_malloc.c:921
    6574:	a9bf7bfd 	stp	x29, x30, [sp,#-16]!
    6578:	910003fd 	mov	x29, sp
    657c:	1400000d 	b	65b0 <malloc_buffer_is_within_alloced+0x78>
bpool_foreach_pool():
/home/pedro/devel/optee/optee_os/lib/libutils/isoc/bget_malloc.c:273
    6580:	91004084 	add	x4, x4, #0x10
malloc_buffer_is_within_alloced():
/home/pedro/devel/optee/optee_os/lib/libutils/isoc/bget_malloc.c:941
    6584:	8b020082 	add	x2, x4, x2
/home/pedro/devel/optee/optee_os/lib/libutils/isoc/bget_malloc.c:943
    6588:	eb02003f 	cmp	x1, x2
    658c:	1a9f87e2 	cset	w2, ls
    6590:	eb0400bf 	cmp	x5, x4
    6594:	1a9f37e0 	cset	w0, cs
    6598:	6a000040 	ands	w0, w2, w0
    659c:	540007a1 	b.ne	6690 <malloc_buffer_is_within_alloced+0x158>
bpool_foreach_pool():
/home/pedro/devel/optee/optee_os/lib/libutils/isoc/bget_malloc.c:254
    65a0:	f9400462 	ldr	x2, [x3,#8]
bpool_foreach():
/home/pedro/devel/optee/optee_os/lib/libutils/isoc/bget_malloc.c:296
    65a4:	aa0303e4 	mov	x4, x3
bpool_foreach_pool():
/home/pedro/devel/optee/optee_os/lib/libutils/isoc/bget_malloc.c:256
    65a8:	eb0b005f 	cmp	x2, x11
    65ac:	540006a0 	b.eq	6680 <malloc_buffer_is_within_alloced+0x148>
/home/pedro/devel/optee/optee_os/lib/libutils/isoc/bget_malloc.c:259
    65b0:	b6f80242 	tbz	x2, #63, 65f8 <malloc_buffer_is_within_alloced+0xc0>
/home/pedro/devel/optee/optee_os/lib/libutils/isoc/bget_malloc.c:261
    65b4:	cb0203e8 	neg	x8, x2
/home/pedro/devel/optee/optee_os/lib/libutils/isoc/bget_malloc.c:263
    65b8:	52800000 	mov	w0, #0x0                   	// #0
/home/pedro/devel/optee/optee_os/lib/libutils/isoc/bget_malloc.c:276
    65bc:	8b080063 	add	x3, x3, x8
bpool_foreach():
/home/pedro/devel/optee/optee_os/lib/libutils/isoc/bget_malloc.c:287
    65c0:	35ffff00 	cbnz	w0, 65a0 <malloc_buffer_is_within_alloced+0x68>
bget_buf_size():
/home/pedro/devel/optee/optee_os/lib/libutils/isoc/bget_malloc.c:618
    65c4:	cb020122 	sub	x2, x9, x2
/home/pedro/devel/optee/optee_os/lib/libutils/isoc/bget_malloc.c:619
    65c8:	f100005f 	cmp	x2, #0x0
    65cc:	54fffdac 	b.gt	6580 <malloc_buffer_is_within_alloced+0x48>
    65d0:	b0000023 	adrp	x3, b000 <mpa_set_oct_str+0x7c>
    65d4:	91192063 	add	x3, x3, #0x648
    65d8:	91022063 	add	x3, x3, #0x88
    65dc:	d0000021 	adrp	x1, c000 <PRIME_TABLE+0x8a0>
    65e0:	d0000020 	adrp	x0, c000 <PRIME_TABLE+0x8a0>
    65e4:	912e6821 	add	x1, x1, #0xb9a
    65e8:	9137c000 	add	x0, x0, #0xdf0
    65ec:	52804d62 	mov	w2, #0x26b                 	// #619
    65f0:	97fffa1d 	bl	4e64 <_assert_log>
    65f4:	97fffa2d 	bl	4ea8 <_assert_break>
bpool_foreach_pool():
/home/pedro/devel/optee/optee_os/lib/libutils/isoc/bget_malloc.c:269
    65f8:	f9400c60 	ldr	x0, [x3,#24]
    65fc:	f9400800 	ldr	x0, [x0,#16]
    6600:	eb00007f 	cmp	x3, x0
    6604:	54000160 	b.eq	6630 <malloc_buffer_is_within_alloced+0xf8>
    6608:	b0000023 	adrp	x3, b000 <mpa_set_oct_str+0x7c>
    660c:	91192063 	add	x3, x3, #0x648
    6610:	91026063 	add	x3, x3, #0x98
    6614:	d0000021 	adrp	x1, c000 <PRIME_TABLE+0x8a0>
    6618:	d0000020 	adrp	x0, c000 <PRIME_TABLE+0x8a0>
    661c:	912e6821 	add	x1, x1, #0xb9a
    6620:	91326400 	add	x0, x0, #0xc99
    6624:	528021a2 	mov	w2, #0x10d                 	// #269
    6628:	97fffa0f 	bl	4e64 <_assert_log>
    662c:	97fffa1f 	bl	4ea8 <_assert_break>
/home/pedro/devel/optee/optee_os/lib/libutils/isoc/bget_malloc.c:270
    6630:	f9400860 	ldr	x0, [x3,#16]
    6634:	f9400c00 	ldr	x0, [x0,#24]
    6638:	eb00007f 	cmp	x3, x0
    663c:	54000160 	b.eq	6668 <malloc_buffer_is_within_alloced+0x130>
    6640:	b0000023 	adrp	x3, b000 <mpa_set_oct_str+0x7c>
    6644:	91192063 	add	x3, x3, #0x648
    6648:	91026063 	add	x3, x3, #0x98
    664c:	d0000021 	adrp	x1, c000 <PRIME_TABLE+0x8a0>
    6650:	d0000020 	adrp	x0, c000 <PRIME_TABLE+0x8a0>
    6654:	912e6821 	add	x1, x1, #0xb9a
    6658:	9132d000 	add	x0, x0, #0xcb4
    665c:	528021c2 	mov	w2, #0x10e                 	// #270
    6660:	97fffa01 	bl	4e64 <_assert_log>
    6664:	97fffa11 	bl	4ea8 <_assert_break>
    6668:	aa0203e8 	mov	x8, x2
/home/pedro/devel/optee/optee_os/lib/libutils/isoc/bget_malloc.c:266
    666c:	52800020 	mov	w0, #0x1                   	// #1
    6670:	17ffffd3 	b	65bc <malloc_buffer_is_within_alloced+0x84>
bpool_foreach():
/home/pedro/devel/optee/optee_os/lib/libutils/isoc/bget_malloc.c:296
    6674:	d37cecc0 	lsl	x0, x6, #4
    6678:	f86068e3 	ldr	x3, [x7,x0]
    667c:	17ffffc9 	b	65a0 <malloc_buffer_is_within_alloced+0x68>
/home/pedro/devel/optee/optee_os/lib/libutils/isoc/bget_malloc.c:292
    6680:	910004c6 	add	x6, x6, #0x1
    6684:	eb0a00df 	cmp	x6, x10
    6688:	54ffff63 	b.cc	6674 <malloc_buffer_is_within_alloced+0x13c>
malloc_buffer_is_within_alloced():
/home/pedro/devel/optee/optee_os/lib/libutils/isoc/bget_malloc.c:926
    668c:	52800000 	mov	w0, #0x0                   	// #0
/home/pedro/devel/optee/optee_os/lib/libutils/isoc/bget_malloc.c:953
    6690:	a8c17bfd 	ldp	x29, x30, [sp],#16
    6694:	d65f03c0 	ret
bpool_foreach():
/home/pedro/devel/optee/optee_os/lib/libutils/isoc/bget_malloc.c:296
    6698:	d37cecc0 	lsl	x0, x6, #4
    669c:	f86068e3 	ldr	x3, [x7,x0]
    66a0:	17ffffb1 	b	6564 <malloc_buffer_is_within_alloced+0x2c>
/home/pedro/devel/optee/optee_os/lib/libutils/isoc/bget_malloc.c:292
    66a4:	910004c6 	add	x6, x6, #0x1
    66a8:	eb0a00df 	cmp	x6, x10
    66ac:	54ffff63 	b.cc	6698 <malloc_buffer_is_within_alloced+0x160>
malloc_buffer_is_within_alloced():
/home/pedro/devel/optee/optee_os/lib/libutils/isoc/bget_malloc.c:926
    66b0:	52800000 	mov	w0, #0x0                   	// #0
/home/pedro/devel/optee/optee_os/lib/libutils/isoc/bget_malloc.c:952
    66b4:	d65f03c0 	ret

00000000000066b8 <malloc_buffer_overlaps_heap>:
malloc_buffer_overlaps_heap():
/home/pedro/devel/optee/optee_os/lib/libutils/isoc/bget_malloc.c:965
    66b8:	b0000082 	adrp	x2, 17000 <mempool_u32+0xc58>
    66bc:	913ba042 	add	x2, x2, #0xee8
/home/pedro/devel/optee/optee_os/lib/libutils/isoc/bget_malloc.c:958
    66c0:	8b010001 	add	x1, x0, x1
/home/pedro/devel/optee/optee_os/lib/libutils/isoc/bget_malloc.c:965
    66c4:	d2800005 	mov	x5, #0x0                   	// #0
    66c8:	a9450c47 	ldp	x7, x3, [x2,#80]
/home/pedro/devel/optee/optee_os/lib/libutils/isoc/bget_malloc.c:965 (discriminator 1)
    66cc:	eb0700bf 	cmp	x5, x7
    66d0:	54000081 	b.ne	66e0 <malloc_buffer_overlaps_heap+0x28>
/home/pedro/devel/optee/optee_os/lib/libutils/isoc/bget_malloc.c:960
    66d4:	52800002 	mov	w2, #0x0                   	// #0
/home/pedro/devel/optee/optee_os/lib/libutils/isoc/bget_malloc.c:983
    66d8:	2a0203e0 	mov	w0, w2
    66dc:	d65f03c0 	ret
/home/pedro/devel/optee/optee_os/lib/libutils/isoc/bget_malloc.c:967
    66e0:	a9401066 	ldp	x6, x4, [x3]
/home/pedro/devel/optee/optee_os/lib/libutils/isoc/bget_malloc.c:969
    66e4:	eb01001f 	cmp	x0, x1
    66e8:	1a9f97e2 	cset	w2, hi
/home/pedro/devel/optee/optee_os/lib/libutils/isoc/bget_malloc.c:967
    66ec:	8b0400c4 	add	x4, x6, x4
/home/pedro/devel/optee/optee_os/lib/libutils/isoc/bget_malloc.c:969
    66f0:	eb0400df 	cmp	x6, x4
    66f4:	1a9f97e8 	cset	w8, hi
    66f8:	2a080042 	orr	w2, w2, w8
    66fc:	35fffee2 	cbnz	w2, 66d8 <malloc_buffer_overlaps_heap+0x20>
/home/pedro/devel/optee/optee_os/lib/libutils/isoc/bget_malloc.c:974
    6700:	eb06003f 	cmp	x1, x6
    6704:	91004063 	add	x3, x3, #0x10
    6708:	1a9f97e2 	cset	w2, hi
    670c:	eb04001f 	cmp	x0, x4
    6710:	1a9f27e4 	cset	w4, cc
    6714:	2a040042 	orr	w2, w2, w4
    6718:	35fffe02 	cbnz	w2, 66d8 <malloc_buffer_overlaps_heap+0x20>
/home/pedro/devel/optee/optee_os/lib/libutils/isoc/bget_malloc.c:965 (discriminator 2)
    671c:	910004a5 	add	x5, x5, #0x1
    6720:	17ffffeb 	b	66cc <malloc_buffer_overlaps_heap+0x14>

0000000000006724 <snprintf>:
snprintf():
/home/pedro/devel/optee/optee_os/lib/libutils/isoc/snprintf.c:10
    6724:	a9b07bfd 	stp	x29, x30, [sp,#-256]!
    6728:	910003fd 	mov	x29, sp
    672c:	a90d93a3 	stp	x3, x4, [x29,#216]
/home/pedro/devel/optee/optee_os/lib/libutils/isoc/snprintf.c:14
    6730:	910403a3 	add	x3, x29, #0x100
    6734:	a9030fa3 	stp	x3, x3, [x29,#48]
    6738:	910343a3 	add	x3, x29, #0xd0
    673c:	f90023a3 	str	x3, [x29,#64]
    6740:	128004e3 	mov	w3, #0xffffffd8            	// #-40
    6744:	b9004ba3 	str	w3, [x29,#72]
    6748:	12800fe3 	mov	w3, #0xffffff80            	// #-128
    674c:	b9004fa3 	str	w3, [x29,#76]
/home/pedro/devel/optee/optee_os/lib/libutils/isoc/snprintf.c:15
    6750:	910043a3 	add	x3, x29, #0x10
/home/pedro/devel/optee/optee_os/lib/libutils/isoc/snprintf.c:10
    6754:	a90e9ba5 	stp	x5, x6, [x29,#232]
/home/pedro/devel/optee/optee_os/lib/libutils/isoc/snprintf.c:15
    6758:	a94317a4 	ldp	x4, x5, [x29,#48]
    675c:	a90117a4 	stp	x4, x5, [x29,#16]
    6760:	a94417a4 	ldp	x4, x5, [x29,#64]
    6764:	a90217a4 	stp	x4, x5, [x29,#32]
/home/pedro/devel/optee/optee_os/lib/libutils/isoc/snprintf.c:10
    6768:	3d8017a0 	str	q0, [x29,#80]
/home/pedro/devel/optee/optee_os/lib/libutils/isoc/snprintf.c:15
    676c:	52800004 	mov	w4, #0x0                   	// #0
/home/pedro/devel/optee/optee_os/lib/libutils/isoc/snprintf.c:10
    6770:	3d801ba1 	str	q1, [x29,#96]
    6774:	3d801fa2 	str	q2, [x29,#112]
    6778:	3d8023a3 	str	q3, [x29,#128]
    677c:	3d8027a4 	str	q4, [x29,#144]
    6780:	3d802ba5 	str	q5, [x29,#160]
    6784:	3d802fa6 	str	q6, [x29,#176]
    6788:	3d8033a7 	str	q7, [x29,#192]
    678c:	f9007fa7 	str	x7, [x29,#248]
/home/pedro/devel/optee/optee_os/lib/libutils/isoc/snprintf.c:15
    6790:	9400004e 	bl	68c8 <__vsnprintf>
/home/pedro/devel/optee/optee_os/lib/libutils/isoc/snprintf.c:19
    6794:	a8d07bfd 	ldp	x29, x30, [sp],#256
    6798:	d65f03c0 	ret

000000000000679c <vsnprintf>:
vsnprintf():
/home/pedro/devel/optee/optee_os/lib/libutils/isoc/snprintf.c:22
    679c:	a9bb7bfd 	stp	x29, x30, [sp,#-80]!
    67a0:	910003fd 	mov	x29, sp
    67a4:	a90153f3 	stp	x19, x20, [sp,#16]
    67a8:	aa0003f3 	mov	x19, x0
    67ac:	f90013f5 	str	x21, [sp,#32]
    67b0:	aa0103f4 	mov	x20, x1
    67b4:	aa0203f5 	mov	x21, x2
/home/pedro/devel/optee/optee_os/lib/libutils/isoc/snprintf.c:23
    67b8:	aa0303e1 	mov	x1, x3
    67bc:	9100c3a0 	add	x0, x29, #0x30
    67c0:	d2800402 	mov	x2, #0x20                  	// #32
    67c4:	94000018 	bl	6824 <memcpy>
    67c8:	aa0003e3 	mov	x3, x0
    67cc:	aa1503e2 	mov	x2, x21
    67d0:	aa1403e1 	mov	x1, x20
    67d4:	52800004 	mov	w4, #0x0                   	// #0
    67d8:	aa1303e0 	mov	x0, x19
    67dc:	9400003b 	bl	68c8 <__vsnprintf>
/home/pedro/devel/optee/optee_os/lib/libutils/isoc/snprintf.c:24
    67e0:	f94013f5 	ldr	x21, [sp,#32]
    67e4:	a94153f3 	ldp	x19, x20, [sp,#16]
    67e8:	a8c57bfd 	ldp	x29, x30, [sp],#80
    67ec:	d65f03c0 	ret

00000000000067f0 <memcmp>:
memcmp():
/home/pedro/devel/optee/optee_os/lib/libutils/isoc/newlib/memcmp.c:90
    67f0:	d2800004 	mov	x4, #0x0                   	// #0
    67f4:	eb04005f 	cmp	x2, x4
    67f8:	54000061 	b.ne	6804 <memcmp+0x14>
/home/pedro/devel/optee/optee_os/lib/libutils/isoc/newlib/memcmp.c:96
    67fc:	52800000 	mov	w0, #0x0                   	// #0
/home/pedro/devel/optee/optee_os/lib/libutils/isoc/newlib/memcmp.c:136
    6800:	d65f03c0 	ret
/home/pedro/devel/optee/optee_os/lib/libutils/isoc/newlib/memcmp.c:91
    6804:	38646803 	ldrb	w3, [x0,x4]
    6808:	91000484 	add	x4, x4, #0x1
    680c:	8b040025 	add	x5, x1, x4
    6810:	385ff0a5 	ldurb	w5, [x5,#-1]
    6814:	6b05007f 	cmp	w3, w5
    6818:	54fffee0 	b.eq	67f4 <memcmp+0x4>
/home/pedro/devel/optee/optee_os/lib/libutils/isoc/newlib/memcmp.c:92
    681c:	4b050060 	sub	w0, w3, w5
    6820:	d65f03c0 	ret

0000000000006824 <memcpy>:
memcpy():
/home/pedro/devel/optee/optee_os/lib/libutils/isoc/newlib/memcpy.c:94
    6824:	d2800003 	mov	x3, #0x0                   	// #0
    6828:	eb03005f 	cmp	x2, x3
    682c:	54000041 	b.ne	6834 <memcpy+0x10>
/home/pedro/devel/optee/optee_os/lib/libutils/isoc/newlib/memcpy.c:135
    6830:	d65f03c0 	ret
/home/pedro/devel/optee/optee_os/lib/libutils/isoc/newlib/memcpy.c:95
    6834:	38636824 	ldrb	w4, [x1,x3]
    6838:	38236804 	strb	w4, [x0,x3]
    683c:	91000463 	add	x3, x3, #0x1
    6840:	17fffffa 	b	6828 <memcpy+0x4>

0000000000006844 <memmove>:
memmove():
/home/pedro/devel/optee/optee_os/lib/libutils/isoc/newlib/memmove.c:96
    6844:	eb01001f 	cmp	x0, x1
    6848:	54000089 	b.ls	6858 <memmove+0x14>
/home/pedro/devel/optee/optee_os/lib/libutils/isoc/newlib/memmove.c:96 (discriminator 1)
    684c:	8b020023 	add	x3, x1, x2
    6850:	eb03001f 	cmp	x0, x3
    6854:	540000e3 	b.cc	6870 <memmove+0x2c>
    6858:	d2800003 	mov	x3, #0x0                   	// #0
/home/pedro/devel/optee/optee_os/lib/libutils/isoc/newlib/memmove.c:103
    685c:	eb03005f 	cmp	x2, x3
    6860:	54000101 	b.ne	6880 <memmove+0x3c>
/home/pedro/devel/optee/optee_os/lib/libutils/isoc/newlib/memmove.c:157
    6864:	d65f03c0 	ret
/home/pedro/devel/optee/optee_os/lib/libutils/isoc/newlib/memmove.c:101
    6868:	38626823 	ldrb	w3, [x1,x2]
    686c:	38226803 	strb	w3, [x0,x2]
/home/pedro/devel/optee/optee_os/lib/libutils/isoc/newlib/memmove.c:100
    6870:	d1000442 	sub	x2, x2, #0x1
    6874:	b100045f 	cmn	x2, #0x1
    6878:	54ffff81 	b.ne	6868 <memmove+0x24>
    687c:	d65f03c0 	ret
/home/pedro/devel/optee/optee_os/lib/libutils/isoc/newlib/memmove.c:104
    6880:	38636824 	ldrb	w4, [x1,x3]
    6884:	38236804 	strb	w4, [x0,x3]
    6888:	91000463 	add	x3, x3, #0x1
    688c:	17fffff4 	b	685c <memmove+0x18>

0000000000006890 <memset>:
memset():
/home/pedro/devel/optee/optee_os/lib/libutils/isoc/newlib/memset.c:125
    6890:	d2800003 	mov	x3, #0x0                   	// #0
    6894:	eb03005f 	cmp	x2, x3
    6898:	54000041 	b.ne	68a0 <memset+0x10>
/home/pedro/devel/optee/optee_os/lib/libutils/isoc/newlib/memset.c:129
    689c:	d65f03c0 	ret
/home/pedro/devel/optee/optee_os/lib/libutils/isoc/newlib/memset.c:126
    68a0:	38236801 	strb	w1, [x0,x3]
    68a4:	91000463 	add	x3, x3, #0x1
    68a8:	17fffffb 	b	6894 <memset+0x4>

00000000000068ac <strlen>:
strlen():
/home/pedro/devel/optee/optee_os/lib/libutils/isoc/newlib/strlen.c:117
    68ac:	aa0003e1 	mov	x1, x0
    68b0:	39400022 	ldrb	w2, [x1]
    68b4:	35000062 	cbnz	w2, 68c0 <strlen+0x14>
/home/pedro/devel/optee/optee_os/lib/libutils/isoc/newlib/strlen.c:120
    68b8:	cb000020 	sub	x0, x1, x0
    68bc:	d65f03c0 	ret
/home/pedro/devel/optee/optee_os/lib/libutils/isoc/newlib/strlen.c:118
    68c0:	91000421 	add	x1, x1, #0x1
    68c4:	17fffffb 	b	68b0 <strlen+0x4>

00000000000068c8 <__vsnprintf>:
__vsnprintf():
/home/pedro/devel/optee/optee_os/lib/libutils/ext/snprintk.c:137
    68c8:	d103c3ff 	sub	sp, sp, #0xf0
    68cc:	a9037bfd 	stp	x29, x30, [sp,#48]
    68d0:	9100c3fd 	add	x29, sp, #0x30
    68d4:	a90803a1 	stp	x1, x0, [x29,#128]
    68d8:	12001c80 	and	w0, w4, #0xff
    68dc:	b9007fa0 	str	w0, [x29,#124]
/home/pedro/devel/optee/optee_os/lib/libutils/ext/snprintk.c:141
    68e0:	f94047a0 	ldr	x0, [x29,#136]
/home/pedro/devel/optee/optee_os/lib/libutils/ext/snprintk.c:137
    68e4:	a90453f3 	stp	x19, x20, [sp,#64]
    68e8:	a90873fb 	stp	x27, x28, [sp,#128]
kprintf():
/home/pedro/devel/optee/optee_os/lib/libutils/ext/snprintk.c:267
    68ec:	5280001b 	mov	w27, #0x0                   	// #0
    68f0:	b9401874 	ldr	w20, [x3,#24]
    68f4:	a9407073 	ldp	x19, x28, [x3]
__vsnprintf():
/home/pedro/devel/optee/optee_os/lib/libutils/ext/snprintk.c:137
    68f8:	a90663f7 	stp	x23, x24, [sp,#96]
    68fc:	a9076bf9 	stp	x25, x26, [sp,#112]
    6900:	910263b8 	add	x24, x29, #0x98
    6904:	a9055bf5 	stp	x21, x22, [sp,#80]
    6908:	aa0203f9 	mov	x25, x2
/home/pedro/devel/optee/optee_os/lib/libutils/ext/snprintk.c:141
    690c:	8b01001a 	add	x26, x0, x1
    6910:	aa0003f6 	mov	x22, x0
kprintf():
/home/pedro/devel/optee/optee_os/lib/libutils/ext/snprintk.c:269
    6914:	d2800017 	mov	x23, #0x0                   	// #0
/home/pedro/devel/optee/optee_os/lib/libutils/ext/snprintk.c:275
    6918:	39400320 	ldrb	w0, [x25]
    691c:	7100941f 	cmp	w0, #0x25
    6920:	7a401804 	ccmp	w0, #0x0, #0x4, ne
    6924:	540003c1 	b.ne	699c <__vsnprintf+0xd4>
/home/pedro/devel/optee/optee_os/lib/libutils/ext/snprintk.c:279
    6928:	34005780 	cbz	w0, 7418 <__vsnprintf+0xb50>
/home/pedro/devel/optee/optee_os/lib/libutils/ext/snprintk.c:287
    692c:	12800004 	mov	w4, #0xffffffff            	// #-1
/home/pedro/devel/optee/optee_os/lib/libutils/ext/snprintk.c:282
    6930:	91000722 	add	x2, x25, #0x1
    6934:	2a1403e0 	mov	w0, w20
/home/pedro/devel/optee/optee_os/lib/libutils/ext/snprintk.c:324
    6938:	2a0403e5 	mov	w5, w4
/home/pedro/devel/optee/optee_os/lib/libutils/ext/snprintk.c:288
    693c:	52800001 	mov	w1, #0x0                   	// #0
/home/pedro/devel/optee/optee_os/lib/libutils/ext/snprintk.c:286
    6940:	5280000a 	mov	w10, #0x0                   	// #0
/home/pedro/devel/optee/optee_os/lib/libutils/ext/snprintk.c:284
    6944:	52800015 	mov	w21, #0x0                   	// #0
/home/pedro/devel/optee/optee_os/lib/libutils/ext/snprintk.c:299
    6948:	52800406 	mov	w6, #0x20                  	// #32
/home/pedro/devel/optee/optee_os/lib/libutils/ext/snprintk.c:290
    694c:	39400048 	ldrb	w8, [x2]
    6950:	91000459 	add	x25, x2, #0x1
/home/pedro/devel/optee/optee_os/lib/libutils/ext/snprintk.c:291
    6954:	71018d1f 	cmp	w8, #0x63
    6958:	54001b80 	b.eq	6cc8 <__vsnprintf+0x400>
    695c:	5400080c 	b.gt	6a5c <__vsnprintf+0x194>
    6960:	7100c11f 	cmp	w8, #0x30
    6964:	54001960 	b.eq	6c90 <__vsnprintf+0x3c8>
    6968:	540003cc 	b.gt	69e0 <__vsnprintf+0x118>
    696c:	7100a91f 	cmp	w8, #0x2a
    6970:	540012c0 	b.eq	6bc8 <__vsnprintf+0x300>
    6974:	5400024c 	b.gt	69bc <__vsnprintf+0xf4>
    6978:	7100811f 	cmp	w8, #0x20
    697c:	540011c0 	b.eq	6bb4 <__vsnprintf+0x2ec>
    6980:	71008d1f 	cmp	w8, #0x23
    6984:	540011e0 	b.eq	6bc0 <__vsnprintf+0x2f8>
/home/pedro/devel/optee/optee_os/lib/libutils/ext/snprintk.c:541
    6988:	34005488 	cbz	w8, 7418 <__vsnprintf+0xb50>
/home/pedro/devel/optee/optee_os/lib/libutils/ext/snprintk.c:545
    698c:	910303a3 	add	x3, x29, #0xc0
    6990:	2a0003f4 	mov	w20, w0
    6994:	381d8c68 	strb	w8, [x3,#-40]!
    6998:	140000d4 	b	6ce8 <__vsnprintf+0x420>
/home/pedro/devel/optee/optee_os/lib/libutils/ext/snprintk.c:276
    699c:	1100077b 	add	w27, w27, #0x1
/home/pedro/devel/optee/optee_os/lib/libutils/ext/snprintk.c:277
    69a0:	b40000b6 	cbz	x22, 69b4 <__vsnprintf+0xec>
    69a4:	eb16035f 	cmp	x26, x22
    69a8:	54000069 	b.ls	69b4 <__vsnprintf+0xec>
    69ac:	390002c0 	strb	w0, [x22]
    69b0:	910006d6 	add	x22, x22, #0x1
/home/pedro/devel/optee/optee_os/lib/libutils/ext/snprintk.c:275
    69b4:	91000739 	add	x25, x25, #0x1
    69b8:	17ffffd8 	b	6918 <__vsnprintf+0x50>
/home/pedro/devel/optee/optee_os/lib/libutils/ext/snprintk.c:291
    69bc:	7100b51f 	cmp	w8, #0x2d
    69c0:	54001120 	b.eq	6be4 <__vsnprintf+0x31c>
    69c4:	7100b91f 	cmp	w8, #0x2e
    69c8:	54001280 	b.eq	6c18 <__vsnprintf+0x350>
    69cc:	7100ad1f 	cmp	w8, #0x2b
    69d0:	54fffdc1 	b.ne	6988 <__vsnprintf+0xc0>
/home/pedro/devel/optee/optee_os/lib/libutils/ext/snprintk.c:319
    69d4:	2a0803e1 	mov	w1, w8
/home/pedro/devel/optee/optee_os/lib/libutils/ext/snprintk.c:322
    69d8:	aa1903e2 	mov	x2, x25
    69dc:	17ffffdc 	b	694c <__vsnprintf+0x84>
/home/pedro/devel/optee/optee_os/lib/libutils/ext/snprintk.c:291
    69e0:	7101111f 	cmp	w8, #0x44
    69e4:	54001920 	b.eq	6d08 <__vsnprintf+0x440>
    69e8:	5400018c 	b.gt	6a18 <__vsnprintf+0x150>
    69ec:	7100e51f 	cmp	w8, #0x39
    69f0:	54fffccc 	b.gt	6988 <__vsnprintf+0xc0>
    69f4:	5280000a 	mov	w10, #0x0                   	// #0
/home/pedro/devel/optee/optee_os/lib/libutils/ext/snprintk.c:346
    69f8:	5100c108 	sub	w8, w8, #0x30
    69fc:	52800142 	mov	w2, #0xa                   	// #10
    6a00:	1b02214a 	madd	w10, w10, w2, w8
/home/pedro/devel/optee/optee_os/lib/libutils/ext/snprintk.c:347
    6a04:	38401728 	ldrb	w8, [x25],#1
/home/pedro/devel/optee/optee_os/lib/libutils/ext/snprintk.c:348
    6a08:	5100c102 	sub	w2, w8, #0x30
    6a0c:	7100245f 	cmp	w2, #0x9
    6a10:	54ffff49 	b.ls	69f8 <__vsnprintf+0x130>
    6a14:	17ffffd0 	b	6954 <__vsnprintf+0x8c>
/home/pedro/devel/optee/optee_os/lib/libutils/ext/snprintk.c:291
    6a18:	7101551f 	cmp	w8, #0x55
    6a1c:	54003c40 	b.eq	71a4 <__vsnprintf+0x8dc>
    6a20:	7101611f 	cmp	w8, #0x58
    6a24:	54000ac0 	b.eq	6b7c <__vsnprintf+0x2b4>
    6a28:	71013d1f 	cmp	w8, #0x4f
    6a2c:	54fffae1 	b.ne	6988 <__vsnprintf+0xc0>
/home/pedro/devel/optee/optee_os/lib/libutils/ext/snprintk.c:408
    6a30:	321c02b5 	orr	w21, w21, #0x10
/home/pedro/devel/optee/optee_os/lib/libutils/ext/snprintk.c:411
    6a34:	36382695 	tbz	w21, #7, 6f04 <__vsnprintf+0x63c>
    6a38:	37f827e0 	tbnz	w0, #31, 6f34 <__vsnprintf+0x66c>
    6a3c:	91003e61 	add	x1, x19, #0xf
    6a40:	2a0003f4 	mov	w20, w0
    6a44:	aa1303e0 	mov	x0, x19
    6a48:	927df033 	and	x19, x1, #0xfffffffffffffff8
    6a4c:	f9400005 	ldr	x5, [x0]
/home/pedro/devel/optee/optee_os/lib/libutils/ext/snprintk.c:412
    6a50:	52800000 	mov	w0, #0x0                   	// #0
/home/pedro/devel/optee/optee_os/lib/libutils/ext/snprintk.c:482
    6a54:	52800001 	mov	w1, #0x0                   	// #0
    6a58:	140000b8 	b	6d38 <__vsnprintf+0x470>
/home/pedro/devel/optee/optee_os/lib/libutils/ext/snprintk.c:291
    6a5c:	7101bd1f 	cmp	w8, #0x6f
    6a60:	54fffea0 	b.eq	6a34 <__vsnprintf+0x16c>
    6a64:	5400024c 	b.gt	6aac <__vsnprintf+0x1e4>
    6a68:	7101a51f 	cmp	w8, #0x69
    6a6c:	54001500 	b.eq	6d0c <__vsnprintf+0x444>
    6a70:	540000ec 	b.gt	6a8c <__vsnprintf+0x1c4>
    6a74:	7101911f 	cmp	w8, #0x64
    6a78:	540014a0 	b.eq	6d0c <__vsnprintf+0x444>
    6a7c:	7101a11f 	cmp	w8, #0x68
    6a80:	54fff841 	b.ne	6988 <__vsnprintf+0xc0>
/home/pedro/devel/optee/optee_os/lib/libutils/ext/snprintk.c:352
    6a84:	321a02b5 	orr	w21, w21, #0x40
    6a88:	17ffffd4 	b	69d8 <__vsnprintf+0x110>
/home/pedro/devel/optee/optee_os/lib/libutils/ext/snprintk.c:291
    6a8c:	7101b11f 	cmp	w8, #0x6c
    6a90:	54001040 	b.eq	6c98 <__vsnprintf+0x3d0>
    6a94:	7101b91f 	cmp	w8, #0x6e
    6a98:	54001d40 	b.eq	6e40 <__vsnprintf+0x578>
    6a9c:	7101a91f 	cmp	w8, #0x6a
    6aa0:	54fff741 	b.ne	6988 <__vsnprintf+0xc0>
/home/pedro/devel/optee/optee_os/lib/libutils/ext/snprintk.c:355
    6aa4:	321902b5 	orr	w21, w21, #0x80
    6aa8:	17ffffcc 	b	69d8 <__vsnprintf+0x110>
/home/pedro/devel/optee/optee_os/lib/libutils/ext/snprintk.c:291
    6aac:	7101d11f 	cmp	w8, #0x74
    6ab0:	54001040 	b.eq	6cb8 <__vsnprintf+0x3f0>
    6ab4:	5400046c 	b.gt	6b40 <__vsnprintf+0x278>
    6ab8:	7101c51f 	cmp	w8, #0x71
    6abc:	54000f60 	b.eq	6ca8 <__vsnprintf+0x3e0>
    6ac0:	540026cb 	b.lt	6f98 <__vsnprintf+0x6d0>
    6ac4:	7101cd1f 	cmp	w8, #0x73
    6ac8:	54fff601 	b.ne	6988 <__vsnprintf+0xc0>
/home/pedro/devel/optee/optee_os/lib/libutils/ext/snprintk.c:442
    6acc:	37f83480 	tbnz	w0, #31, 715c <__vsnprintf+0x894>
    6ad0:	91003e61 	add	x1, x19, #0xf
    6ad4:	2a0003f4 	mov	w20, w0
    6ad8:	aa1303e0 	mov	x0, x19
    6adc:	927df033 	and	x19, x1, #0xfffffffffffffff8
    6ae0:	f9400003 	ldr	x3, [x0]
/home/pedro/devel/optee/optee_os/lib/libutils/ext/snprintk.c:444
    6ae4:	d0000020 	adrp	x0, c000 <PRIME_TABLE+0x8a0>
    6ae8:	913d7400 	add	x0, x0, #0xf5d
    6aec:	f100007f 	cmp	x3, #0x0
    6af0:	9a830003 	csel	x3, x0, x3, eq
/home/pedro/devel/optee/optee_os/lib/libutils/ext/snprintk.c:445
    6af4:	3100049f 	cmn	w4, #0x1
    6af8:	540033e0 	b.eq	7174 <__vsnprintf+0x8ac>
/home/pedro/devel/optee/optee_os/lib/libutils/ext/snprintk.c:451
    6afc:	93407c82 	sxtw	x2, w4
    6b00:	aa0303e0 	mov	x0, x3
    6b04:	290d2ba8 	stp	w8, w10, [x29,#104]
    6b08:	52800001 	mov	w1, #0x0                   	// #0
    6b0c:	f9003ba3 	str	x3, [x29,#112]
    6b10:	b9007ba4 	str	w4, [x29,#120]
    6b14:	94000332 	bl	77dc <memchr>
/home/pedro/devel/optee/optee_os/lib/libutils/ext/snprintk.c:453
    6b18:	294d2ba8 	ldp	w8, w10, [x29,#104]
    6b1c:	b9407ba4 	ldr	w4, [x29,#120]
    6b20:	f9403ba3 	ldr	x3, [x29,#112]
    6b24:	b4000080 	cbz	x0, 6b34 <__vsnprintf+0x26c>
/home/pedro/devel/optee/optee_os/lib/libutils/ext/snprintk.c:454
    6b28:	cb030000 	sub	x0, x0, x3
    6b2c:	6b00009f 	cmp	w4, w0
    6b30:	1a80d084 	csel	w4, w4, w0, le
/home/pedro/devel/optee/optee_os/lib/libutils/ext/snprintk.c:285
    6b34:	52800000 	mov	w0, #0x0                   	// #0
/home/pedro/devel/optee/optee_os/lib/libutils/ext/snprintk.c:461
    6b38:	52800001 	mov	w1, #0x0                   	// #0
    6b3c:	14000144 	b	704c <__vsnprintf+0x784>
/home/pedro/devel/optee/optee_os/lib/libutils/ext/snprintk.c:291
    6b40:	7101e11f 	cmp	w8, #0x78
    6b44:	540037e0 	b.eq	7240 <__vsnprintf+0x978>
    6b48:	7101e91f 	cmp	w8, #0x7a
    6b4c:	54000ba0 	b.eq	6cc0 <__vsnprintf+0x3f8>
    6b50:	7101d51f 	cmp	w8, #0x75
    6b54:	54fff1a1 	b.ne	6988 <__vsnprintf+0xc0>
/home/pedro/devel/optee/optee_os/lib/libutils/ext/snprintk.c:467
    6b58:	363832b5 	tbz	w21, #7, 71ac <__vsnprintf+0x8e4>
    6b5c:	37f83400 	tbnz	w0, #31, 71dc <__vsnprintf+0x914>
    6b60:	91003e61 	add	x1, x19, #0xf
    6b64:	2a0003f4 	mov	w20, w0
    6b68:	aa1303e0 	mov	x0, x19
    6b6c:	927df033 	and	x19, x1, #0xfffffffffffffff8
    6b70:	f9400005 	ldr	x5, [x0]
/home/pedro/devel/optee/optee_os/lib/libutils/ext/snprintk.c:468
    6b74:	52800020 	mov	w0, #0x1                   	// #1
    6b78:	17ffffb7 	b	6a54 <__vsnprintf+0x18c>
/home/pedro/devel/optee/optee_os/lib/libutils/ext/snprintk.c:471
    6b7c:	b0000037 	adrp	x23, b000 <mpa_set_oct_str+0x7c>
    6b80:	911be2f7 	add	x23, x23, #0x6f8
/home/pedro/devel/optee/optee_os/lib/libutils/ext/snprintk.c:475
    6b84:	36383675 	tbz	w21, #7, 7250 <__vsnprintf+0x988>
    6b88:	37f837c0 	tbnz	w0, #31, 7280 <__vsnprintf+0x9b8>
    6b8c:	91003e61 	add	x1, x19, #0xf
    6b90:	2a0003f4 	mov	w20, w0
    6b94:	aa1303e0 	mov	x0, x19
    6b98:	927df033 	and	x19, x1, #0xfffffffffffffff8
    6b9c:	f9400005 	ldr	x5, [x0]
/home/pedro/devel/optee/optee_os/lib/libutils/ext/snprintk.c:478
    6ba0:	36000075 	tbz	w21, #0, 6bac <__vsnprintf+0x2e4>
    6ba4:	b4000045 	cbz	x5, 6bac <__vsnprintf+0x2e4>
/home/pedro/devel/optee/optee_os/lib/libutils/ext/snprintk.c:479
    6ba8:	321f02b5 	orr	w21, w21, #0x2
/home/pedro/devel/optee/optee_os/lib/libutils/ext/snprintk.c:476
    6bac:	52800040 	mov	w0, #0x2                   	// #2
    6bb0:	17ffffa9 	b	6a54 <__vsnprintf+0x18c>
/home/pedro/devel/optee/optee_os/lib/libutils/ext/snprintk.c:299
    6bb4:	7100003f 	cmp	w1, #0x0
    6bb8:	1a861021 	csel	w1, w1, w6, ne
    6bbc:	17ffff87 	b	69d8 <__vsnprintf+0x110>
/home/pedro/devel/optee/optee_os/lib/libutils/ext/snprintk.c:302
    6bc0:	320002b5 	orr	w21, w21, #0x1
    6bc4:	17ffff85 	b	69d8 <__vsnprintf+0x110>
/home/pedro/devel/optee/optee_os/lib/libutils/ext/snprintk.c:311
    6bc8:	37f80120 	tbnz	w0, #31, 6bec <__vsnprintf+0x324>
    6bcc:	91002e63 	add	x3, x19, #0xb
    6bd0:	aa1303e2 	mov	x2, x19
    6bd4:	927df073 	and	x19, x3, #0xfffffffffffffff8
    6bd8:	b940004a 	ldr	w10, [x2]
    6bdc:	36ffefea 	tbz	w10, #31, 69d8 <__vsnprintf+0x110>
/home/pedro/devel/optee/optee_os/lib/libutils/ext/snprintk.c:313
    6be0:	4b0a03ea 	neg	w10, w10
/home/pedro/devel/optee/optee_os/lib/libutils/ext/snprintk.c:316
    6be4:	321e02b5 	orr	w21, w21, #0x4
    6be8:	17ffff7c 	b	69d8 <__vsnprintf+0x110>
/home/pedro/devel/optee/optee_os/lib/libutils/ext/snprintk.c:311
    6bec:	11002003 	add	w3, w0, #0x8
    6bf0:	7100007f 	cmp	w3, #0x0
    6bf4:	540000cd 	b.le	6c0c <__vsnprintf+0x344>
    6bf8:	91002e67 	add	x7, x19, #0xb
    6bfc:	aa1303e2 	mov	x2, x19
    6c00:	2a0303e0 	mov	w0, w3
    6c04:	927df0f3 	and	x19, x7, #0xfffffffffffffff8
    6c08:	17fffff4 	b	6bd8 <__vsnprintf+0x310>
    6c0c:	8b20c382 	add	x2, x28, w0, sxtw
    6c10:	2a0303e0 	mov	w0, w3
    6c14:	17fffff1 	b	6bd8 <__vsnprintf+0x310>
/home/pedro/devel/optee/optee_os/lib/libutils/ext/snprintk.c:322
    6c18:	39400328 	ldrb	w8, [x25]
    6c1c:	91000723 	add	x3, x25, #0x1
    6c20:	7100a91f 	cmp	w8, #0x2a
    6c24:	54000140 	b.eq	6c4c <__vsnprintf+0x384>
    6c28:	aa0303f9 	mov	x25, x3
    6c2c:	52800004 	mov	w4, #0x0                   	// #0
/home/pedro/devel/optee/optee_os/lib/libutils/ext/snprintk.c:328
    6c30:	5100c102 	sub	w2, w8, #0x30
    6c34:	7100245f 	cmp	w2, #0x9
    6c38:	54ffe8e8 	b.hi	6954 <__vsnprintf+0x8c>
/home/pedro/devel/optee/optee_os/lib/libutils/ext/snprintk.c:329
    6c3c:	52800143 	mov	w3, #0xa                   	// #10
/home/pedro/devel/optee/optee_os/lib/libutils/ext/snprintk.c:330
    6c40:	38401728 	ldrb	w8, [x25],#1
/home/pedro/devel/optee/optee_os/lib/libutils/ext/snprintk.c:329
    6c44:	1b030884 	madd	w4, w4, w3, w2
    6c48:	17fffffa 	b	6c30 <__vsnprintf+0x368>
/home/pedro/devel/optee/optee_os/lib/libutils/ext/snprintk.c:323
    6c4c:	37f80160 	tbnz	w0, #31, 6c78 <__vsnprintf+0x3b0>
    6c50:	91002e64 	add	x4, x19, #0xb
    6c54:	2a0003e2 	mov	w2, w0
    6c58:	aa1303e0 	mov	x0, x19
    6c5c:	927df093 	and	x19, x4, #0xfffffffffffffff8
/home/pedro/devel/optee/optee_os/lib/libutils/ext/snprintk.c:324
    6c60:	b9400004 	ldr	w4, [x0]
/home/pedro/devel/optee/optee_os/lib/libutils/ext/snprintk.c:322
    6c64:	aa0303f9 	mov	x25, x3
/home/pedro/devel/optee/optee_os/lib/libutils/ext/snprintk.c:324
    6c68:	2a0203e0 	mov	w0, w2
    6c6c:	7100009f 	cmp	w4, #0x0
    6c70:	1a85a084 	csel	w4, w4, w5, ge
    6c74:	17ffff59 	b	69d8 <__vsnprintf+0x110>
/home/pedro/devel/optee/optee_os/lib/libutils/ext/snprintk.c:323
    6c78:	11002002 	add	w2, w0, #0x8
    6c7c:	8b20c380 	add	x0, x28, w0, sxtw
    6c80:	7100005f 	cmp	w2, #0x0
    6c84:	54fffeed 	b.le	6c60 <__vsnprintf+0x398>
    6c88:	91002e64 	add	x4, x19, #0xb
    6c8c:	17fffff3 	b	6c58 <__vsnprintf+0x390>
/home/pedro/devel/optee/optee_os/lib/libutils/ext/snprintk.c:340
    6c90:	321602b5 	orr	w21, w21, #0x400
    6c94:	17ffff51 	b	69d8 <__vsnprintf+0x110>
/home/pedro/devel/optee/optee_os/lib/libutils/ext/snprintk.c:358
    6c98:	39400322 	ldrb	w2, [x25]
    6c9c:	7101b05f 	cmp	w2, #0x6c
    6ca0:	54000081 	b.ne	6cb0 <__vsnprintf+0x3e8>
/home/pedro/devel/optee/optee_os/lib/libutils/ext/snprintk.c:359
    6ca4:	91000739 	add	x25, x25, #0x1
/home/pedro/devel/optee/optee_os/lib/libutils/ext/snprintk.c:366
    6ca8:	321b02b5 	orr	w21, w21, #0x20
    6cac:	17ffff4b 	b	69d8 <__vsnprintf+0x110>
/home/pedro/devel/optee/optee_os/lib/libutils/ext/snprintk.c:362
    6cb0:	321c02b5 	orr	w21, w21, #0x10
    6cb4:	17ffff49 	b	69d8 <__vsnprintf+0x110>
/home/pedro/devel/optee/optee_os/lib/libutils/ext/snprintk.c:369
    6cb8:	321802b5 	orr	w21, w21, #0x100
    6cbc:	17ffff47 	b	69d8 <__vsnprintf+0x110>
/home/pedro/devel/optee/optee_os/lib/libutils/ext/snprintk.c:372
    6cc0:	321702b5 	orr	w21, w21, #0x200
    6cc4:	17ffff45 	b	69d8 <__vsnprintf+0x110>
/home/pedro/devel/optee/optee_os/lib/libutils/ext/snprintk.c:375
    6cc8:	37f80140 	tbnz	w0, #31, 6cf0 <__vsnprintf+0x428>
    6ccc:	91002e61 	add	x1, x19, #0xb
    6cd0:	2a0003f4 	mov	w20, w0
    6cd4:	aa1303e0 	mov	x0, x19
    6cd8:	927df033 	and	x19, x1, #0xfffffffffffffff8
    6cdc:	910303a3 	add	x3, x29, #0xc0
    6ce0:	b9400000 	ldr	w0, [x0]
    6ce4:	381d8c60 	strb	w0, [x3,#-40]!
/home/pedro/devel/optee/optee_os/lib/libutils/ext/snprintk.c:546
    6ce8:	52800024 	mov	w4, #0x1                   	// #1
    6cec:	17ffff92 	b	6b34 <__vsnprintf+0x26c>
/home/pedro/devel/optee/optee_os/lib/libutils/ext/snprintk.c:375
    6cf0:	11002014 	add	w20, w0, #0x8
    6cf4:	8b20c380 	add	x0, x28, w0, sxtw
    6cf8:	7100029f 	cmp	w20, #0x0
    6cfc:	54ffff0d 	b.le	6cdc <__vsnprintf+0x414>
    6d00:	91002e61 	add	x1, x19, #0xb
    6d04:	17fffff4 	b	6cd4 <__vsnprintf+0x40c>
/home/pedro/devel/optee/optee_os/lib/libutils/ext/snprintk.c:380
    6d08:	321c02b5 	orr	w21, w21, #0x10
/home/pedro/devel/optee/optee_os/lib/libutils/ext/snprintk.c:384
    6d0c:	36380515 	tbz	w21, #7, 6dac <__vsnprintf+0x4e4>
    6d10:	37f80660 	tbnz	w0, #31, 6ddc <__vsnprintf+0x514>
    6d14:	91003e62 	add	x2, x19, #0xf
    6d18:	2a0003f4 	mov	w20, w0
    6d1c:	aa1303e0 	mov	x0, x19
    6d20:	927df053 	and	x19, x2, #0xfffffffffffffff8
    6d24:	f9400005 	ldr	x5, [x0]
/home/pedro/devel/optee/optee_os/lib/libutils/ext/snprintk.c:389
    6d28:	52800020 	mov	w0, #0x1                   	// #1
/home/pedro/devel/optee/optee_os/lib/libutils/ext/snprintk.c:385
    6d2c:	b6f80065 	tbz	x5, #63, 6d38 <__vsnprintf+0x470>
/home/pedro/devel/optee/optee_os/lib/libutils/ext/snprintk.c:386
    6d30:	cb0503e5 	neg	x5, x5
/home/pedro/devel/optee/optee_os/lib/libutils/ext/snprintk.c:387
    6d34:	528005a1 	mov	w1, #0x2d                  	// #45
/home/pedro/devel/optee/optee_os/lib/libutils/ext/snprintk.c:489
    6d38:	3100049f 	cmn	w4, #0x1
    6d3c:	12157aa2 	and	w2, w21, #0xfffffbff
    6d40:	1a951055 	csel	w21, w2, w21, ne
/home/pedro/devel/optee/optee_os/lib/libutils/ext/snprintk.c:497
    6d44:	f10000bf 	cmp	x5, #0x0
    6d48:	7a400880 	ccmp	w4, #0x0, #0x0, eq
/home/pedro/devel/optee/optee_os/lib/libutils/ext/snprintk.c:496
    6d4c:	91009703 	add	x3, x24, #0x25
/home/pedro/devel/optee/optee_os/lib/libutils/ext/snprintk.c:497
    6d50:	54000260 	b.eq	6d9c <__vsnprintf+0x4d4>
/home/pedro/devel/optee/optee_os/lib/libutils/ext/snprintk.c:503
    6d54:	7100041f 	cmp	w0, #0x1
    6d58:	54002c60 	b.eq	72e4 <__vsnprintf+0xa1c>
    6d5c:	7100081f 	cmp	w0, #0x2
    6d60:	54002e40 	b.eq	7328 <__vsnprintf+0xa60>
    6d64:	91009700 	add	x0, x24, #0x25
/home/pedro/devel/optee/optee_os/lib/libutils/ext/snprintk.c:506
    6d68:	120008a2 	and	w2, w5, #0x7
    6d6c:	d1000403 	sub	x3, x0, #0x1
    6d70:	1100c042 	add	w2, w2, #0x30
    6d74:	381ff002 	sturb	w2, [x0,#-1]
/home/pedro/devel/optee/optee_os/lib/libutils/ext/snprintk.c:507
    6d78:	d343fca5 	lsr	x5, x5, #3
/home/pedro/devel/optee/optee_os/lib/libutils/ext/snprintk.c:508
    6d7c:	b5002c45 	cbnz	x5, 7304 <__vsnprintf+0xa3c>
/home/pedro/devel/optee/optee_os/lib/libutils/ext/snprintk.c:510
    6d80:	7100c05f 	cmp	w2, #0x30
    6d84:	1a9f07e2 	cset	w2, ne
    6d88:	6a0202bf 	tst	w21, w2
    6d8c:	54000080 	b.eq	6d9c <__vsnprintf+0x4d4>
/home/pedro/devel/optee/optee_os/lib/libutils/ext/snprintk.c:511
    6d90:	52800602 	mov	w2, #0x30                  	// #48
    6d94:	381ff062 	sturb	w2, [x3,#-1]
    6d98:	d1000803 	sub	x3, x0, #0x2
/home/pedro/devel/optee/optee_os/lib/libutils/ext/snprintk.c:537
    6d9c:	91009702 	add	x2, x24, #0x25
    6da0:	2a0403e0 	mov	w0, w4
    6da4:	4b030044 	sub	w4, w2, w3
    6da8:	140000a9 	b	704c <__vsnprintf+0x784>
/home/pedro/devel/optee/optee_os/lib/libutils/ext/snprintk.c:384
    6dac:	3747fb35 	tbnz	w21, #8, 6d10 <__vsnprintf+0x448>
    6db0:	374ffb15 	tbnz	w21, #9, 6d10 <__vsnprintf+0x448>
    6db4:	372ffaf5 	tbnz	w21, #5, 6d10 <__vsnprintf+0x448>
    6db8:	3727fad5 	tbnz	w21, #4, 6d10 <__vsnprintf+0x448>
    6dbc:	36300295 	tbz	w21, #6, 6e0c <__vsnprintf+0x544>
    6dc0:	37f801a0 	tbnz	w0, #31, 6df4 <__vsnprintf+0x52c>
    6dc4:	91002e62 	add	x2, x19, #0xb
    6dc8:	2a0003f4 	mov	w20, w0
    6dcc:	aa1303e0 	mov	x0, x19
    6dd0:	927df053 	and	x19, x2, #0xfffffffffffffff8
    6dd4:	79800005 	ldrsh	x5, [x0]
    6dd8:	17ffffd4 	b	6d28 <__vsnprintf+0x460>
    6ddc:	11002014 	add	w20, w0, #0x8
    6de0:	8b20c380 	add	x0, x28, w0, sxtw
    6de4:	7100029f 	cmp	w20, #0x0
    6de8:	54fff9ed 	b.le	6d24 <__vsnprintf+0x45c>
    6dec:	91003e62 	add	x2, x19, #0xf
    6df0:	17ffffcb 	b	6d1c <__vsnprintf+0x454>
    6df4:	11002014 	add	w20, w0, #0x8
    6df8:	8b20c380 	add	x0, x28, w0, sxtw
    6dfc:	7100029f 	cmp	w20, #0x0
    6e00:	54fffead 	b.le	6dd4 <__vsnprintf+0x50c>
    6e04:	91002e62 	add	x2, x19, #0xb
    6e08:	17fffff1 	b	6dcc <__vsnprintf+0x504>
    6e0c:	37f800e0 	tbnz	w0, #31, 6e28 <__vsnprintf+0x560>
    6e10:	91002e62 	add	x2, x19, #0xb
    6e14:	2a0003f4 	mov	w20, w0
    6e18:	aa1303e0 	mov	x0, x19
    6e1c:	927df053 	and	x19, x2, #0xfffffffffffffff8
    6e20:	b9800005 	ldrsw	x5, [x0]
    6e24:	17ffffc1 	b	6d28 <__vsnprintf+0x460>
    6e28:	11002014 	add	w20, w0, #0x8
    6e2c:	8b20c380 	add	x0, x28, w0, sxtw
    6e30:	7100029f 	cmp	w20, #0x0
    6e34:	54ffff6d 	b.le	6e20 <__vsnprintf+0x558>
    6e38:	91002e62 	add	x2, x19, #0xb
    6e3c:	17fffff7 	b	6e18 <__vsnprintf+0x550>
/home/pedro/devel/optee/optee_os/lib/libutils/ext/snprintk.c:392
    6e40:	36380155 	tbz	w21, #7, 6e68 <__vsnprintf+0x5a0>
/home/pedro/devel/optee/optee_os/lib/libutils/ext/snprintk.c:401
    6e44:	37f802c0 	tbnz	w0, #31, 6e9c <__vsnprintf+0x5d4>
    6e48:	91003e61 	add	x1, x19, #0xf
    6e4c:	2a0003f4 	mov	w20, w0
    6e50:	aa1303e0 	mov	x0, x19
    6e54:	927df033 	and	x19, x1, #0xfffffffffffffff8
    6e58:	f9400000 	ldr	x0, [x0]
    6e5c:	93407f61 	sxtw	x1, w27
    6e60:	f9000001 	str	x1, [x0]
    6e64:	17fffead 	b	6918 <__vsnprintf+0x50>
/home/pedro/devel/optee/optee_os/lib/libutils/ext/snprintk.c:394
    6e68:	3747fef5 	tbnz	w21, #8, 6e44 <__vsnprintf+0x57c>
/home/pedro/devel/optee/optee_os/lib/libutils/ext/snprintk.c:396
    6e6c:	374ffed5 	tbnz	w21, #9, 6e44 <__vsnprintf+0x57c>
/home/pedro/devel/optee/optee_os/lib/libutils/ext/snprintk.c:398
    6e70:	372ffeb5 	tbnz	w21, #5, 6e44 <__vsnprintf+0x57c>
/home/pedro/devel/optee/optee_os/lib/libutils/ext/snprintk.c:400
    6e74:	3727fe95 	tbnz	w21, #4, 6e44 <__vsnprintf+0x57c>
/home/pedro/devel/optee/optee_os/lib/libutils/ext/snprintk.c:402
    6e78:	363002b5 	tbz	w21, #6, 6ecc <__vsnprintf+0x604>
/home/pedro/devel/optee/optee_os/lib/libutils/ext/snprintk.c:403
    6e7c:	37f801c0 	tbnz	w0, #31, 6eb4 <__vsnprintf+0x5ec>
    6e80:	91003e61 	add	x1, x19, #0xf
    6e84:	2a0003f4 	mov	w20, w0
    6e88:	aa1303e0 	mov	x0, x19
    6e8c:	927df033 	and	x19, x1, #0xfffffffffffffff8
    6e90:	f9400000 	ldr	x0, [x0]
    6e94:	7900001b 	strh	w27, [x0]
    6e98:	17fffea0 	b	6918 <__vsnprintf+0x50>
/home/pedro/devel/optee/optee_os/lib/libutils/ext/snprintk.c:401
    6e9c:	11002014 	add	w20, w0, #0x8
    6ea0:	8b20c380 	add	x0, x28, w0, sxtw
    6ea4:	7100029f 	cmp	w20, #0x0
    6ea8:	54fffd8d 	b.le	6e58 <__vsnprintf+0x590>
    6eac:	91003e61 	add	x1, x19, #0xf
    6eb0:	17ffffe8 	b	6e50 <__vsnprintf+0x588>
/home/pedro/devel/optee/optee_os/lib/libutils/ext/snprintk.c:403
    6eb4:	11002014 	add	w20, w0, #0x8
    6eb8:	8b20c380 	add	x0, x28, w0, sxtw
    6ebc:	7100029f 	cmp	w20, #0x0
    6ec0:	54fffe8d 	b.le	6e90 <__vsnprintf+0x5c8>
    6ec4:	91003e61 	add	x1, x19, #0xf
    6ec8:	17fffff0 	b	6e88 <__vsnprintf+0x5c0>
/home/pedro/devel/optee/optee_os/lib/libutils/ext/snprintk.c:405
    6ecc:	37f80100 	tbnz	w0, #31, 6eec <__vsnprintf+0x624>
    6ed0:	91003e61 	add	x1, x19, #0xf
    6ed4:	2a0003f4 	mov	w20, w0
    6ed8:	aa1303e0 	mov	x0, x19
    6edc:	927df033 	and	x19, x1, #0xfffffffffffffff8
    6ee0:	f9400000 	ldr	x0, [x0]
    6ee4:	b900001b 	str	w27, [x0]
    6ee8:	17fffe8c 	b	6918 <__vsnprintf+0x50>
    6eec:	11002014 	add	w20, w0, #0x8
    6ef0:	8b20c380 	add	x0, x28, w0, sxtw
    6ef4:	7100029f 	cmp	w20, #0x0
    6ef8:	54ffff4d 	b.le	6ee0 <__vsnprintf+0x618>
    6efc:	91003e61 	add	x1, x19, #0xf
    6f00:	17fffff6 	b	6ed8 <__vsnprintf+0x610>
/home/pedro/devel/optee/optee_os/lib/libutils/ext/snprintk.c:411
    6f04:	3747d9b5 	tbnz	w21, #8, 6a38 <__vsnprintf+0x170>
    6f08:	374fd995 	tbnz	w21, #9, 6a38 <__vsnprintf+0x170>
    6f0c:	372fd975 	tbnz	w21, #5, 6a38 <__vsnprintf+0x170>
    6f10:	3727d955 	tbnz	w21, #4, 6a38 <__vsnprintf+0x170>
    6f14:	36300295 	tbz	w21, #6, 6f64 <__vsnprintf+0x69c>
    6f18:	37f801a0 	tbnz	w0, #31, 6f4c <__vsnprintf+0x684>
    6f1c:	91002e61 	add	x1, x19, #0xb
    6f20:	2a0003f4 	mov	w20, w0
    6f24:	aa1303e0 	mov	x0, x19
    6f28:	927df033 	and	x19, x1, #0xfffffffffffffff8
    6f2c:	79400005 	ldrh	w5, [x0]
    6f30:	17fffec8 	b	6a50 <__vsnprintf+0x188>
    6f34:	11002014 	add	w20, w0, #0x8
    6f38:	8b20c380 	add	x0, x28, w0, sxtw
    6f3c:	7100029f 	cmp	w20, #0x0
    6f40:	54ffd86d 	b.le	6a4c <__vsnprintf+0x184>
    6f44:	91003e61 	add	x1, x19, #0xf
    6f48:	17fffebf 	b	6a44 <__vsnprintf+0x17c>
    6f4c:	11002014 	add	w20, w0, #0x8
    6f50:	8b20c380 	add	x0, x28, w0, sxtw
    6f54:	7100029f 	cmp	w20, #0x0
    6f58:	54fffead 	b.le	6f2c <__vsnprintf+0x664>
    6f5c:	91002e61 	add	x1, x19, #0xb
    6f60:	17fffff1 	b	6f24 <__vsnprintf+0x65c>
    6f64:	37f800e0 	tbnz	w0, #31, 6f80 <__vsnprintf+0x6b8>
    6f68:	91002e61 	add	x1, x19, #0xb
    6f6c:	2a0003f4 	mov	w20, w0
    6f70:	aa1303e0 	mov	x0, x19
    6f74:	927df033 	and	x19, x1, #0xfffffffffffffff8
    6f78:	b9400005 	ldr	w5, [x0]
    6f7c:	17fffeb5 	b	6a50 <__vsnprintf+0x188>
    6f80:	11002014 	add	w20, w0, #0x8
    6f84:	8b20c380 	add	x0, x28, w0, sxtw
    6f88:	7100029f 	cmp	w20, #0x0
    6f8c:	54ffff6d 	b.le	6f78 <__vsnprintf+0x6b0>
    6f90:	91002e61 	add	x1, x19, #0xb
    6f94:	17fffff7 	b	6f70 <__vsnprintf+0x6a8>
/home/pedro/devel/optee/optee_os/lib/libutils/ext/snprintk.c:415
    6f98:	b9407fa1 	ldr	w1, [x29,#124]
    6f9c:	34000b81 	cbz	w1, 710c <__vsnprintf+0x844>
    6fa0:	39400321 	ldrb	w1, [x25]
    6fa4:	7101543f 	cmp	w1, #0x55
    6fa8:	54000b21 	b.ne	710c <__vsnprintf+0x844>
    6fac:	39400721 	ldrb	w1, [x25,#1]
    6fb0:	7101b03f 	cmp	w1, #0x6c
    6fb4:	54000ac1 	b.ne	710c <__vsnprintf+0x844>
/home/pedro/devel/optee/optee_os/lib/libutils/ext/snprintk.c:420
    6fb8:	91000b39 	add	x25, x25, #0x2
/home/pedro/devel/optee/optee_os/lib/libutils/ext/snprintk.c:421
    6fbc:	37f809c0 	tbnz	w0, #31, 70f4 <__vsnprintf+0x82c>
    6fc0:	91003e61 	add	x1, x19, #0xf
    6fc4:	2a0003f4 	mov	w20, w0
    6fc8:	aa1303e0 	mov	x0, x19
    6fcc:	927df033 	and	x19, x1, #0xfffffffffffffff8
    6fd0:	f9400000 	ldr	x0, [x0]
uuid2str():
/home/pedro/devel/optee/optee_os/lib/libutils/ext/snprintk.c:223
    6fd4:	d0000022 	adrp	x2, c000 <PRIME_TABLE+0x8a0>
    6fd8:	b90073aa 	str	w10, [x29,#112]
    6fdc:	913d9042 	add	x2, x2, #0xf64
    6fe0:	b9007ba8 	str	w8, [x29,#120]
    6fe4:	39403c01 	ldrb	w1, [x0,#15]
    6fe8:	79400804 	ldrh	w4, [x0,#4]
    6fec:	39402407 	ldrb	w7, [x0,#9]
    6ff0:	39402006 	ldrb	w6, [x0,#8]
    6ff4:	79400c05 	ldrh	w5, [x0,#6]
    6ff8:	b9002be1 	str	w1, [sp,#40]
    6ffc:	39403801 	ldrb	w1, [x0,#14]
    7000:	b90023e1 	str	w1, [sp,#32]
    7004:	39403401 	ldrb	w1, [x0,#13]
    7008:	b9001be1 	str	w1, [sp,#24]
    700c:	39403001 	ldrb	w1, [x0,#12]
    7010:	b90013e1 	str	w1, [sp,#16]
    7014:	39402c01 	ldrb	w1, [x0,#11]
    7018:	b9000be1 	str	w1, [sp,#8]
    701c:	39402801 	ldrb	w1, [x0,#10]
    7020:	b90003e1 	str	w1, [sp]
    7024:	d28004a1 	mov	x1, #0x25                  	// #37
    7028:	b9400003 	ldr	w3, [x0]
    702c:	aa1803e0 	mov	x0, x24
    7030:	94000125 	bl	74c4 <snprintk>
    7034:	2a0003e4 	mov	w4, w0
    7038:	b94073aa 	ldr	w10, [x29,#112]
kprintf():
/home/pedro/devel/optee/optee_os/lib/libutils/ext/snprintk.c:423
    703c:	aa1803e3 	mov	x3, x24
    7040:	b9407ba8 	ldr	w8, [x29,#120]
/home/pedro/devel/optee/optee_os/lib/libutils/ext/snprintk.c:285
    7044:	52800000 	mov	w0, #0x0                   	// #0
/home/pedro/devel/optee/optee_os/lib/libutils/ext/snprintk.c:424
    7048:	52800001 	mov	w1, #0x0                   	// #0
/home/pedro/devel/optee/optee_os/lib/libutils/ext/snprintk.c:565
    704c:	6b04001f 	cmp	w0, w4
    7050:	1a84a006 	csel	w6, w0, w4, ge
/home/pedro/devel/optee/optee_os/lib/libutils/ext/snprintk.c:566
    7054:	34001781 	cbz	w1, 7344 <__vsnprintf+0xa7c>
/home/pedro/devel/optee/optee_os/lib/libutils/ext/snprintk.c:567
    7058:	110004c6 	add	w6, w6, #0x1
/home/pedro/devel/optee/optee_os/lib/libutils/ext/snprintk.c:572
    705c:	6b06015f 	cmp	w10, w6
    7060:	1a86a142 	csel	w2, w10, w6, ge
    7064:	0b02037b 	add	w27, w27, w2
/home/pedro/devel/optee/optee_os/lib/libutils/ext/snprintk.c:575
    7068:	52808082 	mov	w2, #0x404                 	// #1028
    706c:	6a0202a2 	ands	w2, w21, w2
    7070:	540000a1 	b.ne	7084 <__vsnprintf+0x7bc>
/home/pedro/devel/optee/optee_os/lib/libutils/ext/snprintk.c:576
    7074:	4b060145 	sub	w5, w10, w6
/home/pedro/devel/optee/optee_os/lib/libutils/ext/snprintk.c:578
    7078:	52800407 	mov	w7, #0x20                  	// #32
/home/pedro/devel/optee/optee_os/lib/libutils/ext/snprintk.c:577
    707c:	710000bf 	cmp	w5, #0x0
    7080:	540016ac 	b.gt	7354 <__vsnprintf+0xa8c>
/home/pedro/devel/optee/optee_os/lib/libutils/ext/snprintk.c:582
    7084:	34001801 	cbz	w1, 7384 <__vsnprintf+0xabc>
/home/pedro/devel/optee/optee_os/lib/libutils/ext/snprintk.c:583
    7088:	b5001756 	cbnz	x22, 7370 <__vsnprintf+0xaa8>
/home/pedro/devel/optee/optee_os/lib/libutils/ext/snprintk.c:586
    708c:	d2800016 	mov	x22, #0x0                   	// #0
/home/pedro/devel/optee/optee_os/lib/libutils/ext/snprintk.c:590
    7090:	7110005f 	cmp	w2, #0x400
    7094:	540000a1 	b.ne	70a8 <__vsnprintf+0x7e0>
/home/pedro/devel/optee/optee_os/lib/libutils/ext/snprintk.c:591
    7098:	4b060141 	sub	w1, w10, w6
/home/pedro/devel/optee/optee_os/lib/libutils/ext/snprintk.c:593
    709c:	52800602 	mov	w2, #0x30                  	// #48
/home/pedro/devel/optee/optee_os/lib/libutils/ext/snprintk.c:592
    70a0:	7100003f 	cmp	w1, #0x0
    70a4:	540018ec 	b.gt	73c0 <__vsnprintf+0xaf8>
/home/pedro/devel/optee/optee_os/lib/libutils/ext/snprintk.c:597
    70a8:	4b040000 	sub	w0, w0, w4
/home/pedro/devel/optee/optee_os/lib/libutils/ext/snprintk.c:599
    70ac:	52800601 	mov	w1, #0x30                  	// #48
/home/pedro/devel/optee/optee_os/lib/libutils/ext/snprintk.c:598
    70b0:	7100001f 	cmp	w0, #0x0
    70b4:	5400194c 	b.gt	73dc <__vsnprintf+0xb14>
    70b8:	8b244064 	add	x4, x3, w4, uxtw
/home/pedro/devel/optee/optee_os/lib/libutils/ext/snprintk.c:602
    70bc:	eb04007f 	cmp	x3, x4
    70c0:	540019c1 	b.ne	73f8 <__vsnprintf+0xb30>
/home/pedro/devel/optee/optee_os/lib/libutils/ext/snprintk.c:605
    70c4:	3617c2b5 	tbz	w21, #2, 6918 <__vsnprintf+0x50>
/home/pedro/devel/optee/optee_os/lib/libutils/ext/snprintk.c:606
    70c8:	4b06014a 	sub	w10, w10, w6
/home/pedro/devel/optee/optee_os/lib/libutils/ext/snprintk.c:608
    70cc:	52800400 	mov	w0, #0x20                  	// #32
/home/pedro/devel/optee/optee_os/lib/libutils/ext/snprintk.c:607
    70d0:	7100015f 	cmp	w10, #0x0
    70d4:	54ffc22d 	b.le	6918 <__vsnprintf+0x50>
/home/pedro/devel/optee/optee_os/lib/libutils/ext/snprintk.c:608
    70d8:	b40000b6 	cbz	x22, 70ec <__vsnprintf+0x824>
    70dc:	eb16035f 	cmp	x26, x22
    70e0:	54000069 	b.ls	70ec <__vsnprintf+0x824>
    70e4:	390002c0 	strb	w0, [x22]
    70e8:	910006d6 	add	x22, x22, #0x1
    70ec:	5100054a 	sub	w10, w10, #0x1
    70f0:	17fffff8 	b	70d0 <__vsnprintf+0x808>
/home/pedro/devel/optee/optee_os/lib/libutils/ext/snprintk.c:421
    70f4:	11002014 	add	w20, w0, #0x8
    70f8:	8b20c380 	add	x0, x28, w0, sxtw
    70fc:	7100029f 	cmp	w20, #0x0
    7100:	54fff68d 	b.le	6fd0 <__vsnprintf+0x708>
    7104:	91003e61 	add	x1, x19, #0xf
    7108:	17ffffb0 	b	6fc8 <__vsnprintf+0x700>
/home/pedro/devel/optee/optee_os/lib/libutils/ext/snprintk.c:435
    710c:	37f801c0 	tbnz	w0, #31, 7144 <__vsnprintf+0x87c>
    7110:	91003e61 	add	x1, x19, #0xf
    7114:	2a0003f4 	mov	w20, w0
    7118:	aa1303e0 	mov	x0, x19
    711c:	927df033 	and	x19, x1, #0xfffffffffffffff8
/home/pedro/devel/optee/optee_os/lib/libutils/ext/snprintk.c:437
    7120:	90000037 	adrp	x23, b000 <mpa_set_oct_str+0x7c>
    7124:	911be2f7 	add	x23, x23, #0x6f8
/home/pedro/devel/optee/optee_os/lib/libutils/ext/snprintk.c:435
    7128:	f9400005 	ldr	x5, [x0]
/home/pedro/devel/optee/optee_os/lib/libutils/ext/snprintk.c:438
    712c:	321f02b5 	orr	w21, w21, #0x2
/home/pedro/devel/optee/optee_os/lib/libutils/ext/snprintk.c:437
    7130:	910062f7 	add	x23, x23, #0x18
/home/pedro/devel/optee/optee_os/lib/libutils/ext/snprintk.c:482
    7134:	52800001 	mov	w1, #0x0                   	// #0
/home/pedro/devel/optee/optee_os/lib/libutils/ext/snprintk.c:439
    7138:	52800f08 	mov	w8, #0x78                  	// #120
/home/pedro/devel/optee/optee_os/lib/libutils/ext/snprintk.c:436
    713c:	52800040 	mov	w0, #0x2                   	// #2
    7140:	17fffefe 	b	6d38 <__vsnprintf+0x470>
/home/pedro/devel/optee/optee_os/lib/libutils/ext/snprintk.c:435
    7144:	11002014 	add	w20, w0, #0x8
    7148:	8b20c380 	add	x0, x28, w0, sxtw
    714c:	7100029f 	cmp	w20, #0x0
    7150:	54fffe8d 	b.le	7120 <__vsnprintf+0x858>
    7154:	91003e61 	add	x1, x19, #0xf
    7158:	17fffff0 	b	7118 <__vsnprintf+0x850>
/home/pedro/devel/optee/optee_os/lib/libutils/ext/snprintk.c:442
    715c:	11002014 	add	w20, w0, #0x8
    7160:	8b20c380 	add	x0, x28, w0, sxtw
    7164:	7100029f 	cmp	w20, #0x0
    7168:	54ffcbcd 	b.le	6ae0 <__vsnprintf+0x218>
    716c:	91003e61 	add	x1, x19, #0xf
    7170:	17fffe5a 	b	6ad8 <__vsnprintf+0x210>
/home/pedro/devel/optee/optee_os/lib/libutils/ext/snprintk.c:460
    7174:	aa0303e0 	mov	x0, x3
    7178:	b9006fa8 	str	w8, [x29,#108]
    717c:	f9003ba3 	str	x3, [x29,#112]
    7180:	b9007baa 	str	w10, [x29,#120]
    7184:	97fffdca 	bl	68ac <strlen>
/home/pedro/devel/optee/optee_os/lib/libutils/ext/snprintk.c:461
    7188:	52800001 	mov	w1, #0x0                   	// #0
/home/pedro/devel/optee/optee_os/lib/libutils/ext/snprintk.c:460
    718c:	2a0003e4 	mov	w4, w0
    7190:	b9406fa8 	ldr	w8, [x29,#108]
/home/pedro/devel/optee/optee_os/lib/libutils/ext/snprintk.c:285
    7194:	52800000 	mov	w0, #0x0                   	// #0
    7198:	b9407baa 	ldr	w10, [x29,#120]
    719c:	f9403ba3 	ldr	x3, [x29,#112]
    71a0:	17ffffab 	b	704c <__vsnprintf+0x784>
/home/pedro/devel/optee/optee_os/lib/libutils/ext/snprintk.c:464
    71a4:	321c02b5 	orr	w21, w21, #0x10
    71a8:	17fffe6c 	b	6b58 <__vsnprintf+0x290>
/home/pedro/devel/optee/optee_os/lib/libutils/ext/snprintk.c:467
    71ac:	3747cd95 	tbnz	w21, #8, 6b5c <__vsnprintf+0x294>
    71b0:	374fcd75 	tbnz	w21, #9, 6b5c <__vsnprintf+0x294>
    71b4:	372fcd55 	tbnz	w21, #5, 6b5c <__vsnprintf+0x294>
    71b8:	3727cd35 	tbnz	w21, #4, 6b5c <__vsnprintf+0x294>
    71bc:	36300295 	tbz	w21, #6, 720c <__vsnprintf+0x944>
    71c0:	37f801a0 	tbnz	w0, #31, 71f4 <__vsnprintf+0x92c>
    71c4:	91002e61 	add	x1, x19, #0xb
    71c8:	2a0003f4 	mov	w20, w0
    71cc:	aa1303e0 	mov	x0, x19
    71d0:	927df033 	and	x19, x1, #0xfffffffffffffff8
    71d4:	79400005 	ldrh	w5, [x0]
    71d8:	17fffe67 	b	6b74 <__vsnprintf+0x2ac>
    71dc:	11002014 	add	w20, w0, #0x8
    71e0:	8b20c380 	add	x0, x28, w0, sxtw
    71e4:	7100029f 	cmp	w20, #0x0
    71e8:	54ffcc4d 	b.le	6b70 <__vsnprintf+0x2a8>
    71ec:	91003e61 	add	x1, x19, #0xf
    71f0:	17fffe5e 	b	6b68 <__vsnprintf+0x2a0>
    71f4:	11002014 	add	w20, w0, #0x8
    71f8:	8b20c380 	add	x0, x28, w0, sxtw
    71fc:	7100029f 	cmp	w20, #0x0
    7200:	54fffead 	b.le	71d4 <__vsnprintf+0x90c>
    7204:	91002e61 	add	x1, x19, #0xb
    7208:	17fffff1 	b	71cc <__vsnprintf+0x904>
    720c:	37f800e0 	tbnz	w0, #31, 7228 <__vsnprintf+0x960>
    7210:	91002e61 	add	x1, x19, #0xb
    7214:	2a0003f4 	mov	w20, w0
    7218:	aa1303e0 	mov	x0, x19
    721c:	927df033 	and	x19, x1, #0xfffffffffffffff8
    7220:	b9400005 	ldr	w5, [x0]
    7224:	17fffe54 	b	6b74 <__vsnprintf+0x2ac>
    7228:	11002014 	add	w20, w0, #0x8
    722c:	8b20c380 	add	x0, x28, w0, sxtw
    7230:	7100029f 	cmp	w20, #0x0
    7234:	54ffff6d 	b.le	7220 <__vsnprintf+0x958>
    7238:	91002e61 	add	x1, x19, #0xb
    723c:	17fffff7 	b	7218 <__vsnprintf+0x950>
/home/pedro/devel/optee/optee_os/lib/libutils/ext/snprintk.c:474
    7240:	90000037 	adrp	x23, b000 <mpa_set_oct_str+0x7c>
    7244:	911be2f7 	add	x23, x23, #0x6f8
    7248:	910062f7 	add	x23, x23, #0x18
    724c:	17fffe4e 	b	6b84 <__vsnprintf+0x2bc>
/home/pedro/devel/optee/optee_os/lib/libutils/ext/snprintk.c:475
    7250:	3747c9d5 	tbnz	w21, #8, 6b88 <__vsnprintf+0x2c0>
    7254:	374fc9b5 	tbnz	w21, #9, 6b88 <__vsnprintf+0x2c0>
    7258:	372fc995 	tbnz	w21, #5, 6b88 <__vsnprintf+0x2c0>
    725c:	3727c975 	tbnz	w21, #4, 6b88 <__vsnprintf+0x2c0>
    7260:	36300295 	tbz	w21, #6, 72b0 <__vsnprintf+0x9e8>
    7264:	37f801a0 	tbnz	w0, #31, 7298 <__vsnprintf+0x9d0>
    7268:	91002e61 	add	x1, x19, #0xb
    726c:	2a0003f4 	mov	w20, w0
    7270:	aa1303e0 	mov	x0, x19
    7274:	927df033 	and	x19, x1, #0xfffffffffffffff8
    7278:	79400005 	ldrh	w5, [x0]
    727c:	17fffe49 	b	6ba0 <__vsnprintf+0x2d8>
    7280:	11002014 	add	w20, w0, #0x8
    7284:	8b20c380 	add	x0, x28, w0, sxtw
    7288:	7100029f 	cmp	w20, #0x0
    728c:	54ffc88d 	b.le	6b9c <__vsnprintf+0x2d4>
    7290:	91003e61 	add	x1, x19, #0xf
    7294:	17fffe40 	b	6b94 <__vsnprintf+0x2cc>
    7298:	11002014 	add	w20, w0, #0x8
    729c:	8b20c380 	add	x0, x28, w0, sxtw
    72a0:	7100029f 	cmp	w20, #0x0
    72a4:	54fffead 	b.le	7278 <__vsnprintf+0x9b0>
    72a8:	91002e61 	add	x1, x19, #0xb
    72ac:	17fffff1 	b	7270 <__vsnprintf+0x9a8>
    72b0:	37f800e0 	tbnz	w0, #31, 72cc <__vsnprintf+0xa04>
    72b4:	91002e61 	add	x1, x19, #0xb
    72b8:	2a0003f4 	mov	w20, w0
    72bc:	aa1303e0 	mov	x0, x19
    72c0:	927df033 	and	x19, x1, #0xfffffffffffffff8
    72c4:	b9400005 	ldr	w5, [x0]
    72c8:	17fffe36 	b	6ba0 <__vsnprintf+0x2d8>
    72cc:	11002014 	add	w20, w0, #0x8
    72d0:	8b20c380 	add	x0, x28, w0, sxtw
    72d4:	7100029f 	cmp	w20, #0x0
    72d8:	54ffff6d 	b.le	72c4 <__vsnprintf+0x9fc>
    72dc:	91002e61 	add	x1, x19, #0xb
    72e0:	17fffff7 	b	72bc <__vsnprintf+0x9f4>
/home/pedro/devel/optee/optee_os/lib/libutils/ext/snprintk.c:503
    72e4:	91009700 	add	x0, x24, #0x25
/home/pedro/devel/optee/optee_os/lib/libutils/ext/snprintk.c:517
    72e8:	d2800146 	mov	x6, #0xa                   	// #10
/home/pedro/devel/optee/optee_os/lib/libutils/ext/snprintk.c:516
    72ec:	f10024bf 	cmp	x5, #0x9
    72f0:	d1000403 	sub	x3, x0, #0x1
    72f4:	540000c8 	b.hi	730c <__vsnprintf+0xa44>
/home/pedro/devel/optee/optee_os/lib/libutils/ext/snprintk.c:520
    72f8:	1100c0a2 	add	w2, w5, #0x30
    72fc:	381ff002 	sturb	w2, [x0,#-1]
    7300:	17fffea7 	b	6d9c <__vsnprintf+0x4d4>
/home/pedro/devel/optee/optee_os/lib/libutils/ext/snprintk.c:508
    7304:	aa0303e0 	mov	x0, x3
    7308:	17fffe98 	b	6d68 <__vsnprintf+0x4a0>
/home/pedro/devel/optee/optee_os/lib/libutils/ext/snprintk.c:517
    730c:	aa0303e0 	mov	x0, x3
    7310:	9ac608a3 	udiv	x3, x5, x6
    7314:	9b069462 	msub	x2, x3, x6, x5
/home/pedro/devel/optee/optee_os/lib/libutils/ext/snprintk.c:518
    7318:	aa0303e5 	mov	x5, x3
/home/pedro/devel/optee/optee_os/lib/libutils/ext/snprintk.c:517
    731c:	1100c042 	add	w2, w2, #0x30
    7320:	39000002 	strb	w2, [x0]
    7324:	17fffff2 	b	72ec <__vsnprintf+0xa24>
/home/pedro/devel/optee/optee_os/lib/libutils/ext/snprintk.c:503
    7328:	91009703 	add	x3, x24, #0x25
/home/pedro/devel/optee/optee_os/lib/libutils/ext/snprintk.c:525
    732c:	92400ca0 	and	x0, x5, #0xf
/home/pedro/devel/optee/optee_os/lib/libutils/ext/snprintk.c:526
    7330:	d344fca5 	lsr	x5, x5, #4
/home/pedro/devel/optee/optee_os/lib/libutils/ext/snprintk.c:525
    7334:	38606ae0 	ldrb	w0, [x23,x0]
    7338:	381ffc60 	strb	w0, [x3,#-1]!
/home/pedro/devel/optee/optee_os/lib/libutils/ext/snprintk.c:527
    733c:	b5ffff85 	cbnz	x5, 732c <__vsnprintf+0xa64>
    7340:	17fffe97 	b	6d9c <__vsnprintf+0x4d4>
/home/pedro/devel/optee/optee_os/lib/libutils/ext/snprintk.c:569
    7344:	110008c2 	add	w2, w6, #0x2
    7348:	f27f02bf 	tst	x21, #0x2
    734c:	1a861046 	csel	w6, w2, w6, ne
    7350:	17ffff43 	b	705c <__vsnprintf+0x794>
/home/pedro/devel/optee/optee_os/lib/libutils/ext/snprintk.c:578
    7354:	b40000b6 	cbz	x22, 7368 <__vsnprintf+0xaa0>
    7358:	eb16035f 	cmp	x26, x22
    735c:	54000069 	b.ls	7368 <__vsnprintf+0xaa0>
    7360:	390002c7 	strb	w7, [x22]
    7364:	910006d6 	add	x22, x22, #0x1
    7368:	510004a5 	sub	w5, w5, #0x1
    736c:	17ffff44 	b	707c <__vsnprintf+0x7b4>
/home/pedro/devel/optee/optee_os/lib/libutils/ext/snprintk.c:583
    7370:	eb16035f 	cmp	x26, x22
    7374:	54ffe8e9 	b.ls	7090 <__vsnprintf+0x7c8>
    7378:	390002c1 	strb	w1, [x22]
    737c:	910006d6 	add	x22, x22, #0x1
    7380:	17ffff44 	b	7090 <__vsnprintf+0x7c8>
/home/pedro/devel/optee/optee_os/lib/libutils/ext/snprintk.c:584
    7384:	360fe875 	tbz	w21, #1, 7090 <__vsnprintf+0x7c8>
/home/pedro/devel/optee/optee_os/lib/libutils/ext/snprintk.c:585
    7388:	b4ffe836 	cbz	x22, 708c <__vsnprintf+0x7c4>
    738c:	eb16035f 	cmp	x26, x22
    7390:	54ffe809 	b.ls	7090 <__vsnprintf+0x7c8>
    7394:	52800601 	mov	w1, #0x30                  	// #48
    7398:	390002c1 	strb	w1, [x22]
/home/pedro/devel/optee/optee_os/lib/libutils/ext/snprintk.c:586
    739c:	b10006c1 	adds	x1, x22, #0x1
    73a0:	54ffe760 	b.eq	708c <__vsnprintf+0x7c4>
    73a4:	eb01035f 	cmp	x26, x1
    73a8:	54000089 	b.ls	73b8 <__vsnprintf+0xaf0>
    73ac:	390006c8 	strb	w8, [x22,#1]
    73b0:	91000ad6 	add	x22, x22, #0x2
    73b4:	17ffff37 	b	7090 <__vsnprintf+0x7c8>
    73b8:	aa0103f6 	mov	x22, x1
    73bc:	17ffff35 	b	7090 <__vsnprintf+0x7c8>
/home/pedro/devel/optee/optee_os/lib/libutils/ext/snprintk.c:593
    73c0:	b40000b6 	cbz	x22, 73d4 <__vsnprintf+0xb0c>
    73c4:	eb16035f 	cmp	x26, x22
    73c8:	54000069 	b.ls	73d4 <__vsnprintf+0xb0c>
    73cc:	390002c2 	strb	w2, [x22]
    73d0:	910006d6 	add	x22, x22, #0x1
    73d4:	51000421 	sub	w1, w1, #0x1
    73d8:	17ffff32 	b	70a0 <__vsnprintf+0x7d8>
/home/pedro/devel/optee/optee_os/lib/libutils/ext/snprintk.c:599
    73dc:	b40000b6 	cbz	x22, 73f0 <__vsnprintf+0xb28>
    73e0:	eb16035f 	cmp	x26, x22
    73e4:	54000069 	b.ls	73f0 <__vsnprintf+0xb28>
    73e8:	390002c1 	strb	w1, [x22]
    73ec:	910006d6 	add	x22, x22, #0x1
    73f0:	51000400 	sub	w0, w0, #0x1
    73f4:	17ffff2f 	b	70b0 <__vsnprintf+0x7e8>
/home/pedro/devel/optee/optee_os/lib/libutils/ext/snprintk.c:603
    73f8:	b40000d6 	cbz	x22, 7410 <__vsnprintf+0xb48>
    73fc:	eb16035f 	cmp	x26, x22
    7400:	54000089 	b.ls	7410 <__vsnprintf+0xb48>
    7404:	39400060 	ldrb	w0, [x3]
    7408:	910006d6 	add	x22, x22, #0x1
    740c:	381ff2c0 	sturb	w0, [x22,#-1]
/home/pedro/devel/optee/optee_os/lib/libutils/ext/snprintk.c:602
    7410:	91000463 	add	x3, x3, #0x1
    7414:	17ffff2a 	b	70bc <__vsnprintf+0x7f4>
__vsnprintf():
/home/pedro/devel/optee/optee_os/lib/libutils/ext/snprintk.c:143
    7418:	f94047a0 	ldr	x0, [x29,#136]
    741c:	f100001f 	cmp	x0, #0x0
    7420:	f94043a0 	ldr	x0, [x29,#128]
    7424:	fa401804 	ccmp	x0, #0x0, #0x4, ne
    7428:	540000c0 	b.eq	7440 <__vsnprintf+0xb78>
/home/pedro/devel/optee/optee_os/lib/libutils/ext/snprintk.c:145
    742c:	f94043a1 	ldr	x1, [x29,#128]
    7430:	93407f60 	sxtw	x0, w27
    7434:	eb00003f 	cmp	x1, x0
    7438:	54000168 	b.hi	7464 <__vsnprintf+0xb9c>
/home/pedro/devel/optee/optee_os/lib/libutils/ext/snprintk.c:146
    743c:	381ff35f 	sturb	wzr, [x26,#-1]
/home/pedro/devel/optee/optee_os/lib/libutils/ext/snprintk.c:151
    7440:	2a1b03e0 	mov	w0, w27
    7444:	a94453f3 	ldp	x19, x20, [sp,#64]
    7448:	a9455bf5 	ldp	x21, x22, [sp,#80]
    744c:	a94663f7 	ldp	x23, x24, [sp,#96]
    7450:	a9476bf9 	ldp	x25, x26, [sp,#112]
    7454:	a94873fb 	ldp	x27, x28, [sp,#128]
    7458:	a9437bfd 	ldp	x29, x30, [sp,#48]
    745c:	9103c3ff 	add	sp, sp, #0xf0
    7460:	d65f03c0 	ret
/home/pedro/devel/optee/optee_os/lib/libutils/ext/snprintk.c:148
    7464:	f94047a1 	ldr	x1, [x29,#136]
    7468:	3820683f 	strb	wzr, [x1,x0]
/home/pedro/devel/optee/optee_os/lib/libutils/ext/snprintk.c:150
    746c:	17fffff5 	b	7440 <__vsnprintf+0xb78>

0000000000007470 <vsnprintk>:
vsnprintk():
/home/pedro/devel/optee/optee_os/lib/libutils/ext/snprintk.c:129
    7470:	a9bb7bfd 	stp	x29, x30, [sp,#-80]!
    7474:	910003fd 	mov	x29, sp
    7478:	a90153f3 	stp	x19, x20, [sp,#16]
    747c:	aa0003f3 	mov	x19, x0
    7480:	f90013f5 	str	x21, [sp,#32]
    7484:	aa0103f4 	mov	x20, x1
    7488:	aa0203f5 	mov	x21, x2
/home/pedro/devel/optee/optee_os/lib/libutils/ext/snprintk.c:130
    748c:	aa0303e1 	mov	x1, x3
    7490:	9100c3a0 	add	x0, x29, #0x30
    7494:	d2800402 	mov	x2, #0x20                  	// #32
    7498:	97fffce3 	bl	6824 <memcpy>
    749c:	aa0003e3 	mov	x3, x0
    74a0:	aa1503e2 	mov	x2, x21
    74a4:	aa1403e1 	mov	x1, x20
    74a8:	52800024 	mov	w4, #0x1                   	// #1
    74ac:	aa1303e0 	mov	x0, x19
    74b0:	97fffd06 	bl	68c8 <__vsnprintf>
/home/pedro/devel/optee/optee_os/lib/libutils/ext/snprintk.c:131
    74b4:	f94013f5 	ldr	x21, [sp,#32]
    74b8:	a94153f3 	ldp	x19, x20, [sp,#16]
    74bc:	a8c57bfd 	ldp	x29, x30, [sp],#80
    74c0:	d65f03c0 	ret

00000000000074c4 <snprintk>:
snprintk():
/home/pedro/devel/optee/optee_os/lib/libutils/ext/snprintk.c:112
    74c4:	a9b07bfd 	stp	x29, x30, [sp,#-256]!
    74c8:	910003fd 	mov	x29, sp
    74cc:	a90d93a3 	stp	x3, x4, [x29,#216]
/home/pedro/devel/optee/optee_os/lib/libutils/ext/snprintk.c:116
    74d0:	910403a3 	add	x3, x29, #0x100
    74d4:	a9030fa3 	stp	x3, x3, [x29,#48]
    74d8:	910343a3 	add	x3, x29, #0xd0
    74dc:	f90023a3 	str	x3, [x29,#64]
    74e0:	128004e3 	mov	w3, #0xffffffd8            	// #-40
    74e4:	b9004ba3 	str	w3, [x29,#72]
    74e8:	12800fe3 	mov	w3, #0xffffff80            	// #-128
    74ec:	b9004fa3 	str	w3, [x29,#76]
/home/pedro/devel/optee/optee_os/lib/libutils/ext/snprintk.c:117
    74f0:	910043a3 	add	x3, x29, #0x10
/home/pedro/devel/optee/optee_os/lib/libutils/ext/snprintk.c:112
    74f4:	a90e9ba5 	stp	x5, x6, [x29,#232]
/home/pedro/devel/optee/optee_os/lib/libutils/ext/snprintk.c:117
    74f8:	a94317a4 	ldp	x4, x5, [x29,#48]
    74fc:	a90117a4 	stp	x4, x5, [x29,#16]
    7500:	a94417a4 	ldp	x4, x5, [x29,#64]
/home/pedro/devel/optee/optee_os/lib/libutils/ext/snprintk.c:112
    7504:	3d8017a0 	str	q0, [x29,#80]
    7508:	3d801ba1 	str	q1, [x29,#96]
    750c:	3d801fa2 	str	q2, [x29,#112]
    7510:	3d8023a3 	str	q3, [x29,#128]
    7514:	3d8027a4 	str	q4, [x29,#144]
    7518:	3d802ba5 	str	q5, [x29,#160]
    751c:	3d802fa6 	str	q6, [x29,#176]
    7520:	3d8033a7 	str	q7, [x29,#192]
    7524:	f9007fa7 	str	x7, [x29,#248]
/home/pedro/devel/optee/optee_os/lib/libutils/ext/snprintk.c:117
    7528:	a90217a4 	stp	x4, x5, [x29,#32]
    752c:	97ffffd1 	bl	7470 <vsnprintk>
/home/pedro/devel/optee/optee_os/lib/libutils/ext/snprintk.c:121
    7530:	a8d07bfd 	ldp	x29, x30, [sp],#256
    7534:	d65f03c0 	ret

0000000000007538 <buf_compare_ct>:
buf_compare_ct():
/home/pedro/devel/optee/optee_os/lib/libutils/ext/buf_compare_ct.c:13
    7538:	d2800004 	mov	x4, #0x0                   	// #0
/home/pedro/devel/optee/optee_os/lib/libutils/ext/buf_compare_ct.c:9
    753c:	52800003 	mov	w3, #0x0                   	// #0
/home/pedro/devel/optee/optee_os/lib/libutils/ext/buf_compare_ct.c:13
    7540:	eb04005f 	cmp	x2, x4
    7544:	540000c1 	b.ne	755c <buf_compare_ct+0x24>
/home/pedro/devel/optee/optee_os/lib/libutils/ext/buf_compare_ct.c:19
    7548:	2a831063 	orr	w3, w3, w3, asr #4
/home/pedro/devel/optee/optee_os/lib/libutils/ext/buf_compare_ct.c:20
    754c:	2a830863 	orr	w3, w3, w3, asr #2
/home/pedro/devel/optee/optee_os/lib/libutils/ext/buf_compare_ct.c:21
    7550:	2a830463 	orr	w3, w3, w3, asr #1
/home/pedro/devel/optee/optee_os/lib/libutils/ext/buf_compare_ct.c:25
    7554:	12000060 	and	w0, w3, #0x1
    7558:	d65f03c0 	ret
/home/pedro/devel/optee/optee_os/lib/libutils/ext/buf_compare_ct.c:14
    755c:	38646805 	ldrb	w5, [x0,x4]
    7560:	38646826 	ldrb	w6, [x1,x4]
    7564:	91000484 	add	x4, x4, #0x1
    7568:	4a0600a5 	eor	w5, w5, w6
    756c:	12001ca5 	and	w5, w5, #0xff
    7570:	2a050063 	orr	w3, w3, w5
    7574:	17fffff3 	b	7540 <buf_compare_ct+0x8>

0000000000007578 <trace_set_level>:
trace_set_level():
/home/pedro/devel/optee/optee_os/lib/libutils/ext/trace.c:44
    7578:	51000401 	sub	w1, w0, #0x1
    757c:	71000c3f 	cmp	w1, #0x3
    7580:	d0000021 	adrp	x1, d000 <__func__.3637+0xb58>
    7584:	54000088 	b.hi	7594 <trace_set_level+0x1c>
/home/pedro/devel/optee/optee_os/lib/libutils/ext/trace.c:47
    7588:	f9414421 	ldr	x1, [x1,#648]
    758c:	b9000020 	str	w0, [x1]
    7590:	d65f03c0 	ret
    7594:	52800080 	mov	w0, #0x4                   	// #4
    7598:	17fffffc 	b	7588 <trace_set_level+0x10>

000000000000759c <trace_get_level>:
trace_get_level():
/home/pedro/devel/optee/optee_os/lib/libutils/ext/trace.c:53
    759c:	d0000020 	adrp	x0, d000 <__func__.3637+0xb58>
    75a0:	f9414400 	ldr	x0, [x0,#648]
    75a4:	b9400000 	ldr	w0, [x0]
    75a8:	d65f03c0 	ret

00000000000075ac <trace_printf>:
trace_printf():
/home/pedro/devel/optee/optee_os/lib/libutils/ext/trace.c:93
    75ac:	d108c3ff 	sub	sp, sp, #0x230
    75b0:	a9007bfd 	stp	x29, x30, [sp]
    75b4:	910003fd 	mov	x29, sp
    75b8:	f9010fa5 	str	x5, [x29,#536]
    75bc:	910403a5 	add	x5, x29, #0x100
    75c0:	a90363f7 	stp	x23, x24, [sp,#48]
/home/pedro/devel/optee/optee_os/lib/libutils/ext/trace.c:100
    75c4:	72001c78 	ands	w24, w3, #0xff
/home/pedro/devel/optee/optee_os/lib/libutils/ext/trace.c:93
    75c8:	a90153f3 	stp	x19, x20, [sp,#16]
    75cc:	a9025bf5 	stp	x21, x22, [sp,#32]
    75d0:	a9046bf9 	stp	x25, x26, [sp,#64]
    75d4:	f90113a6 	str	x6, [x29,#544]
    75d8:	f90117a7 	str	x7, [x29,#552]
    75dc:	3d8024a0 	str	q0, [x5,#144]
    75e0:	3d8028a1 	str	q1, [x5,#160]
    75e4:	3d802ca2 	str	q2, [x5,#176]
    75e8:	3d8030a3 	str	q3, [x5,#192]
    75ec:	3d8034a4 	str	q4, [x5,#208]
    75f0:	3d8038a5 	str	q5, [x5,#224]
    75f4:	3d803ca6 	str	q6, [x5,#240]
    75f8:	910803a5 	add	x5, x29, #0x200
    75fc:	3d8000a7 	str	q7, [x5]
/home/pedro/devel/optee/optee_os/lib/libutils/ext/trace.c:100
    7600:	54000d60 	b.eq	77ac <trace_printf+0x200>
/home/pedro/devel/optee/optee_os/lib/libutils/ext/trace.c:100 (discriminator 1)
    7604:	d0000025 	adrp	x5, d000 <__func__.3637+0xb58>
    7608:	f94144a5 	ldr	x5, [x5,#648]
    760c:	b94000a3 	ldr	w3, [x5]
    7610:	6b02007f 	cmp	w3, w2
    7614:	54000beb 	b.lt	7790 <trace_printf+0x1e4>
trace_level_to_string():
/home/pedro/devel/optee/optee_os/lib/libutils/ext/trace.c:70
    7618:	51000443 	sub	w3, w2, #0x1
    761c:	71000c7f 	cmp	w3, #0x3
/home/pedro/devel/optee/optee_os/lib/libutils/ext/trace.c:73
    7620:	90000023 	adrp	x3, b000 <mpa_set_oct_str+0x7c>
/home/pedro/devel/optee/optee_os/lib/libutils/ext/trace.c:70
    7624:	1a9f9045 	csel	w5, w2, wzr, ls
/home/pedro/devel/optee/optee_os/lib/libutils/ext/trace.c:73
    7628:	911ca063 	add	x3, x3, #0x728
    762c:	3865c863 	ldrb	w3, [x3,w5,sxtw]
trace_printf():
/home/pedro/devel/optee/optee_os/lib/libutils/ext/trace.c:104
    7630:	910243b4 	add	x20, x29, #0x90
    7634:	2a0203fa 	mov	w26, w2
    7638:	2a0103f9 	mov	w25, w1
    763c:	aa0003f6 	mov	x22, x0
    7640:	b0000022 	adrp	x2, c000 <PRIME_TABLE+0x8a0>
    7644:	aa0403f7 	mov	x23, x4
    7648:	913e5442 	add	x2, x2, #0xf95
    764c:	d2802001 	mov	x1, #0x100                 	// #256
    7650:	aa1403e0 	mov	x0, x20
    7654:	97ffff9c 	bl	74c4 <snprintk>
/home/pedro/devel/optee/optee_os/lib/libutils/ext/trace.c:106
    7658:	37f809c0 	tbnz	w0, #31, 7790 <trace_printf+0x1e4>
/home/pedro/devel/optee/optee_os/lib/libutils/ext/trace.c:111
    765c:	d0000025 	adrp	x5, d000 <__func__.3637+0xb58>
/home/pedro/devel/optee/optee_os/lib/libutils/ext/trace.c:108
    7660:	93407c13 	sxtw	x19, w0
/home/pedro/devel/optee/optee_os/lib/libutils/ext/trace.c:111
    7664:	b0000022 	adrp	x2, c000 <PRIME_TABLE+0x8a0>
    7668:	d2802001 	mov	x1, #0x100                 	// #256
    766c:	f9414ca3 	ldr	x3, [x5,#664]
    7670:	913e6442 	add	x2, x2, #0xf99
    7674:	cb130021 	sub	x1, x1, x19
    7678:	8b130280 	add	x0, x20, x19
    767c:	97ffff92 	bl	74c4 <snprintk>
/home/pedro/devel/optee/optee_os/lib/libutils/ext/trace.c:113
    7680:	37f80880 	tbnz	w0, #31, 7790 <trace_printf+0x1e4>
/home/pedro/devel/optee/optee_os/lib/libutils/ext/trace.c:115
    7684:	8b20c273 	add	x19, x19, w0, sxtw
/home/pedro/devel/optee/optee_os/lib/libutils/ext/trace.c:118
    7688:	340000b8 	cbz	w24, 769c <trace_printf+0xf0>
/home/pedro/devel/optee/optee_os/lib/libutils/ext/trace.c:118 (discriminator 1)
    768c:	52800340 	mov	w0, #0x1a                  	// #26
/home/pedro/devel/optee/optee_os/lib/libutils/ext/trace.c:119 (discriminator 1)
    7690:	12800004 	mov	w4, #0xffffffff            	// #-1
/home/pedro/devel/optee/optee_os/lib/libutils/ext/trace.c:118 (discriminator 1)
    7694:	1ada2401 	lsr	w1, w0, w26
    7698:	36000061 	tbz	w1, #0, 76a4 <trace_printf+0xf8>
/home/pedro/devel/optee/optee_os/lib/libutils/ext/trace.c:121
    769c:	97fff7c8 	bl	55bc <trace_ext_get_thread_id>
    76a0:	2a0003e4 	mov	w4, w0
/home/pedro/devel/optee/optee_os/lib/libutils/ext/trace.c:123
    76a4:	d2802001 	mov	x1, #0x100                 	// #256
    76a8:	8b130280 	add	x0, x20, x19
    76ac:	cb130021 	sub	x1, x1, x19
print_thread_id():
/home/pedro/devel/optee/optee_os/lib/libutils/ext/trace.c:84
    76b0:	37f80824 	tbnz	w4, #31, 77b4 <trace_printf+0x208>
/home/pedro/devel/optee/optee_os/lib/libutils/ext/trace.c:85
    76b4:	b0000022 	adrp	x2, c000 <PRIME_TABLE+0x8a0>
    76b8:	52800023 	mov	w3, #0x1                   	// #1
    76bc:	913e7442 	add	x2, x2, #0xf9d
    76c0:	97ffff81 	bl	74c4 <snprintk>
trace_printf():
/home/pedro/devel/optee/optee_os/lib/libutils/ext/trace.c:125
    76c4:	37f80660 	tbnz	w0, #31, 7790 <trace_printf+0x1e4>
/home/pedro/devel/optee/optee_os/lib/libutils/ext/trace.c:127
    76c8:	8b20c273 	add	x19, x19, w0, sxtw
/home/pedro/devel/optee/optee_os/lib/libutils/ext/trace.c:130
    76cc:	34000098 	cbz	w24, 76dc <trace_printf+0x130>
/home/pedro/devel/optee/optee_os/lib/libutils/ext/trace.c:130 (discriminator 1)
    76d0:	52800342 	mov	w2, #0x1a                  	// #26
    76d4:	1ada2455 	lsr	w21, w2, w26
    76d8:	36000195 	tbz	w21, #0, 7708 <trace_printf+0x15c>
/home/pedro/devel/optee/optee_os/lib/libutils/ext/trace.c:133
    76dc:	b4000176 	cbz	x22, 7708 <trace_printf+0x15c>
/home/pedro/devel/optee/optee_os/lib/libutils/ext/trace.c:134
    76e0:	b0000022 	adrp	x2, c000 <PRIME_TABLE+0x8a0>
    76e4:	d2802001 	mov	x1, #0x100                 	// #256
    76e8:	2a1903e4 	mov	w4, w25
    76ec:	aa1603e3 	mov	x3, x22
    76f0:	913ea042 	add	x2, x2, #0xfa8
    76f4:	cb130021 	sub	x1, x1, x19
    76f8:	8b130280 	add	x0, x20, x19
    76fc:	97ffff72 	bl	74c4 <snprintk>
/home/pedro/devel/optee/optee_os/lib/libutils/ext/trace.c:136
    7700:	37f80480 	tbnz	w0, #31, 7790 <trace_printf+0x1e4>
/home/pedro/devel/optee/optee_os/lib/libutils/ext/trace.c:138
    7704:	8b20c273 	add	x19, x19, w0, sxtw
/home/pedro/devel/optee/optee_os/lib/libutils/ext/trace.c:141
    7708:	9108c3a0 	add	x0, x29, #0x230
    770c:	a90703a0 	stp	x0, x0, [x29,#112]
    7710:	910843a0 	add	x0, x29, #0x210
    7714:	f90043a0 	str	x0, [x29,#128]
    7718:	128002e0 	mov	w0, #0xffffffe8            	// #-24
    771c:	b9008ba0 	str	w0, [x29,#136]
    7720:	12800fe0 	mov	w0, #0xffffff80            	// #-128
    7724:	b9008fa0 	str	w0, [x29,#140]
/home/pedro/devel/optee/optee_os/lib/libutils/ext/trace.c:142
    7728:	a94707a0 	ldp	x0, x1, [x29,#112]
    772c:	a90507a0 	stp	x0, x1, [x29,#80]
    7730:	a94807a0 	ldp	x0, x1, [x29,#128]
    7734:	a90607a0 	stp	x0, x1, [x29,#96]
    7738:	d2802001 	mov	x1, #0x100                 	// #256
    773c:	cb130021 	sub	x1, x1, x19
    7740:	8b130280 	add	x0, x20, x19
    7744:	910143a3 	add	x3, x29, #0x50
    7748:	aa1703e2 	mov	x2, x23
    774c:	97ffff49 	bl	7470 <vsnprintk>
/home/pedro/devel/optee/optee_os/lib/libutils/ext/trace.c:145
    7750:	7100001f 	cmp	w0, #0x0
    7754:	8b20c261 	add	x1, x19, w0, sxtw
    7758:	9a93c033 	csel	x19, x1, x19, gt
    775c:	d2801fc0 	mov	x0, #0xfe                  	// #254
    7760:	f103fa7f 	cmp	x19, #0xfe
    7764:	9a809273 	csel	x19, x19, x0, ls
/home/pedro/devel/optee/optee_os/lib/libutils/ext/trace.c:150
    7768:	52800140 	mov	w0, #0xa                   	// #10
    776c:	38336a80 	strb	w0, [x20,x19]
/home/pedro/devel/optee/optee_os/lib/libutils/ext/trace.c:151
    7770:	b4000093 	cbz	x19, 7780 <trace_printf+0x1d4>
/home/pedro/devel/optee/optee_os/lib/libutils/ext/trace.c:151 (discriminator 1)
    7774:	38736a80 	ldrb	w0, [x20,x19]
    7778:	7100281f 	cmp	w0, #0xa
    777c:	540002a0 	b.eq	77d0 <trace_printf+0x224>
/home/pedro/devel/optee/optee_os/lib/libutils/ext/trace.c:154
    7780:	91024ba0 	add	x0, x29, #0x92
    7784:	3833681f 	strb	wzr, [x0,x19]
/home/pedro/devel/optee/optee_os/lib/libutils/ext/trace.c:156
    7788:	aa1403e0 	mov	x0, x20
    778c:	97fff782 	bl	5594 <trace_ext_puts>
/home/pedro/devel/optee/optee_os/lib/libutils/ext/trace.c:157
    7790:	a94153f3 	ldp	x19, x20, [sp,#16]
    7794:	a9425bf5 	ldp	x21, x22, [sp,#32]
    7798:	a94363f7 	ldp	x23, x24, [sp,#48]
    779c:	a9446bf9 	ldp	x25, x26, [sp,#64]
    77a0:	a9407bfd 	ldp	x29, x30, [sp]
    77a4:	9108c3ff 	add	sp, sp, #0x230
    77a8:	d65f03c0 	ret
trace_level_to_string():
/home/pedro/devel/optee/optee_os/lib/libutils/ext/trace.c:68
    77ac:	528009a3 	mov	w3, #0x4d                  	// #77
    77b0:	17ffffa0 	b	7630 <trace_printf+0x84>
print_thread_id():
/home/pedro/devel/optee/optee_os/lib/libutils/ext/trace.c:87
    77b4:	b0000024 	adrp	x4, c000 <PRIME_TABLE+0x8a0>
    77b8:	52800023 	mov	w3, #0x1                   	// #1
    77bc:	91236484 	add	x4, x4, #0x8d9
    77c0:	b0000022 	adrp	x2, c000 <PRIME_TABLE+0x8a0>
    77c4:	913e8c42 	add	x2, x2, #0xfa3
    77c8:	97ffff3f 	bl	74c4 <snprintk>
    77cc:	17ffffbe 	b	76c4 <trace_printf+0x118>
trace_printf():
/home/pedro/devel/optee/optee_os/lib/libutils/ext/trace.c:152
    77d0:	d1000673 	sub	x19, x19, #0x1
    77d4:	17ffffe7 	b	7770 <trace_printf+0x1c4>

00000000000077d8 <dhex_dump>:
dhex_dump():
/home/pedro/devel/optee/optee_os/lib/libutils/ext/trace.c:268
    77d8:	d65f03c0 	ret

00000000000077dc <memchr>:
memchr():
/home/pedro/devel/optee/optee_os/lib/libutils/isoc/newlib/memchr.c:109
    77dc:	12001c21 	and	w1, w1, #0xff
    77e0:	8b020002 	add	x2, x0, x2
/home/pedro/devel/optee/optee_os/lib/libutils/isoc/newlib/memchr.c:153
    77e4:	eb02001f 	cmp	x0, x2
    77e8:	54000061 	b.ne	77f4 <memchr+0x18>
/home/pedro/devel/optee/optee_os/lib/libutils/isoc/newlib/memchr.c:159
    77ec:	d2800000 	mov	x0, #0x0                   	// #0
/home/pedro/devel/optee/optee_os/lib/libutils/isoc/newlib/memchr.c:160
    77f0:	d65f03c0 	ret
/home/pedro/devel/optee/optee_os/lib/libutils/isoc/newlib/memchr.c:154
    77f4:	39400003 	ldrb	w3, [x0]
    77f8:	6b01007f 	cmp	w3, w1
    77fc:	54ffffa0 	b.eq	77f0 <memchr+0x14>
/home/pedro/devel/optee/optee_os/lib/libutils/isoc/newlib/memchr.c:156
    7800:	91000400 	add	x0, x0, #0x1
    7804:	17fffff8 	b	77e4 <memchr+0x8>

0000000000007808 <__mpa_set_unused_digits_to_zero>:
__mpa_set_unused_digits_to_zero():
/home/pedro/devel/optee/optee_os/lib/libmpa/mpa_misc.c:60
    7808:	b9400401 	ldr	w1, [x0,#4]
/home/pedro/devel/optee/optee_os/lib/libmpa/mpa_misc.c:61
    780c:	b8408402 	ldr	w2, [x0],#8
/home/pedro/devel/optee/optee_os/lib/libmpa/mpa_misc.c:60
    7810:	7100003f 	cmp	w1, #0x0
    7814:	5a81a423 	cneg	w3, w1, lt
/home/pedro/devel/optee/optee_os/lib/libmpa/mpa_misc.c:61
    7818:	52800001 	mov	w1, #0x0                   	// #0
    781c:	4b030042 	sub	w2, w2, w3
    7820:	8b23c800 	add	x0, x0, w3, sxtw #2
    7824:	d37e7442 	ubfiz	x2, x2, #2, #30
    7828:	17fffc1a 	b	6890 <memset>

000000000000782c <mpa_wipe>:
mpa_wipe():
/home/pedro/devel/optee/optee_os/lib/libmpa/mpa_misc.c:78
    782c:	a9be7bfd 	stp	x29, x30, [sp,#-32]!
/home/pedro/devel/optee/optee_os/lib/libmpa/mpa_misc.c:79
    7830:	52800001 	mov	w1, #0x0                   	// #0
/home/pedro/devel/optee/optee_os/lib/libmpa/mpa_misc.c:78
    7834:	910003fd 	mov	x29, sp
    7838:	f9000bf3 	str	x19, [sp,#16]
    783c:	aa0003f3 	mov	x19, x0
/home/pedro/devel/optee/optee_os/lib/libmpa/mpa_misc.c:79
    7840:	b8408402 	ldr	w2, [x0],#8
    7844:	d37e7442 	ubfiz	x2, x2, #2, #30
    7848:	97fffc12 	bl	6890 <memset>
/home/pedro/devel/optee/optee_os/lib/libmpa/mpa_misc.c:80
    784c:	b900067f 	str	wzr, [x19,#4]
/home/pedro/devel/optee/optee_os/lib/libmpa/mpa_misc.c:81
    7850:	f9400bf3 	ldr	x19, [sp,#16]
    7854:	a8c27bfd 	ldp	x29, x30, [sp],#32
    7858:	d65f03c0 	ret

000000000000785c <mpa_copy>:
mpa_copy():
/home/pedro/devel/optee/optee_os/lib/libmpa/mpa_misc.c:94
    785c:	eb01001f 	cmp	x0, x1
    7860:	54000260 	b.eq	78ac <mpa_copy+0x50>
/home/pedro/devel/optee/optee_os/lib/libmpa/mpa_misc.c:93
    7864:	a9be7bfd 	stp	x29, x30, [sp,#-32]!
    7868:	910003fd 	mov	x29, sp
    786c:	a90153f3 	stp	x19, x20, [sp,#16]
    7870:	aa0103f3 	mov	x19, x1
    7874:	aa0003f4 	mov	x20, x0
/home/pedro/devel/optee/optee_os/lib/libmpa/mpa_misc.c:97
    7878:	91002021 	add	x1, x1, #0x8
    787c:	91002000 	add	x0, x0, #0x8
    7880:	b9400662 	ldr	w2, [x19,#4]
    7884:	7100005f 	cmp	w2, #0x0
    7888:	5a82a442 	cneg	w2, w2, lt
    788c:	531e7442 	lsl	w2, w2, #2
    7890:	93407c42 	sxtw	x2, w2
    7894:	97fffbe4 	bl	6824 <memcpy>
/home/pedro/devel/optee/optee_os/lib/libmpa/mpa_misc.c:98
    7898:	b9400660 	ldr	w0, [x19,#4]
    789c:	b9000680 	str	w0, [x20,#4]
/home/pedro/devel/optee/optee_os/lib/libmpa/mpa_misc.c:99
    78a0:	a94153f3 	ldp	x19, x20, [sp,#16]
    78a4:	a8c27bfd 	ldp	x29, x30, [sp],#32
    78a8:	d65f03c0 	ret
    78ac:	d65f03c0 	ret

00000000000078b0 <mpa_abs>:
mpa_abs():
/home/pedro/devel/optee/optee_os/lib/libmpa/mpa_misc.c:107
    78b0:	a9be7bfd 	stp	x29, x30, [sp,#-32]!
    78b4:	910003fd 	mov	x29, sp
    78b8:	f9000bf3 	str	x19, [sp,#16]
    78bc:	aa0003f3 	mov	x19, x0
/home/pedro/devel/optee/optee_os/lib/libmpa/mpa_misc.c:108
    78c0:	97ffffe7 	bl	785c <mpa_copy>
/home/pedro/devel/optee/optee_os/lib/libmpa/mpa_misc.c:109
    78c4:	b9400660 	ldr	w0, [x19,#4]
    78c8:	36f80060 	tbz	w0, #31, 78d4 <mpa_abs+0x24>
/home/pedro/devel/optee/optee_os/lib/libmpa/mpa_misc.c:109 (discriminator 1)
    78cc:	4b0003e0 	neg	w0, w0
    78d0:	b9000660 	str	w0, [x19,#4]
/home/pedro/devel/optee/optee_os/lib/libmpa/mpa_misc.c:110
    78d4:	f9400bf3 	ldr	x19, [sp,#16]
    78d8:	a8c27bfd 	ldp	x29, x30, [sp],#32
    78dc:	d65f03c0 	ret

00000000000078e0 <mpa_highest_bit_index>:
mpa_highest_bit_index():
/home/pedro/devel/optee/optee_os/lib/libmpa/mpa_misc.c:124
    78e0:	b9400401 	ldr	w1, [x0,#4]
    78e4:	7100003f 	cmp	w1, #0x0
    78e8:	540001a0 	b.eq	791c <mpa_highest_bit_index+0x3c>
/home/pedro/devel/optee/optee_os/lib/libmpa/mpa_misc.c:127
    78ec:	5a81a421 	cneg	w1, w1, lt
    78f0:	51000421 	sub	w1, w1, #0x1
    78f4:	8b21c800 	add	x0, x0, w1, sxtw #2
    78f8:	b9400802 	ldr	w2, [x0,#8]
/home/pedro/devel/optee/optee_os/lib/libmpa/mpa_misc.c:129
    78fc:	52800000 	mov	w0, #0x0                   	// #0
/home/pedro/devel/optee/optee_os/lib/libmpa/mpa_misc.c:130
    7900:	53017c42 	lsr	w2, w2, #1
/home/pedro/devel/optee/optee_os/lib/libmpa/mpa_misc.c:131
    7904:	34000082 	cbz	w2, 7914 <mpa_highest_bit_index+0x34>
/home/pedro/devel/optee/optee_os/lib/libmpa/mpa_misc.c:129 (discriminator 2)
    7908:	11000400 	add	w0, w0, #0x1
    790c:	7100801f 	cmp	w0, #0x20
    7910:	54ffff81 	b.ne	7900 <mpa_highest_bit_index+0x20>
/home/pedro/devel/optee/optee_os/lib/libmpa/mpa_misc.c:134
    7914:	0b011400 	add	w0, w0, w1, lsl #5
    7918:	d65f03c0 	ret
/home/pedro/devel/optee/optee_os/lib/libmpa/mpa_misc.c:125
    791c:	12800000 	mov	w0, #0xffffffff            	// #-1
/home/pedro/devel/optee/optee_os/lib/libmpa/mpa_misc.c:135
    7920:	d65f03c0 	ret

0000000000007924 <mpa_get_bit>:
mpa_get_bit():
/home/pedro/devel/optee/optee_os/lib/libmpa/mpa_misc.c:154
    7924:	b9400402 	ldr	w2, [x0,#4]
/home/pedro/devel/optee/optee_os/lib/libmpa/mpa_misc.c:151
    7928:	53057c23 	lsr	w3, w1, #5
/home/pedro/devel/optee/optee_os/lib/libmpa/mpa_misc.c:154
    792c:	7100005f 	cmp	w2, #0x0
    7930:	5a82a442 	cneg	w2, w2, lt
    7934:	6b02007f 	cmp	w3, w2
    7938:	54000148 	b.hi	7960 <mpa_get_bit+0x3c>
/home/pedro/devel/optee/optee_os/lib/libmpa/mpa_misc.c:157
    793c:	d37e6863 	ubfiz	x3, x3, #2, #27
/home/pedro/devel/optee/optee_os/lib/libmpa/mpa_misc.c:156
    7940:	12001021 	and	w1, w1, #0x1f
/home/pedro/devel/optee/optee_os/lib/libmpa/mpa_misc.c:157
    7944:	8b030000 	add	x0, x0, x3
/home/pedro/devel/optee/optee_os/lib/libmpa/mpa_misc.c:156
    7948:	d2800022 	mov	x2, #0x1                   	// #1
    794c:	9ac12041 	lsl	x1, x2, x1
/home/pedro/devel/optee/optee_os/lib/libmpa/mpa_misc.c:157
    7950:	b9400800 	ldr	w0, [x0,#8]
    7954:	ea00003f 	tst	x1, x0
    7958:	1a9f07e0 	cset	w0, ne
    795c:	d65f03c0 	ret
    7960:	52800000 	mov	w0, #0x0                   	// #0
/home/pedro/devel/optee/optee_os/lib/libmpa/mpa_misc.c:158
    7964:	d65f03c0 	ret

0000000000007968 <mpa_can_hold>:
mpa_can_hold():
/home/pedro/devel/optee/optee_os/lib/libmpa/mpa_misc.c:168
    7968:	b9400421 	ldr	w1, [x1,#4]
    796c:	b9400000 	ldr	w0, [x0]
    7970:	7100003f 	cmp	w1, #0x0
    7974:	5a81a421 	cneg	w1, w1, lt
    7978:	6b01001f 	cmp	w0, w1
/home/pedro/devel/optee/optee_os/lib/libmpa/mpa_misc.c:169
    797c:	1a9f37e0 	cset	w0, cs
    7980:	d65f03c0 	ret

0000000000007984 <mpa_parity>:
mpa_parity():
/home/pedro/devel/optee/optee_os/lib/libmpa/mpa_misc.c:179
    7984:	b9400800 	ldr	w0, [x0,#8]
/home/pedro/devel/optee/optee_os/lib/libmpa/mpa_misc.c:180
    7988:	12000000 	and	w0, w0, #0x1
    798c:	d65f03c0 	ret

0000000000007990 <mpa_constant_one>:
mpa_constant_one():
/home/pedro/devel/optee/optee_os/lib/libmpa/mpa_misc.c:190
    7990:	90000020 	adrp	x0, b000 <mpa_set_oct_str+0x7c>
    7994:	911cc000 	add	x0, x0, #0x730
    7998:	d65f03c0 	ret

000000000000799c <__mpa_montgomery_mul_add>:
__mpa_montgomery_mul_add():
/home/pedro/devel/optee/optee_os/lib/libmpa/mpa_montgomery.c:57
    799c:	34000222 	cbz	w2, 79e0 <__mpa_montgomery_mul_add+0x44>
/home/pedro/devel/optee/optee_os/lib/libmpa/mpa_montgomery.c:59
    79a0:	91002007 	add	x7, x0, #0x8
    79a4:	d2800025 	mov	x5, #0x1                   	// #1
/home/pedro/devel/optee/optee_os/lib/libmpa/mpa_montgomery.c:60
    79a8:	aa0703e3 	mov	x3, x7
/home/pedro/devel/optee/optee_os/lib/libmpa/mpa_montgomery.c:61
    79ac:	52800004 	mov	w4, #0x0                   	// #0
/home/pedro/devel/optee/optee_os/lib/libmpa/mpa_montgomery.c:62
    79b0:	b9400428 	ldr	w8, [x1,#4]
    79b4:	510004a6 	sub	w6, w5, #0x1
    79b8:	910004a5 	add	x5, x5, #0x1
    79bc:	6b0800df 	cmp	w6, w8
    79c0:	5400012b 	b.lt	79e4 <__mpa_montgomery_mul_add+0x48>
/home/pedro/devel/optee/optee_os/lib/libmpa/mpa_montgomery.c:69
    79c4:	350001e4 	cbnz	w4, 7a00 <__mpa_montgomery_mul_add+0x64>
/home/pedro/devel/optee/optee_os/lib/libmpa/mpa_montgomery.c:74
    79c8:	cb070063 	sub	x3, x3, x7
/home/pedro/devel/optee/optee_os/lib/libmpa/mpa_montgomery.c:75
    79cc:	b9400401 	ldr	w1, [x0,#4]
/home/pedro/devel/optee/optee_os/lib/libmpa/mpa_montgomery.c:74
    79d0:	9342fc63 	asr	x3, x3, #2
/home/pedro/devel/optee/optee_os/lib/libmpa/mpa_montgomery.c:75
    79d4:	6b01007f 	cmp	w3, w1
    79d8:	5400004d 	b.le	79e0 <__mpa_montgomery_mul_add+0x44>
/home/pedro/devel/optee/optee_os/lib/libmpa/mpa_montgomery.c:76
    79dc:	b9000403 	str	w3, [x0,#4]
    79e0:	d65f03c0 	ret
/home/pedro/devel/optee/optee_os/lib/libmpa/mpa_montgomery.c:63
    79e4:	b9400066 	ldr	w6, [x3]
    79e8:	8b2440c4 	add	x4, x6, w4, uxtw
    79ec:	b8657826 	ldr	w6, [x1,x5,lsl #2]
    79f0:	9ba210c4 	umaddl	x4, w6, w2, x4
/home/pedro/devel/optee/optee_os/lib/libmpa/mpa_montgomery.c:66
    79f4:	b8004464 	str	w4, [x3],#4
/home/pedro/devel/optee/optee_os/lib/libmpa/mpa_montgomery.c:67
    79f8:	d360fc84 	lsr	x4, x4, #32
    79fc:	17ffffed 	b	79b0 <__mpa_montgomery_mul_add+0x14>
/home/pedro/devel/optee/optee_os/lib/libmpa/mpa_montgomery.c:70
    7a00:	b9400061 	ldr	w1, [x3]
    7a04:	8b244024 	add	x4, x1, w4, uxtw
/home/pedro/devel/optee/optee_os/lib/libmpa/mpa_montgomery.c:71
    7a08:	b8004464 	str	w4, [x3],#4
/home/pedro/devel/optee/optee_os/lib/libmpa/mpa_montgomery.c:72
    7a0c:	d360fc84 	lsr	x4, x4, #32
    7a10:	17ffffed 	b	79c4 <__mpa_montgomery_mul_add+0x28>

0000000000007a14 <__mpa_montgomery_sub_ack>:
__mpa_montgomery_sub_ack():
/home/pedro/devel/optee/optee_os/lib/libmpa/mpa_montgomery.c:98
    7a14:	91002002 	add	x2, x0, #0x8
/home/pedro/devel/optee/optee_os/lib/libmpa/mpa_montgomery.c:101
    7a18:	d2800026 	mov	x6, #0x1                   	// #1
/home/pedro/devel/optee/optee_os/lib/libmpa/mpa_montgomery.c:99
    7a1c:	52800004 	mov	w4, #0x0                   	// #0
/home/pedro/devel/optee/optee_os/lib/libmpa/mpa_montgomery.c:101
    7a20:	b9400423 	ldr	w3, [x1,#4]
    7a24:	510004c5 	sub	w5, w6, #0x1
    7a28:	910004c6 	add	x6, x6, #0x1
    7a2c:	6b05007f 	cmp	w3, w5
    7a30:	540000cc 	b.gt	7a48 <__mpa_montgomery_sub_ack+0x34>
/home/pedro/devel/optee/optee_os/lib/libmpa/mpa_montgomery.c:110
    7a34:	350001a4 	cbnz	w4, 7a68 <__mpa_montgomery_sub_ack+0x54>
/home/pedro/devel/optee/optee_os/lib/libmpa/mpa_montgomery.c:116
    7a38:	b9400401 	ldr	w1, [x0,#4]
    7a3c:	6b0100bf 	cmp	w5, w1
    7a40:	5400026a 	b.ge	7a8c <__mpa_montgomery_sub_ack+0x78>
    7a44:	d65f03c0 	ret
/home/pedro/devel/optee/optee_os/lib/libmpa/mpa_montgomery.c:102
    7a48:	b8667825 	ldr	w5, [x1,x6,lsl #2]
    7a4c:	b9400043 	ldr	w3, [x2]
    7a50:	cb050063 	sub	x3, x3, x5
    7a54:	cb244063 	sub	x3, x3, w4, uxtw
/home/pedro/devel/optee/optee_os/lib/libmpa/mpa_montgomery.c:104
    7a58:	b8004443 	str	w3, [x2],#4
/home/pedro/devel/optee/optee_os/lib/libmpa/mpa_montgomery.c:105
    7a5c:	d360fc63 	lsr	x3, x3, #32
    7a60:	4b0303e4 	neg	w4, w3
    7a64:	17ffffef 	b	7a20 <__mpa_montgomery_sub_ack+0xc>
/home/pedro/devel/optee/optee_os/lib/libmpa/mpa_montgomery.c:111
    7a68:	b9400041 	ldr	w1, [x2]
/home/pedro/devel/optee/optee_os/lib/libmpa/mpa_montgomery.c:114
    7a6c:	110004a5 	add	w5, w5, #0x1
/home/pedro/devel/optee/optee_os/lib/libmpa/mpa_montgomery.c:111
    7a70:	cb244023 	sub	x3, x1, w4, uxtw
/home/pedro/devel/optee/optee_os/lib/libmpa/mpa_montgomery.c:112
    7a74:	b8004443 	str	w3, [x2],#4
/home/pedro/devel/optee/optee_os/lib/libmpa/mpa_montgomery.c:113
    7a78:	d360fc63 	lsr	x3, x3, #32
    7a7c:	4b0303e4 	neg	w4, w3
    7a80:	17ffffed 	b	7a34 <__mpa_montgomery_sub_ack+0x20>
/home/pedro/devel/optee/optee_os/lib/libmpa/mpa_montgomery.c:119
    7a84:	51000421 	sub	w1, w1, #0x1
    7a88:	b9000401 	str	w1, [x0,#4]
/home/pedro/devel/optee/optee_os/lib/libmpa/mpa_montgomery.c:118
    7a8c:	b9400401 	ldr	w1, [x0,#4]
    7a90:	7100003f 	cmp	w1, #0x0
    7a94:	5400006d 	b.le	7aa0 <__mpa_montgomery_sub_ack+0x8c>
/home/pedro/devel/optee/optee_os/lib/libmpa/mpa_montgomery.c:118 (discriminator 1)
    7a98:	b85fcc43 	ldr	w3, [x2,#-4]!
    7a9c:	34ffff43 	cbz	w3, 7a84 <__mpa_montgomery_sub_ack+0x70>
    7aa0:	d65f03c0 	ret

0000000000007aa4 <__mpa_montgomery_mul>:
__mpa_montgomery_mul():
/home/pedro/devel/optee/optee_os/lib/libmpa/mpa_montgomery.c:138
    7aa4:	a9bb7bfd 	stp	x29, x30, [sp,#-80]!
    7aa8:	910003fd 	mov	x29, sp
    7aac:	a90363f7 	stp	x23, x24, [sp,#48]
    7ab0:	aa0103f7 	mov	x23, x1
    7ab4:	a9046bf9 	stp	x25, x26, [sp,#64]
    7ab8:	910022f9 	add	x25, x23, #0x8
/home/pedro/devel/optee/optee_os/lib/libmpa/mpa_montgomery.c:145
    7abc:	52800018 	mov	w24, #0x0                   	// #0
/home/pedro/devel/optee/optee_os/lib/libmpa/mpa_montgomery.c:138
    7ac0:	a90153f3 	stp	x19, x20, [sp,#16]
    7ac4:	a9025bf5 	stp	x21, x22, [sp,#32]
    7ac8:	aa0003f3 	mov	x19, x0
    7acc:	aa0203f6 	mov	x22, x2
    7ad0:	aa0303f4 	mov	x20, x3
    7ad4:	2a0403f5 	mov	w21, w4
/home/pedro/devel/optee/optee_os/lib/libmpa/mpa_montgomery.c:143
    7ad8:	97ffff55 	bl	782c <mpa_wipe>
/home/pedro/devel/optee/optee_os/lib/libmpa/mpa_montgomery.c:145 (discriminator 1)
    7adc:	b9400680 	ldr	w0, [x20,#4]
    7ae0:	6b00031f 	cmp	w24, w0
    7ae4:	540001ab 	b.lt	7b18 <__mpa_montgomery_mul+0x74>
/home/pedro/devel/optee/optee_os/lib/libmpa/mpa_montgomery.c:162
    7ae8:	aa1403e1 	mov	x1, x20
    7aec:	aa1303e0 	mov	x0, x19
    7af0:	94000af3 	bl	a6bc <__mpa_abs_cmp>
    7af4:	37f805e0 	tbnz	w0, #31, 7bb0 <__mpa_montgomery_mul+0x10c>
/home/pedro/devel/optee/optee_os/lib/libmpa/mpa_montgomery.c:163
    7af8:	aa1403e1 	mov	x1, x20
    7afc:	aa1303e0 	mov	x0, x19
/home/pedro/devel/optee/optee_os/lib/libmpa/mpa_montgomery.c:164
    7b00:	a9425bf5 	ldp	x21, x22, [sp,#32]
    7b04:	a94153f3 	ldp	x19, x20, [sp,#16]
    7b08:	a94363f7 	ldp	x23, x24, [sp,#48]
    7b0c:	a9446bf9 	ldp	x25, x26, [sp,#64]
    7b10:	a8c57bfd 	ldp	x29, x30, [sp],#80
/home/pedro/devel/optee/optee_os/lib/libmpa/mpa_montgomery.c:163
    7b14:	17ffffc0 	b	7a14 <__mpa_montgomery_sub_ack>
/home/pedro/devel/optee/optee_os/lib/libmpa/mpa_montgomery.c:147
    7b18:	b94006e1 	ldr	w1, [x23,#4]
    7b1c:	52800002 	mov	w2, #0x0                   	// #0
/home/pedro/devel/optee/optee_os/lib/libmpa/mpa_montgomery.c:146
    7b20:	b9400a69 	ldr	w9, [x19,#8]
/home/pedro/devel/optee/optee_os/lib/libmpa/mpa_montgomery.c:147
    7b24:	7100003f 	cmp	w1, #0x0
    7b28:	5a81a421 	cneg	w1, w1, lt
    7b2c:	6b01031f 	cmp	w24, w1
    7b30:	5400004a 	b.ge	7b38 <__mpa_montgomery_mul+0x94>
/home/pedro/devel/optee/optee_os/lib/libmpa/mpa_montgomery.c:147 (discriminator 1)
    7b34:	b9400322 	ldr	w2, [x25]
/home/pedro/devel/optee/optee_os/lib/libmpa/mpa_montgomery.c:148
    7b38:	b94006c1 	ldr	w1, [x22,#4]
    7b3c:	52800000 	mov	w0, #0x0                   	// #0
    7b40:	34000041 	cbz	w1, 7b48 <__mpa_montgomery_mul+0xa4>
/home/pedro/devel/optee/optee_os/lib/libmpa/mpa_montgomery.c:148 (discriminator 1)
    7b44:	b9400ac0 	ldr	w0, [x22,#8]
/home/pedro/devel/optee/optee_os/lib/libmpa/mpa_montgomery.c:146
    7b48:	1b002440 	madd	w0, w2, w0, w9
/home/pedro/devel/optee/optee_os/lib/libmpa/mpa_montgomery.c:150
    7b4c:	aa1603e1 	mov	x1, x22
/home/pedro/devel/optee/optee_os/lib/libmpa/mpa_montgomery.c:146
    7b50:	1b157c1a 	mul	w26, w0, w21
/home/pedro/devel/optee/optee_os/lib/libmpa/mpa_montgomery.c:150
    7b54:	aa1303e0 	mov	x0, x19
    7b58:	97ffff91 	bl	799c <__mpa_montgomery_mul_add>
/home/pedro/devel/optee/optee_os/lib/libmpa/mpa_montgomery.c:152
    7b5c:	2a1a03e2 	mov	w2, w26
    7b60:	aa1403e1 	mov	x1, x20
    7b64:	aa1303e0 	mov	x0, x19
    7b68:	97ffff8d 	bl	799c <__mpa_montgomery_mul_add>
/home/pedro/devel/optee/optee_os/lib/libmpa/mpa_montgomery.c:155
    7b6c:	b9400660 	ldr	w0, [x19,#4]
    7b70:	91002261 	add	x1, x19, #0x8
/home/pedro/devel/optee/optee_os/lib/libmpa/mpa_montgomery.c:156
    7b74:	52800002 	mov	w2, #0x0                   	// #0
/home/pedro/devel/optee/optee_os/lib/libmpa/mpa_montgomery.c:155
    7b78:	51000400 	sub	w0, w0, #0x1
    7b7c:	b9000660 	str	w0, [x19,#4]
    7b80:	91001021 	add	x1, x1, #0x4
/home/pedro/devel/optee/optee_os/lib/libmpa/mpa_montgomery.c:156 (discriminator 1)
    7b84:	6b00005f 	cmp	w2, w0
    7b88:	540000cb 	b.lt	7ba0 <__mpa_montgomery_mul+0xfc>
/home/pedro/devel/optee/optee_os/lib/libmpa/mpa_montgomery.c:158 (discriminator 2)
    7b8c:	8b20ca60 	add	x0, x19, w0, sxtw #2
/home/pedro/devel/optee/optee_os/lib/libmpa/mpa_montgomery.c:145 (discriminator 2)
    7b90:	11000718 	add	w24, w24, #0x1
    7b94:	91001339 	add	x25, x25, #0x4
/home/pedro/devel/optee/optee_os/lib/libmpa/mpa_montgomery.c:158 (discriminator 2)
    7b98:	b900081f 	str	wzr, [x0,#8]
    7b9c:	17ffffd0 	b	7adc <__mpa_montgomery_mul+0x38>
/home/pedro/devel/optee/optee_os/lib/libmpa/mpa_montgomery.c:157 (discriminator 3)
    7ba0:	b9400023 	ldr	w3, [x1]
    7ba4:	11000442 	add	w2, w2, #0x1
    7ba8:	b81fc023 	stur	w3, [x1,#-4]
    7bac:	17fffff5 	b	7b80 <__mpa_montgomery_mul+0xdc>
/home/pedro/devel/optee/optee_os/lib/libmpa/mpa_montgomery.c:164
    7bb0:	a94153f3 	ldp	x19, x20, [sp,#16]
    7bb4:	a9425bf5 	ldp	x21, x22, [sp,#32]
    7bb8:	a94363f7 	ldp	x23, x24, [sp,#48]
    7bbc:	a9446bf9 	ldp	x25, x26, [sp,#64]
    7bc0:	a8c57bfd 	ldp	x29, x30, [sp],#80
    7bc4:	d65f03c0 	ret

0000000000007bc8 <mpa_compute_fmm_context>:
mpa_compute_fmm_context():
/home/pedro/devel/optee/optee_os/lib/libmpa/mpa_montgomery.c:180
    7bc8:	a9ba7bfd 	stp	x29, x30, [sp,#-96]!
    7bcc:	910003fd 	mov	x29, sp
    7bd0:	a90363f7 	stp	x23, x24, [sp,#48]
    7bd4:	aa0203f8 	mov	x24, x2
/home/pedro/devel/optee/optee_os/lib/libmpa/mpa_montgomery.c:194
    7bd8:	b9400402 	ldr	w2, [x0,#4]
/home/pedro/devel/optee/optee_os/lib/libmpa/mpa_montgomery.c:180
    7bdc:	aa0303f7 	mov	x23, x3
    7be0:	a90153f3 	stp	x19, x20, [sp,#16]
    7be4:	aa0103f4 	mov	x20, x1
/home/pedro/devel/optee/optee_os/lib/libmpa/mpa_montgomery.c:194
    7be8:	7100005f 	cmp	w2, #0x0
/home/pedro/devel/optee/optee_os/lib/libmpa/mpa_montgomery.c:180
    7bec:	aa0403f3 	mov	x19, x4
    7bf0:	a9025bf5 	stp	x21, x22, [sp,#32]
/home/pedro/devel/optee/optee_os/lib/libmpa/mpa_montgomery.c:195
    7bf4:	52800021 	mov	w1, #0x1                   	// #1
/home/pedro/devel/optee/optee_os/lib/libmpa/mpa_montgomery.c:194
    7bf8:	5a82a455 	cneg	w21, w2, lt
/home/pedro/devel/optee/optee_os/lib/libmpa/mpa_montgomery.c:180
    7bfc:	aa0003f6 	mov	x22, x0
/home/pedro/devel/optee/optee_os/lib/libmpa/mpa_montgomery.c:195
    7c00:	aa1403e0 	mov	x0, x20
    7c04:	94000175 	bl	81d8 <mpa_set_word>
/home/pedro/devel/optee/optee_os/lib/libmpa/mpa_montgomery.c:196
    7c08:	531b6aa2 	lsl	w2, w21, #5
    7c0c:	aa1403e1 	mov	x1, x20
    7c10:	aa1403e0 	mov	x0, x20
    7c14:	940007b8 	bl	9af4 <mpa_shift_left>
/home/pedro/devel/optee/optee_os/lib/libmpa/mpa_montgomery.c:197
    7c18:	aa1603e2 	mov	x2, x22
    7c1c:	aa1403e1 	mov	x1, x20
    7c20:	aa1403e0 	mov	x0, x20
    7c24:	aa1303e3 	mov	x3, x19
    7c28:	94000d78 	bl	b208 <mpa_mod>
/home/pedro/devel/optee/optee_os/lib/libmpa/mpa_montgomery.c:203
    7c2c:	52800035 	mov	w21, #0x1                   	// #1
/home/pedro/devel/optee/optee_os/lib/libmpa/mpa_montgomery.c:200
    7c30:	aa1603e3 	mov	x3, x22
    7c34:	aa1403e2 	mov	x2, x20
    7c38:	aa1303e4 	mov	x4, x19
    7c3c:	aa1403e1 	mov	x1, x20
    7c40:	aa1803e0 	mov	x0, x24
    7c44:	94000db9 	bl	b328 <mpa_mul_mod>
/home/pedro/devel/optee/optee_os/lib/libmpa/mpa_montgomery.c:205
    7c48:	b9400ac0 	ldr	w0, [x22,#8]
/home/pedro/devel/optee/optee_os/lib/libmpa/mpa_montgomery.c:207
    7c4c:	910103b6 	add	x22, x29, #0x40
    7c50:	aa1303e1 	mov	x1, x19
/home/pedro/devel/optee/optee_os/lib/libmpa/mpa_montgomery.c:204
    7c54:	290a57b5 	stp	w21, w21, [x29,#80]
/home/pedro/devel/optee/optee_os/lib/libmpa/mpa_montgomery.c:205
    7c58:	b9005ba0 	str	w0, [x29,#88]
/home/pedro/devel/optee/optee_os/lib/libmpa/mpa_montgomery.c:208
    7c5c:	910123b8 	add	x24, x29, #0x48
/home/pedro/devel/optee/optee_os/lib/libmpa/mpa_montgomery.c:207
    7c60:	aa1603e0 	mov	x0, x22
    7c64:	94000610 	bl	94a4 <mpa_alloc_static_temp_var>
/home/pedro/devel/optee/optee_os/lib/libmpa/mpa_montgomery.c:208
    7c68:	aa1303e1 	mov	x1, x19
    7c6c:	aa1803e0 	mov	x0, x24
    7c70:	9400060d 	bl	94a4 <mpa_alloc_static_temp_var>
/home/pedro/devel/optee/optee_os/lib/libmpa/mpa_montgomery.c:210
    7c74:	d0000034 	adrp	x20, d000 <__func__.3637+0xb58>
    7c78:	a94403a1 	ldp	x1, x0, [x29,#64]
    7c7c:	aa1303e5 	mov	x5, x19
    7c80:	f9415e94 	ldr	x20, [x20,#696]
    7c84:	910143a3 	add	x3, x29, #0x50
    7c88:	d2800002 	mov	x2, #0x0                   	// #0
    7c8c:	aa1403e4 	mov	x4, x20
    7c90:	94000544 	bl	91a0 <mpa_extended_gcd>
/home/pedro/devel/optee/optee_os/lib/libmpa/mpa_montgomery.c:212
    7c94:	f94027a0 	ldr	x0, [x29,#72]
    7c98:	2a1503e1 	mov	w1, w21
    7c9c:	94000adb 	bl	a808 <mpa_cmp_short>
    7ca0:	2a0003f5 	mov	w21, w0
/home/pedro/devel/optee/optee_os/lib/libmpa/mpa_montgomery.c:214
    7ca4:	35000160 	cbnz	w0, 7cd0 <mpa_compute_fmm_context+0x108>
/home/pedro/devel/optee/optee_os/lib/libmpa/mpa_montgomery.c:230
    7ca8:	f94023a1 	ldr	x1, [x29,#64]
    7cac:	b9400420 	ldr	w0, [x1,#4]
    7cb0:	37f800a0 	tbnz	w0, #31, 7cc4 <mpa_compute_fmm_context+0xfc>
/home/pedro/devel/optee/optee_os/lib/libmpa/mpa_montgomery.c:231
    7cb4:	aa1303e3 	mov	x3, x19
    7cb8:	aa1403e2 	mov	x2, x20
    7cbc:	aa0103e0 	mov	x0, x1
    7cc0:	94000970 	bl	a280 <mpa_sub>
/home/pedro/devel/optee/optee_os/lib/libmpa/mpa_montgomery.c:235
    7cc4:	f94023a0 	ldr	x0, [x29,#64]
    7cc8:	b9400800 	ldr	w0, [x0,#8]
    7ccc:	b90002e0 	str	w0, [x23]
/home/pedro/devel/optee/optee_os/lib/libmpa/mpa_montgomery.c:239
    7cd0:	aa1303e1 	mov	x1, x19
    7cd4:	aa1803e0 	mov	x0, x24
    7cd8:	940005f7 	bl	94b4 <mpa_free_static_temp_var>
/home/pedro/devel/optee/optee_os/lib/libmpa/mpa_montgomery.c:240
    7cdc:	aa1303e1 	mov	x1, x19
    7ce0:	aa1603e0 	mov	x0, x22
    7ce4:	940005f4 	bl	94b4 <mpa_free_static_temp_var>
/home/pedro/devel/optee/optee_os/lib/libmpa/mpa_montgomery.c:242
    7ce8:	710002bf 	cmp	w21, #0x0
/home/pedro/devel/optee/optee_os/lib/libmpa/mpa_montgomery.c:245
    7cec:	a94153f3 	ldp	x19, x20, [sp,#16]
    7cf0:	5a9f03e0 	csetm	w0, ne
    7cf4:	a9425bf5 	ldp	x21, x22, [sp,#32]
    7cf8:	a94363f7 	ldp	x23, x24, [sp,#48]
    7cfc:	a8c67bfd 	ldp	x29, x30, [sp],#96
    7d00:	d65f03c0 	ret

0000000000007d04 <mpa_montgomery_mul>:
mpa_montgomery_mul():
/home/pedro/devel/optee/optee_os/lib/libmpa/mpa_montgomery.c:258
    7d04:	a9ba7bfd 	stp	x29, x30, [sp,#-96]!
    7d08:	910003fd 	mov	x29, sp
    7d0c:	a90153f3 	stp	x19, x20, [sp,#16]
/home/pedro/devel/optee/optee_os/lib/libmpa/mpa_montgomery.c:261
    7d10:	910163b3 	add	x19, x29, #0x58
/home/pedro/devel/optee/optee_os/lib/libmpa/mpa_montgomery.c:258
    7d14:	aa0503f4 	mov	x20, x5
    7d18:	a9025bf5 	stp	x21, x22, [sp,#32]
    7d1c:	a90363f7 	stp	x23, x24, [sp,#48]
    7d20:	aa0003f5 	mov	x21, x0
    7d24:	f90023f9 	str	x25, [sp,#64]
    7d28:	aa0103f6 	mov	x22, x1
    7d2c:	aa0203f7 	mov	x23, x2
/home/pedro/devel/optee/optee_os/lib/libmpa/mpa_montgomery.c:261
    7d30:	aa0503e1 	mov	x1, x5
/home/pedro/devel/optee/optee_os/lib/libmpa/mpa_montgomery.c:258
    7d34:	aa0303f8 	mov	x24, x3
    7d38:	2a0403f9 	mov	w25, w4
/home/pedro/devel/optee/optee_os/lib/libmpa/mpa_montgomery.c:261
    7d3c:	aa1303e0 	mov	x0, x19
    7d40:	940005d9 	bl	94a4 <mpa_alloc_static_temp_var>
/home/pedro/devel/optee/optee_os/lib/libmpa/mpa_montgomery.c:263
    7d44:	f9402fa0 	ldr	x0, [x29,#88]
    7d48:	2a1903e4 	mov	w4, w25
    7d4c:	aa1803e3 	mov	x3, x24
    7d50:	aa1703e2 	mov	x2, x23
    7d54:	aa1603e1 	mov	x1, x22
    7d58:	97ffff53 	bl	7aa4 <__mpa_montgomery_mul>
/home/pedro/devel/optee/optee_os/lib/libmpa/mpa_montgomery.c:265
    7d5c:	f9402fa1 	ldr	x1, [x29,#88]
    7d60:	aa1503e0 	mov	x0, x21
    7d64:	97fffebe 	bl	785c <mpa_copy>
/home/pedro/devel/optee/optee_os/lib/libmpa/mpa_montgomery.c:266
    7d68:	aa1403e1 	mov	x1, x20
    7d6c:	aa1303e0 	mov	x0, x19
    7d70:	940005d1 	bl	94b4 <mpa_free_static_temp_var>
/home/pedro/devel/optee/optee_os/lib/libmpa/mpa_montgomery.c:267
    7d74:	f94023f9 	ldr	x25, [sp,#64]
    7d78:	a94153f3 	ldp	x19, x20, [sp,#16]
    7d7c:	a9425bf5 	ldp	x21, x22, [sp,#32]
    7d80:	a94363f7 	ldp	x23, x24, [sp,#48]
    7d84:	a8c67bfd 	ldp	x29, x30, [sp],#96
    7d88:	d65f03c0 	ret

0000000000007d8c <mpa_is_prob_prime>:
mpa_is_prob_prime():
/home/pedro/devel/optee/optee_os/lib/libmpa/mpa_primetest.c:90
    7d8c:	a9b37bfd 	stp	x29, x30, [sp,#-208]!
    7d90:	910003fd 	mov	x29, sp
    7d94:	a9025bf5 	stp	x21, x22, [sp,#32]
    7d98:	2a0103f6 	mov	w22, w1
is_small_prime():
/home/pedro/devel/optee/optee_os/lib/libmpa/mpa_primetest.c:137
    7d9c:	b9400401 	ldr	w1, [x0,#4]
mpa_is_prob_prime():
/home/pedro/devel/optee/optee_os/lib/libmpa/mpa_primetest.c:90
    7da0:	a90153f3 	stp	x19, x20, [sp,#16]
    7da4:	aa0003f4 	mov	x20, x0
is_small_prime():
/home/pedro/devel/optee/optee_os/lib/libmpa/mpa_primetest.c:137
    7da8:	7100003f 	cmp	w1, #0x0
mpa_is_prob_prime():
/home/pedro/devel/optee/optee_os/lib/libmpa/mpa_primetest.c:90
    7dac:	a90363f7 	stp	x23, x24, [sp,#48]
    7db0:	a9046bf9 	stp	x25, x26, [sp,#64]
is_small_prime():
/home/pedro/devel/optee/optee_os/lib/libmpa/mpa_primetest.c:137
    7db4:	5a81a421 	cneg	w1, w1, lt
mpa_is_prob_prime():
/home/pedro/devel/optee/optee_os/lib/libmpa/mpa_primetest.c:90
    7db8:	a90573fb 	stp	x27, x28, [sp,#80]
    7dbc:	aa0203f3 	mov	x19, x2
is_small_prime():
/home/pedro/devel/optee/optee_os/lib/libmpa/mpa_primetest.c:137
    7dc0:	7100043f 	cmp	w1, #0x1
    7dc4:	5400018d 	b.le	7df4 <mpa_is_prob_prime+0x68>
/home/pedro/devel/optee/optee_os/lib/libmpa/mpa_primetest.c:138
    7dc8:	97fffeef 	bl	7984 <mpa_parity>
    7dcc:	35000d80 	cbnz	w0, 7f7c <mpa_is_prob_prime+0x1f0>
    7dd0:	52800019 	mov	w25, #0x0                   	// #0
mpa_is_prob_prime():
/home/pedro/devel/optee/optee_os/lib/libmpa/mpa_primetest.c:108
    7dd4:	2a1903e0 	mov	w0, w25
    7dd8:	a94153f3 	ldp	x19, x20, [sp,#16]
    7ddc:	a9425bf5 	ldp	x21, x22, [sp,#32]
    7de0:	a94363f7 	ldp	x23, x24, [sp,#48]
    7de4:	a9446bf9 	ldp	x25, x26, [sp,#64]
    7de8:	a94573fb 	ldp	x27, x28, [sp,#80]
    7dec:	a8cd7bfd 	ldp	x29, x30, [sp],#208
    7df0:	d65f03c0 	ret
is_small_prime():
/home/pedro/devel/optee/optee_os/lib/libmpa/mpa_primetest.c:140
    7df4:	940000fe 	bl	81ec <mpa_get_word>
    7df8:	2a0003f5 	mov	w21, w0
/home/pedro/devel/optee/optee_os/lib/libmpa/mpa_primetest.c:141
    7dfc:	32000000 	orr	w0, w0, #0x1
    7e00:	7100041f 	cmp	w0, #0x1
    7e04:	54fffe60 	b.eq	7dd0 <mpa_is_prob_prime+0x44>
/home/pedro/devel/optee/optee_os/lib/libmpa/mpa_primetest.c:144
    7e08:	52800039 	mov	w25, #0x1                   	// #1
/home/pedro/devel/optee/optee_os/lib/libmpa/mpa_primetest.c:143
    7e0c:	71000abf 	cmp	w21, #0x2
    7e10:	54fffe20 	b.eq	7dd4 <mpa_is_prob_prime+0x48>
/home/pedro/devel/optee/optee_os/lib/libmpa/mpa_primetest.c:145
    7e14:	3607fdf5 	tbz	w21, #0, 7dd0 <mpa_is_prob_prime+0x44>
/home/pedro/devel/optee/optee_os/lib/libmpa/mpa_primetest.c:149
    7e18:	529869e1 	mov	w1, #0xc34f                	// #49999
    7e1c:	aa1403e0 	mov	x0, x20
    7e20:	94000a7a 	bl	a808 <mpa_cmp_short>
    7e24:	7100001f 	cmp	w0, #0x0
    7e28:	54000aac 	b.gt	7f7c <mpa_is_prob_prime+0x1f0>
/home/pedro/devel/optee/optee_os/lib/libmpa/mpa_primetest.c:151
    7e2c:	51000eb5 	sub	w21, w21, #0x3
check_table():
/home/pedro/devel/optee/optee_os/lib/libmpa/mpa_primetest.c:118
    7e30:	90000020 	adrp	x0, b000 <mpa_set_oct_str+0x7c>
    7e34:	911d8000 	add	x0, x0, #0x760
    7e38:	d3467ea1 	ubfx	x1, x21, #6, #26
    7e3c:	d34116b5 	ubfx	x21, x21, #1, #5
    7e40:	b8617802 	ldr	w2, [x0,x1,lsl #2]
    7e44:	1ad52440 	lsr	w0, w2, w21
    7e48:	0a190019 	and	w25, w0, w25
    7e4c:	17ffffe2 	b	7dd4 <mpa_is_prob_prime+0x48>
primality_test_miller_rabin():
/home/pedro/devel/optee/optee_os/lib/libmpa/mpa_primetest.c:229
    7e50:	f94057a1 	ldr	x1, [x29,#168]
    7e54:	52800022 	mov	w2, #0x1                   	// #1
/home/pedro/devel/optee/optee_os/lib/libmpa/mpa_primetest.c:230
    7e58:	11000718 	add	w24, w24, #0x1
/home/pedro/devel/optee/optee_os/lib/libmpa/mpa_primetest.c:229
    7e5c:	aa0103e0 	mov	x0, x1
    7e60:	94000789 	bl	9c84 <mpa_shift_right>
    7e64:	1400008e 	b	809c <mpa_is_prob_prime+0x310>
/home/pedro/devel/optee/optee_os/lib/libmpa/mpa_primetest.c:235
    7e68:	36f803b7 	tbz	w23, #31, 7edc <mpa_is_prob_prime+0x150>
/home/pedro/devel/optee/optee_os/lib/libmpa/mpa_primetest.c:236
    7e6c:	f9403ba0 	ldr	x0, [x29,#112]
/home/pedro/devel/optee/optee_os/lib/libmpa/mpa_primetest.c:238
    7e70:	52800039 	mov	w25, #0x1                   	// #1
/home/pedro/devel/optee/optee_os/lib/libmpa/mpa_primetest.c:236
    7e74:	91312000 	add	x0, x0, #0xc48
    7e78:	b8767801 	ldr	w1, [x0,x22,lsl #2]
    7e7c:	f94053a0 	ldr	x0, [x29,#160]
    7e80:	940000ae 	bl	8138 <mpa_set_S32>
/home/pedro/devel/optee/optee_os/lib/libmpa/mpa_primetest.c:237
    7e84:	f94053a1 	ldr	x1, [x29,#160]
    7e88:	aa1403e0 	mov	x0, x20
    7e8c:	94000a45 	bl	a7a0 <mpa_cmp>
    7e90:	34000220 	cbz	w0, 7ed4 <mpa_is_prob_prime+0x148>
/home/pedro/devel/optee/optee_os/lib/libmpa/mpa_primetest.c:255
    7e94:	b9409fa6 	ldr	w6, [x29,#156]
    7e98:	aa1303e7 	mov	x7, x19
    7e9c:	a94a0ba1 	ldp	x1, x2, [x29,#160]
    7ea0:	aa1403e3 	mov	x3, x20
    7ea4:	a94b93a0 	ldp	x0, x4, [x29,#184]
/home/pedro/devel/optee/optee_os/lib/libmpa/mpa_primetest.c:256
    7ea8:	52800019 	mov	w25, #0x0                   	// #0
/home/pedro/devel/optee/optee_os/lib/libmpa/mpa_primetest.c:255
    7eac:	f94067a5 	ldr	x5, [x29,#200]
    7eb0:	94000a77 	bl	a88c <mpa_exp_mod>
/home/pedro/devel/optee/optee_os/lib/libmpa/mpa_primetest.c:259
    7eb4:	f9405fa0 	ldr	x0, [x29,#184]
    7eb8:	52800021 	mov	w1, #0x1                   	// #1
    7ebc:	94000a53 	bl	a808 <mpa_cmp_short>
/home/pedro/devel/optee/optee_os/lib/libmpa/mpa_primetest.c:260
    7ec0:	7100001f 	cmp	w0, #0x0
/home/pedro/devel/optee/optee_os/lib/libmpa/mpa_primetest.c:259
    7ec4:	2a0003e2 	mov	w2, w0
/home/pedro/devel/optee/optee_os/lib/libmpa/mpa_primetest.c:260
    7ec8:	7a400b24 	ccmp	w25, #0x0, #0x4, eq
    7ecc:	540002ed 	b.le	7f28 <mpa_is_prob_prime+0x19c>
/home/pedro/devel/optee/optee_os/lib/libmpa/mpa_primetest.c:261
    7ed0:	52800019 	mov	w25, #0x0                   	// #0
    7ed4:	910006d6 	add	x22, x22, #0x1
    7ed8:	1400007b 	b	80c4 <mpa_is_prob_prime+0x338>
/home/pedro/devel/optee/optee_os/lib/libmpa/mpa_primetest.c:247
    7edc:	f9405ba1 	ldr	x1, [x29,#176]
    7ee0:	aa1303e3 	mov	x3, x19
    7ee4:	52800022 	mov	w2, #0x1                   	// #1
    7ee8:	aa0103e0 	mov	x0, x1
    7eec:	940009a6 	bl	a584 <mpa_sub_word>
/home/pedro/devel/optee/optee_os/lib/libmpa/mpa_primetest.c:249
    7ef0:	f94053a0 	ldr	x0, [x29,#160]
    7ef4:	f9405ba1 	ldr	x1, [x29,#176]
    7ef8:	94000660 	bl	9878 <mpa_get_random>
/home/pedro/devel/optee/optee_os/lib/libmpa/mpa_primetest.c:250
    7efc:	f9405ba1 	ldr	x1, [x29,#176]
    7f00:	aa1303e3 	mov	x3, x19
    7f04:	52800022 	mov	w2, #0x1                   	// #1
    7f08:	aa0103e0 	mov	x0, x1
    7f0c:	9400094f 	bl	a448 <mpa_add_word>
/home/pedro/devel/optee/optee_os/lib/libmpa/mpa_primetest.c:252
    7f10:	f94053a1 	ldr	x1, [x29,#160]
    7f14:	aa1303e3 	mov	x3, x19
    7f18:	52800042 	mov	w2, #0x2                   	// #2
    7f1c:	aa0103e0 	mov	x0, x1
    7f20:	9400094a 	bl	a448 <mpa_add_word>
    7f24:	17ffffdc 	b	7e94 <mpa_is_prob_prime+0x108>
/home/pedro/devel/optee/optee_os/lib/libmpa/mpa_primetest.c:265
    7f28:	a94b03a1 	ldp	x1, x0, [x29,#176]
    7f2c:	b90067a2 	str	w2, [x29,#100]
    7f30:	94000a1c 	bl	a7a0 <mpa_cmp>
    7f34:	34000200 	cbz	w0, 7f74 <mpa_is_prob_prime+0x1e8>
/home/pedro/devel/optee/optee_os/lib/libmpa/mpa_primetest.c:266
    7f38:	b94067a2 	ldr	w2, [x29,#100]
    7f3c:	2a190042 	orr	w2, w2, w25
/home/pedro/devel/optee/optee_os/lib/libmpa/mpa_primetest.c:265
    7f40:	340001a2 	cbz	w2, 7f74 <mpa_is_prob_prime+0x1e8>
/home/pedro/devel/optee/optee_os/lib/libmpa/mpa_primetest.c:271
    7f44:	11000739 	add	w25, w25, #0x1
/home/pedro/devel/optee/optee_os/lib/libmpa/mpa_primetest.c:272
    7f48:	6b19031f 	cmp	w24, w25
    7f4c:	54fffc2d 	b.le	7ed0 <mpa_is_prob_prime+0x144>
/home/pedro/devel/optee/optee_os/lib/libmpa/mpa_primetest.c:273
    7f50:	a94b93a1 	ldp	x1, x4, [x29,#184]
    7f54:	aa1303e7 	mov	x7, x19
    7f58:	b9409fa6 	ldr	w6, [x29,#156]
    7f5c:	aa1403e3 	mov	x3, x20
    7f60:	f94037a2 	ldr	x2, [x29,#104]
    7f64:	aa0103e0 	mov	x0, x1
    7f68:	f94067a5 	ldr	x5, [x29,#200]
    7f6c:	94000a48 	bl	a88c <mpa_exp_mod>
    7f70:	17ffffd1 	b	7eb4 <mpa_is_prob_prime+0x128>
/home/pedro/devel/optee/optee_os/lib/libmpa/mpa_primetest.c:265
    7f74:	12800019 	mov	w25, #0xffffffff            	// #-1
    7f78:	17ffffd7 	b	7ed4 <mpa_is_prob_prime+0x148>
has_small_factors():
/home/pedro/devel/optee/optee_os/lib/libmpa/mpa_primetest.c:171
    7f7c:	910323b5 	add	x21, x29, #0xc8
    7f80:	aa1303e1 	mov	x1, x19
    7f84:	aa1503e0 	mov	x0, x21
    7f88:	94000547 	bl	94a4 <mpa_alloc_static_temp_var>
/home/pedro/devel/optee/optee_os/lib/libmpa/mpa_primetest.c:172
    7f8c:	f94067a0 	ldr	x0, [x29,#200]
    7f90:	90000038 	adrp	x24, b000 <mpa_set_oct_str+0x7c>
    7f94:	911d8317 	add	x23, x24, #0x760
    7f98:	aa1303e3 	mov	x3, x19
    7f9c:	9131e2e2 	add	x2, x23, #0xc78
    7fa0:	aa1403e1 	mov	x1, x20
    7fa4:	94000437 	bl	9080 <mpa_gcd>
/home/pedro/devel/optee/optee_os/lib/libmpa/mpa_primetest.c:173
    7fa8:	f94067a0 	ldr	x0, [x29,#200]
    7fac:	52800021 	mov	w1, #0x1                   	// #1
    7fb0:	94000a16 	bl	a808 <mpa_cmp_short>
    7fb4:	2a0003f9 	mov	w25, w0
/home/pedro/devel/optee/optee_os/lib/libmpa/mpa_primetest.c:174
    7fb8:	aa1303e1 	mov	x1, x19
    7fbc:	aa1503e0 	mov	x0, x21
    7fc0:	9400053d 	bl	94b4 <mpa_free_static_temp_var>
    7fc4:	f9003bb8 	str	x24, [x29,#112]
mpa_is_prob_prime():
/home/pedro/devel/optee/optee_os/lib/libmpa/mpa_primetest.c:99
    7fc8:	35fff059 	cbnz	w25, 7dd0 <mpa_is_prob_prime+0x44>
primality_test_miller_rabin():
/home/pedro/devel/optee/optee_os/lib/libmpa/mpa_primetest.c:203
    7fcc:	910303a0 	add	x0, x29, #0xc0
    7fd0:	aa1303e1 	mov	x1, x19
    7fd4:	f90043a0 	str	x0, [x29,#128]
    7fd8:	94000533 	bl	94a4 <mpa_alloc_static_temp_var>
/home/pedro/devel/optee/optee_os/lib/libmpa/mpa_primetest.c:204
    7fdc:	aa1303e1 	mov	x1, x19
    7fe0:	aa1503e0 	mov	x0, x21
    7fe4:	94000530 	bl	94a4 <mpa_alloc_static_temp_var>
/home/pedro/devel/optee/optee_os/lib/libmpa/mpa_primetest.c:207
    7fe8:	52800019 	mov	w25, #0x0                   	// #0
/home/pedro/devel/optee/optee_os/lib/libmpa/mpa_primetest.c:206
    7fec:	a94c0ba1 	ldp	x1, x2, [x29,#192]
    7ff0:	aa1303e4 	mov	x4, x19
    7ff4:	910273a3 	add	x3, x29, #0x9c
    7ff8:	aa1403e0 	mov	x0, x20
    7ffc:	97fffef3 	bl	7bc8 <mpa_compute_fmm_context>
    8000:	3100041f 	cmn	w0, #0x1
    8004:	540008c0 	b.eq	811c <mpa_is_prob_prime+0x390>
/home/pedro/devel/optee/optee_os/lib/libmpa/mpa_primetest.c:211
    8008:	910283bc 	add	x28, x29, #0xa0
    800c:	aa1303e1 	mov	x1, x19
    8010:	aa1c03e0 	mov	x0, x28
/home/pedro/devel/optee/optee_os/lib/libmpa/mpa_primetest.c:212
    8014:	9102a3bb 	add	x27, x29, #0xa8
/home/pedro/devel/optee/optee_os/lib/libmpa/mpa_primetest.c:211
    8018:	94000523 	bl	94a4 <mpa_alloc_static_temp_var>
/home/pedro/devel/optee/optee_os/lib/libmpa/mpa_primetest.c:213
    801c:	9102c3ba 	add	x26, x29, #0xb0
/home/pedro/devel/optee/optee_os/lib/libmpa/mpa_primetest.c:212
    8020:	aa1303e1 	mov	x1, x19
    8024:	aa1b03e0 	mov	x0, x27
    8028:	9400051f 	bl	94a4 <mpa_alloc_static_temp_var>
/home/pedro/devel/optee/optee_os/lib/libmpa/mpa_primetest.c:213
    802c:	aa1303e1 	mov	x1, x19
    8030:	aa1a03e0 	mov	x0, x26
    8034:	9400051c 	bl	94a4 <mpa_alloc_static_temp_var>
/home/pedro/devel/optee/optee_os/lib/libmpa/mpa_primetest.c:214
    8038:	9102e3a0 	add	x0, x29, #0xb8
    803c:	aa1303e1 	mov	x1, x19
    8040:	f9003fa0 	str	x0, [x29,#120]
    8044:	94000518 	bl	94a4 <mpa_alloc_static_temp_var>
/home/pedro/devel/optee/optee_os/lib/libmpa/mpa_primetest.c:217
    8048:	9130e2e1 	add	x1, x23, #0xc38
    804c:	aa1403e0 	mov	x0, x20
    8050:	940009d4 	bl	a7a0 <mpa_cmp>
    8054:	2a0003f7 	mov	w23, w0
/home/pedro/devel/optee/optee_os/lib/libmpa/mpa_primetest.c:216
    8058:	531f7c00 	lsr	w0, w0, #31
    805c:	b9008ba0 	str	w0, [x29,#136]
/home/pedro/devel/optee/optee_os/lib/libmpa/mpa_primetest.c:220
    8060:	528000e0 	mov	w0, #0x7                   	// #7
    8064:	b9008fa0 	str	w0, [x29,#140]
/home/pedro/devel/optee/optee_os/lib/libmpa/mpa_primetest.c:219
    8068:	37f800b7 	tbnz	w23, #31, 807c <mpa_is_prob_prime+0x2f0>
/home/pedro/devel/optee/optee_os/lib/libmpa/mpa_primetest.c:222
    806c:	110006d6 	add	w22, w22, #0x1
    8070:	52800040 	mov	w0, #0x2                   	// #2
    8074:	1ac00ec0 	sdiv	w0, w22, w0
    8078:	b9008fa0 	str	w0, [x29,#140]
/home/pedro/devel/optee/optee_os/lib/libmpa/mpa_primetest.c:224
    807c:	f9405ba0 	ldr	x0, [x29,#176]
    8080:	aa1403e1 	mov	x1, x20
    8084:	aa1303e3 	mov	x3, x19
    8088:	52800022 	mov	w2, #0x1                   	// #1
/home/pedro/devel/optee/optee_os/lib/libmpa/mpa_primetest.c:226
    808c:	52800018 	mov	w24, #0x0                   	// #0
/home/pedro/devel/optee/optee_os/lib/libmpa/mpa_primetest.c:224
    8090:	9400093d 	bl	a584 <mpa_sub_word>
/home/pedro/devel/optee/optee_os/lib/libmpa/mpa_primetest.c:225
    8094:	a94a87a0 	ldp	x0, x1, [x29,#168]
    8098:	97fffdf1 	bl	785c <mpa_copy>
/home/pedro/devel/optee/optee_os/lib/libmpa/mpa_primetest.c:228
    809c:	f94057a0 	ldr	x0, [x29,#168]
    80a0:	97fffe39 	bl	7984 <mpa_parity>
    80a4:	34ffed60 	cbz	w0, 7e50 <mpa_is_prob_prime+0xc4>
/home/pedro/devel/optee/optee_os/lib/libmpa/mpa_primetest.c:273
    80a8:	f9403ba0 	ldr	x0, [x29,#112]
/home/pedro/devel/optee/optee_os/lib/libmpa/mpa_primetest.c:228
    80ac:	d2800016 	mov	x22, #0x0                   	// #0
    80b0:	12800019 	mov	w25, #0xffffffff            	// #-1
/home/pedro/devel/optee/optee_os/lib/libmpa/mpa_primetest.c:273
    80b4:	911d8000 	add	x0, x0, #0x760
    80b8:	f9003ba0 	str	x0, [x29,#112]
    80bc:	9131a000 	add	x0, x0, #0xc68
    80c0:	f90037a0 	str	x0, [x29,#104]
/home/pedro/devel/optee/optee_os/lib/libmpa/mpa_primetest.c:234
    80c4:	b9408fa1 	ldr	w1, [x29,#140]
    80c8:	3100073f 	cmn	w25, #0x1
    80cc:	1a9f17e0 	cset	w0, eq
    80d0:	6b16003f 	cmp	w1, w22
    80d4:	1a9fd7e1 	cset	w1, gt
    80d8:	6a01001f 	tst	w0, w1
    80dc:	54ffec61 	b.ne	7e68 <mpa_is_prob_prime+0xdc>
/home/pedro/devel/optee/optee_os/lib/libmpa/mpa_primetest.c:281
    80e0:	b9408ba1 	ldr	w1, [x29,#136]
    80e4:	6a00003f 	tst	w1, w0
/home/pedro/devel/optee/optee_os/lib/libmpa/mpa_primetest.c:283
    80e8:	aa1303e1 	mov	x1, x19
/home/pedro/devel/optee/optee_os/lib/libmpa/mpa_primetest.c:281
    80ec:	1a9f0739 	csinc	w25, w25, wzr, eq
/home/pedro/devel/optee/optee_os/lib/libmpa/mpa_primetest.c:283
    80f0:	aa1c03e0 	mov	x0, x28
    80f4:	940004f0 	bl	94b4 <mpa_free_static_temp_var>
/home/pedro/devel/optee/optee_os/lib/libmpa/mpa_primetest.c:284
    80f8:	aa1303e1 	mov	x1, x19
    80fc:	aa1b03e0 	mov	x0, x27
    8100:	940004ed 	bl	94b4 <mpa_free_static_temp_var>
/home/pedro/devel/optee/optee_os/lib/libmpa/mpa_primetest.c:285
    8104:	aa1303e1 	mov	x1, x19
    8108:	aa1a03e0 	mov	x0, x26
    810c:	940004ea 	bl	94b4 <mpa_free_static_temp_var>
/home/pedro/devel/optee/optee_os/lib/libmpa/mpa_primetest.c:286
    8110:	f9403fa0 	ldr	x0, [x29,#120]
    8114:	aa1303e1 	mov	x1, x19
    8118:	940004e7 	bl	94b4 <mpa_free_static_temp_var>
/home/pedro/devel/optee/optee_os/lib/libmpa/mpa_primetest.c:288
    811c:	f94043a0 	ldr	x0, [x29,#128]
    8120:	aa1303e1 	mov	x1, x19
    8124:	940004e4 	bl	94b4 <mpa_free_static_temp_var>
/home/pedro/devel/optee/optee_os/lib/libmpa/mpa_primetest.c:289
    8128:	aa1303e1 	mov	x1, x19
    812c:	aa1503e0 	mov	x0, x21
    8130:	940004e1 	bl	94b4 <mpa_free_static_temp_var>
    8134:	17ffff28 	b	7dd4 <mpa_is_prob_prime+0x48>

0000000000008138 <mpa_set_S32>:
mpa_set_S32():
/home/pedro/devel/optee/optee_os/lib/libmpa/mpa_conv.c:38
    8138:	7100003f 	cmp	w1, #0x0
    813c:	54000100 	b.eq	815c <mpa_set_S32+0x24>
/home/pedro/devel/optee/optee_os/lib/libmpa/mpa_conv.c:39
    8140:	52800022 	mov	w2, #0x1                   	// #1
    8144:	5a82a442 	cneg	w2, w2, lt
    8148:	b9000402 	str	w2, [x0,#4]
/home/pedro/devel/optee/optee_os/lib/libmpa/mpa_conv.c:42
    814c:	7100003f 	cmp	w1, #0x0
    8150:	5a81a421 	cneg	w1, w1, lt
    8154:	b9000801 	str	w1, [x0,#8]
    8158:	d65f03c0 	ret
/home/pedro/devel/optee/optee_os/lib/libmpa/mpa_conv.c:41
    815c:	b900041f 	str	wzr, [x0,#4]
    8160:	17fffffb 	b	814c <mpa_set_S32+0x14>

0000000000008164 <mpa_get_S32>:
mpa_get_S32():
/home/pedro/devel/optee/optee_os/lib/libmpa/mpa_conv.c:58
    8164:	b9400422 	ldr	w2, [x1,#4]
/home/pedro/devel/optee/optee_os/lib/libmpa/mpa_conv.c:56
    8168:	aa0003e4 	mov	x4, x0
/home/pedro/devel/optee/optee_os/lib/libmpa/mpa_conv.c:58
    816c:	7100005f 	cmp	w2, #0x0
    8170:	5a82a440 	cneg	w0, w2, lt
    8174:	7100041f 	cmp	w0, #0x1
    8178:	540002cc 	b.gt	81d0 <mpa_get_S32+0x6c>
/home/pedro/devel/optee/optee_os/lib/libmpa/mpa_conv.c:60
    817c:	b9400823 	ldr	w3, [x1,#8]
    8180:	52b00000 	mov	w0, #0x80000000            	// #-2147483648
    8184:	7100005f 	cmp	w2, #0x0
    8188:	7a40b060 	ccmp	w3, w0, #0x0, lt
/home/pedro/devel/optee/optee_os/lib/libmpa/mpa_conv.c:59
    818c:	12800000 	mov	w0, #0xffffffff            	// #-1
/home/pedro/devel/optee/optee_os/lib/libmpa/mpa_conv.c:60
    8190:	54000088 	b.hi	81a0 <mpa_get_S32+0x3c>
/home/pedro/devel/optee/optee_os/lib/libmpa/mpa_conv.c:62
    8194:	36f80083 	tbz	w3, #31, 81a4 <mpa_get_S32+0x40>
/home/pedro/devel/optee/optee_os/lib/libmpa/mpa_conv.c:65 (discriminator 1)
    8198:	2a0003e1 	mov	w1, w0
/home/pedro/devel/optee/optee_os/lib/libmpa/mpa_conv.c:62 (discriminator 1)
    819c:	37f800c2 	tbnz	w2, #31, 81b4 <mpa_get_S32+0x50>
/home/pedro/devel/optee/optee_os/lib/libmpa/mpa_conv.c:71
    81a0:	d65f03c0 	ret
/home/pedro/devel/optee/optee_os/lib/libmpa/mpa_conv.c:65
    81a4:	34000102 	cbz	w2, 81c4 <mpa_get_S32+0x60>
/home/pedro/devel/optee/optee_os/lib/libmpa/mpa_conv.c:65 (discriminator 4)
    81a8:	12800001 	mov	w1, #0xffffffff            	// #-1
    81ac:	6b01005f 	cmp	w2, w1
    81b0:	5a81d421 	cneg	w1, w1, gt
/home/pedro/devel/optee/optee_os/lib/libmpa/mpa_conv.c:65 (discriminator 8)
    81b4:	1b037c21 	mul	w1, w1, w3
/home/pedro/devel/optee/optee_os/lib/libmpa/mpa_conv.c:66 (discriminator 8)
    81b8:	52800000 	mov	w0, #0x0                   	// #0
/home/pedro/devel/optee/optee_os/lib/libmpa/mpa_conv.c:65 (discriminator 8)
    81bc:	b9000081 	str	w1, [x4]
/home/pedro/devel/optee/optee_os/lib/libmpa/mpa_conv.c:66 (discriminator 8)
    81c0:	d65f03c0 	ret
/home/pedro/devel/optee/optee_os/lib/libmpa/mpa_conv.c:65
    81c4:	52800003 	mov	w3, #0x0                   	// #0
    81c8:	52800021 	mov	w1, #0x1                   	// #1
    81cc:	17fffffa 	b	81b4 <mpa_get_S32+0x50>
/home/pedro/devel/optee/optee_os/lib/libmpa/mpa_conv.c:59
    81d0:	12800000 	mov	w0, #0xffffffff            	// #-1
    81d4:	17fffff3 	b	81a0 <mpa_get_S32+0x3c>

00000000000081d8 <mpa_set_word>:
mpa_set_word():
/home/pedro/devel/optee/optee_os/lib/libmpa/mpa_conv.c:81
    81d8:	7100003f 	cmp	w1, #0x0
/home/pedro/devel/optee/optee_os/lib/libmpa/mpa_conv.c:80
    81dc:	b9000801 	str	w1, [x0,#8]
/home/pedro/devel/optee/optee_os/lib/libmpa/mpa_conv.c:81
    81e0:	1a9f07e1 	cset	w1, ne
    81e4:	b9000401 	str	w1, [x0,#4]
    81e8:	d65f03c0 	ret

00000000000081ec <mpa_get_word>:
mpa_get_word():
/home/pedro/devel/optee/optee_os/lib/libmpa/mpa_conv.c:92
    81ec:	b9400401 	ldr	w1, [x0,#4]
    81f0:	34000061 	cbz	w1, 81fc <mpa_get_word+0x10>
/home/pedro/devel/optee/optee_os/lib/libmpa/mpa_conv.c:92 (discriminator 1)
    81f4:	b9400800 	ldr	w0, [x0,#8]
    81f8:	d65f03c0 	ret
/home/pedro/devel/optee/optee_os/lib/libmpa/mpa_conv.c:92
    81fc:	52800000 	mov	w0, #0x0                   	// #0
/home/pedro/devel/optee/optee_os/lib/libmpa/mpa_conv.c:93
    8200:	d65f03c0 	ret

0000000000008204 <__mpa_div_dword>:
__mpa_div_dword():
/home/pedro/devel/optee/optee_os/lib/libmpa/mpa_div.c:82
    8204:	2a0003e0 	mov	w0, w0
__mpa_soft_div():
/home/pedro/devel/optee/optee_os/lib/libmpa/mpa_div.c:47
    8208:	2a0203e2 	mov	w2, w2
__mpa_div_dword():
/home/pedro/devel/optee/optee_os/lib/libmpa/mpa_div.c:82
    820c:	8b018001 	add	x1, x0, x1, lsl #32
__mpa_soft_div():
/home/pedro/devel/optee/optee_os/lib/libmpa/mpa_div.c:46
    8210:	d2800024 	mov	x4, #0x1                   	// #1
/home/pedro/devel/optee/optee_os/lib/libmpa/mpa_div.c:49
    8214:	b6f800c2 	tbz	x2, #63, 822c <__mpa_div_dword+0x28>
    8218:	d2800000 	mov	x0, #0x0                   	// #0
/home/pedro/devel/optee/optee_os/lib/libmpa/mpa_div.c:54
    821c:	b50000e4 	cbnz	x4, 8238 <__mpa_div_dword+0x34>
/home/pedro/devel/optee/optee_os/lib/libmpa/mpa_div.c:63
    8220:	b4000043 	cbz	x3, 8228 <__mpa_div_dword+0x24>
/home/pedro/devel/optee/optee_os/lib/libmpa/mpa_div.c:64
    8224:	b9000061 	str	w1, [x3]
__mpa_div_dword():
/home/pedro/devel/optee/optee_os/lib/libmpa/mpa_div.c:90
    8228:	d65f03c0 	ret
__mpa_soft_div():
/home/pedro/devel/optee/optee_os/lib/libmpa/mpa_div.c:50
    822c:	d37ff842 	lsl	x2, x2, #1
/home/pedro/devel/optee/optee_os/lib/libmpa/mpa_div.c:51
    8230:	d37ff884 	lsl	x4, x4, #1
    8234:	17fffff8 	b	8214 <__mpa_div_dword+0x10>
/home/pedro/devel/optee/optee_os/lib/libmpa/mpa_div.c:55
    8238:	eb02003f 	cmp	x1, x2
    823c:	54000063 	b.cc	8248 <__mpa_div_dword+0x44>
/home/pedro/devel/optee/optee_os/lib/libmpa/mpa_div.c:56
    8240:	cb020021 	sub	x1, x1, x2
/home/pedro/devel/optee/optee_os/lib/libmpa/mpa_div.c:57
    8244:	8b040000 	add	x0, x0, x4
/home/pedro/devel/optee/optee_os/lib/libmpa/mpa_div.c:59
    8248:	d341fc42 	lsr	x2, x2, #1
/home/pedro/devel/optee/optee_os/lib/libmpa/mpa_div.c:60
    824c:	d341fc84 	lsr	x4, x4, #1
    8250:	17fffff3 	b	821c <__mpa_div_dword+0x18>

0000000000008254 <__mpa_div_q_r_internal_word>:
__mpa_div_q_r_internal_word():
/home/pedro/devel/optee/optee_os/lib/libmpa/mpa_div.c:270
    8254:	a9ba7bfd 	stp	x29, x30, [sp,#-96]!
    8258:	910003fd 	mov	x29, sp
    825c:	a9025bf5 	stp	x21, x22, [sp,#32]
    8260:	aa0103f5 	mov	x21, x1
/home/pedro/devel/optee/optee_os/lib/libmpa/mpa_div.c:278
    8264:	b9400441 	ldr	w1, [x2,#4]
/home/pedro/devel/optee/optee_os/lib/libmpa/mpa_div.c:270
    8268:	aa0203f6 	mov	x22, x2
    826c:	a90153f3 	stp	x19, x20, [sp,#16]
    8270:	2a0303f4 	mov	w20, w3
/home/pedro/devel/optee/optee_os/lib/libmpa/mpa_div.c:278
    8274:	7100003f 	cmp	w1, #0x0
/home/pedro/devel/optee/optee_os/lib/libmpa/mpa_div.c:270
    8278:	a90363f7 	stp	x23, x24, [sp,#48]
    827c:	a9046bf9 	stp	x25, x26, [sp,#64]
/home/pedro/devel/optee/optee_os/lib/libmpa/mpa_div.c:278
    8280:	5a81a421 	cneg	w1, w1, lt
    8284:	7100043f 	cmp	w1, #0x1
    8288:	540001e1 	b.ne	82c4 <__mpa_div_q_r_internal_word+0x70>
/home/pedro/devel/optee/optee_os/lib/libmpa/mpa_div.c:279
    828c:	b9400841 	ldr	w1, [x2,#8]
    8290:	1ac30821 	udiv	w1, w1, w3
    8294:	97ffffd1 	bl	81d8 <mpa_set_word>
/home/pedro/devel/optee/optee_os/lib/libmpa/mpa_div.c:280
    8298:	b9400ac0 	ldr	w0, [x22,#8]
    829c:	1ad40801 	udiv	w1, w0, w20
    82a0:	1b148021 	msub	w1, w1, w20, w0
    82a4:	aa1503e0 	mov	x0, x21
    82a8:	97ffffcc 	bl	81d8 <mpa_set_word>
/home/pedro/devel/optee/optee_os/lib/libmpa/mpa_div.c:302
    82ac:	a94153f3 	ldp	x19, x20, [sp,#16]
    82b0:	a9425bf5 	ldp	x21, x22, [sp,#32]
    82b4:	a94363f7 	ldp	x23, x24, [sp,#48]
    82b8:	a9446bf9 	ldp	x25, x26, [sp,#64]
    82bc:	a8c67bfd 	ldp	x29, x30, [sp],#96
    82c0:	d65f03c0 	ret
/home/pedro/devel/optee/optee_os/lib/libmpa/mpa_div.c:283
    82c4:	aa0203e1 	mov	x1, x2
    82c8:	aa0003f3 	mov	x19, x0
    82cc:	aa1503e0 	mov	x0, x21
    82d0:	97fffd63 	bl	785c <mpa_copy>
/home/pedro/devel/optee/optee_os/lib/libmpa/mpa_div.c:284
    82d4:	52800001 	mov	w1, #0x0                   	// #0
    82d8:	aa1303e0 	mov	x0, x19
    82dc:	97ffffbf 	bl	81d8 <mpa_set_word>
/home/pedro/devel/optee/optee_os/lib/libmpa/mpa_div.c:290
    82e0:	910173ba 	add	x26, x29, #0x5c
/home/pedro/devel/optee/optee_os/lib/libmpa/mpa_div.c:286
    82e4:	b94006a1 	ldr	w1, [x21,#4]
    82e8:	7100003f 	cmp	w1, #0x0
    82ec:	5a81a421 	cneg	w1, w1, lt
    82f0:	51000422 	sub	w2, w1, #0x1
/home/pedro/devel/optee/optee_os/lib/libmpa/mpa_div.c:288
    82f4:	93407c42 	sxtw	x2, w2
    82f8:	8b020aa0 	add	x0, x21, x2, lsl #2
    82fc:	91000843 	add	x3, x2, #0x2
    8300:	d37ef477 	lsl	x23, x3, #2
    8304:	cb21c063 	sub	x3, x3, w1, sxtw
    8308:	51000821 	sub	w1, w1, #0x2
    830c:	d37ef478 	lsl	x24, x3, #2
    8310:	937e7c21 	sbfiz	x1, x1, #2, #32
    8314:	b9400800 	ldr	w0, [x0,#8]
    8318:	cb020821 	sub	x1, x1, x2, lsl #2
    831c:	8b0102b9 	add	x25, x21, x1
/home/pedro/devel/optee/optee_os/lib/libmpa/mpa_div.c:287
    8320:	52800001 	mov	w1, #0x0                   	// #0
/home/pedro/devel/optee/optee_os/lib/libmpa/mpa_div.c:289
    8324:	eb1802ff 	cmp	x23, x24
    8328:	54000281 	b.ne	8378 <__mpa_div_q_r_internal_word+0x124>
/home/pedro/devel/optee/optee_os/lib/libmpa/mpa_div.c:297
    832c:	b9400aa0 	ldr	w0, [x21,#8]
    8330:	7100001f 	cmp	w0, #0x0
    8334:	1a9f07e0 	cset	w0, ne
    8338:	b90006a0 	str	w0, [x21,#4]
/home/pedro/devel/optee/optee_os/lib/libmpa/mpa_div.c:298
    833c:	b94006c0 	ldr	w0, [x22,#4]
    8340:	7100001f 	cmp	w0, #0x0
    8344:	5a80a400 	cneg	w0, w0, lt
    8348:	51000400 	sub	w0, w0, #0x1
    834c:	93407c00 	sxtw	x0, w0
    8350:	2a0003e1 	mov	w1, w0
/home/pedro/devel/optee/optee_os/lib/libmpa/mpa_div.c:299
    8354:	3100041f 	cmn	w0, #0x1
    8358:	540000a0 	b.eq	836c <__mpa_div_q_r_internal_word+0x118>
    835c:	d1000400 	sub	x0, x0, #0x1
/home/pedro/devel/optee/optee_os/lib/libmpa/mpa_div.c:299 (discriminator 1)
    8360:	8b000a62 	add	x2, x19, x0, lsl #2
    8364:	b9400c42 	ldr	w2, [x2,#12]
    8368:	34ffff42 	cbz	w2, 8350 <__mpa_div_q_r_internal_word+0xfc>
/home/pedro/devel/optee/optee_os/lib/libmpa/mpa_div.c:301
    836c:	11000420 	add	w0, w1, #0x1
    8370:	b9000660 	str	w0, [x19,#4]
    8374:	17ffffce 	b	82ac <__mpa_div_q_r_internal_word+0x58>
/home/pedro/devel/optee/optee_os/lib/libmpa/mpa_div.c:290
    8378:	aa1a03e3 	mov	x3, x26
    837c:	2a1403e2 	mov	w2, w20
    8380:	97ffffa1 	bl	8204 <__mpa_div_dword>
/home/pedro/devel/optee/optee_os/lib/libmpa/mpa_div.c:291
    8384:	b8376a60 	str	w0, [x19,x23]
/home/pedro/devel/optee/optee_os/lib/libmpa/mpa_div.c:292
    8388:	b9405fa1 	ldr	w1, [x29,#92]
    838c:	b8376aa1 	str	w1, [x21,x23]
/home/pedro/devel/optee/optee_os/lib/libmpa/mpa_div.c:294
    8390:	b8776b20 	ldr	w0, [x25,x23]
    8394:	d10012f7 	sub	x23, x23, #0x4
    8398:	17ffffe3 	b	8324 <__mpa_div_q_r_internal_word+0xd0>

000000000000839c <__mpa_div_q_r>:
__mpa_div_q_r():
/home/pedro/devel/optee/optee_os/lib/libmpa/mpa_div.c:325
    839c:	a9b07bfd 	stp	x29, x30, [sp,#-256]!
    83a0:	910003fd 	mov	x29, sp
    83a4:	a90363f7 	stp	x23, x24, [sp,#48]
    83a8:	aa0103f8 	mov	x24, x1
/home/pedro/devel/optee/optee_os/lib/libmpa/mpa_div.c:329
    83ac:	b9400441 	ldr	w1, [x2,#4]
/home/pedro/devel/optee/optee_os/lib/libmpa/mpa_div.c:325
    83b0:	a90153f3 	stp	x19, x20, [sp,#16]
    83b4:	a9025bf5 	stp	x21, x22, [sp,#32]
    83b8:	a9046bf9 	stp	x25, x26, [sp,#64]
    83bc:	a90573fb 	stp	x27, x28, [sp,#80]
/home/pedro/devel/optee/optee_os/lib/libmpa/mpa_div.c:329
    83c0:	35000181 	cbnz	w1, 83f0 <__mpa_div_q_r+0x54>
/home/pedro/devel/optee/optee_os/lib/libmpa/mpa_div.c:345
    83c4:	97ffff85 	bl	81d8 <mpa_set_word>
/home/pedro/devel/optee/optee_os/lib/libmpa/mpa_div.c:346
    83c8:	52800001 	mov	w1, #0x0                   	// #0
    83cc:	aa1803e0 	mov	x0, x24
    83d0:	97ffff82 	bl	81d8 <mpa_set_word>
/home/pedro/devel/optee/optee_os/lib/libmpa/mpa_div.c:361
    83d4:	a94153f3 	ldp	x19, x20, [sp,#16]
    83d8:	a9425bf5 	ldp	x21, x22, [sp,#32]
    83dc:	a94363f7 	ldp	x23, x24, [sp,#48]
    83e0:	a9446bf9 	ldp	x25, x26, [sp,#64]
    83e4:	a94573fb 	ldp	x27, x28, [sp,#80]
    83e8:	a8d07bfd 	ldp	x29, x30, [sp],#256
    83ec:	d65f03c0 	ret
    83f0:	aa0003f3 	mov	x19, x0
/home/pedro/devel/optee/optee_os/lib/libmpa/mpa_div.c:334
    83f4:	b9400460 	ldr	w0, [x3,#4]
    83f8:	aa0303f4 	mov	x20, x3
    83fc:	34fffec0 	cbz	w0, 83d4 <__mpa_div_q_r+0x38>
    8400:	aa0203fa 	mov	x26, x2
    8404:	aa0403f7 	mov	x23, x4
/home/pedro/devel/optee/optee_os/lib/libmpa/mpa_div.c:341
    8408:	36f82ee1 	tbz	w1, #31, 89e4 <__mpa_div_q_r+0x648>
/home/pedro/devel/optee/optee_os/lib/libmpa/mpa_div.c:342
    840c:	7100001f 	cmp	w0, #0x0
    8410:	12800001 	mov	w1, #0xffffffff            	// #-1
    8414:	5a81a420 	cneg	w0, w1, lt
    8418:	14000176 	b	89f0 <__mpa_div_q_r+0x654>
/home/pedro/devel/optee/optee_os/lib/libmpa/mpa_div.c:349
    841c:	54002d6d 	b.le	89c8 <__mpa_div_q_r+0x62c>
/home/pedro/devel/optee/optee_os/lib/libmpa/mpa_div.c:350
    8420:	b9400680 	ldr	w0, [x20,#4]
    8424:	7100001f 	cmp	w0, #0x0
    8428:	5a80a400 	cneg	w0, w0, lt
    842c:	7100041f 	cmp	w0, #0x1
    8430:	54002c0d 	b.le	89b0 <__mpa_div_q_r+0x614>
__mpa_div_q_r_internal():
/home/pedro/devel/optee/optee_os/lib/libmpa/mpa_div.c:126
    8434:	9103a3a0 	add	x0, x29, #0xe8
    8438:	aa1703e1 	mov	x1, x23
    843c:	f9005fa0 	str	x0, [x29,#184]
    8440:	94000419 	bl	94a4 <mpa_alloc_static_temp_var>
/home/pedro/devel/optee/optee_os/lib/libmpa/mpa_div.c:127
    8444:	9103c3a0 	add	x0, x29, #0xf0
    8448:	aa1703e1 	mov	x1, x23
    844c:	f9005ba0 	str	x0, [x29,#176]
    8450:	94000415 	bl	94a4 <mpa_alloc_static_temp_var>
/home/pedro/devel/optee/optee_os/lib/libmpa/mpa_div.c:128
    8454:	f9407ba0 	ldr	x0, [x29,#240]
    8458:	aa1403e1 	mov	x1, x20
    845c:	97fffd00 	bl	785c <mpa_copy>
/home/pedro/devel/optee/optee_os/lib/libmpa/mpa_div.c:135
    8460:	9103e3a0 	add	x0, x29, #0xf8
    8464:	aa1703e1 	mov	x1, x23
    8468:	f90057a0 	str	x0, [x29,#168]
    846c:	9400040e 	bl	94a4 <mpa_alloc_static_temp_var>
/home/pedro/devel/optee/optee_os/lib/libmpa/mpa_div.c:136
    8470:	f9407fa0 	ldr	x0, [x29,#248]
    8474:	aa1a03e1 	mov	x1, x26
    8478:	97fffcf9 	bl	785c <mpa_copy>
/home/pedro/devel/optee/optee_os/lib/libmpa/mpa_div.c:137
    847c:	f9407fa1 	ldr	x1, [x29,#248]
    8480:	b9400420 	ldr	w0, [x1,#4]
    8484:	36f80060 	tbz	w0, #31, 8490 <__mpa_div_q_r+0xf4>
    8488:	4b0003e0 	neg	w0, w0
    848c:	b9000420 	str	w0, [x1,#4]
/home/pedro/devel/optee/optee_os/lib/libmpa/mpa_div.c:138
    8490:	f9407ba2 	ldr	x2, [x29,#240]
    8494:	b9400440 	ldr	w0, [x2,#4]
    8498:	36f80060 	tbz	w0, #31, 84a4 <__mpa_div_q_r+0x108>
    849c:	4b0003e0 	neg	w0, w0
    84a0:	b9000440 	str	w0, [x2,#4]
/home/pedro/devel/optee/optee_os/lib/libmpa/mpa_div.c:144
    84a4:	b9400440 	ldr	w0, [x2,#4]
/home/pedro/devel/optee/optee_os/lib/libmpa/mpa_div.c:143
    84a8:	52800019 	mov	w25, #0x0                   	// #0
/home/pedro/devel/optee/optee_os/lib/libmpa/mpa_div.c:144
    84ac:	7100001f 	cmp	w0, #0x0
    84b0:	5a80a400 	cneg	w0, w0, lt
    84b4:	51000400 	sub	w0, w0, #0x1
    84b8:	8b20c840 	add	x0, x2, w0, sxtw #2
    84bc:	52800002 	mov	w2, #0x0                   	// #0
    84c0:	b9400800 	ldr	w0, [x0,#8]
    84c4:	b900d7a0 	str	w0, [x29,#212]
/home/pedro/devel/optee/optee_os/lib/libmpa/mpa_div.c:145
    84c8:	36f80fc0 	tbz	w0, #31, 86c0 <__mpa_div_q_r+0x324>
    84cc:	34000042 	cbz	w2, 84d4 <__mpa_div_q_r+0x138>
    84d0:	b900d7a0 	str	w0, [x29,#212]
/home/pedro/devel/optee/optee_os/lib/libmpa/mpa_div.c:149
    84d4:	34000119 	cbz	w25, 84f4 <__mpa_div_q_r+0x158>
/home/pedro/devel/optee/optee_os/lib/libmpa/mpa_div.c:150
    84d8:	aa0103e0 	mov	x0, x1
    84dc:	2a1903e2 	mov	w2, w25
    84e0:	94000585 	bl	9af4 <mpa_shift_left>
/home/pedro/devel/optee/optee_os/lib/libmpa/mpa_div.c:151
    84e4:	f9407ba1 	ldr	x1, [x29,#240]
    84e8:	2a1903e2 	mov	w2, w25
    84ec:	aa0103e0 	mov	x0, x1
    84f0:	94000581 	bl	9af4 <mpa_shift_left>
/home/pedro/devel/optee/optee_os/lib/libmpa/mpa_div.c:154
    84f4:	f9407fa0 	ldr	x0, [x29,#248]
    84f8:	b9400416 	ldr	w22, [x0,#4]
/home/pedro/devel/optee/optee_os/lib/libmpa/mpa_div.c:155
    84fc:	f9407ba0 	ldr	x0, [x29,#240]
    8500:	b9400400 	ldr	w0, [x0,#4]
    8504:	b900cfa0 	str	w0, [x29,#204]
/home/pedro/devel/optee/optee_os/lib/libmpa/mpa_div.c:156
    8508:	2a0003e0 	mov	w0, w0
    850c:	4b0002c0 	sub	w0, w22, w0
    8510:	b900cba0 	str	w0, [x29,#200]
/home/pedro/devel/optee/optee_os/lib/libmpa/mpa_div.c:158
    8514:	aa1303e0 	mov	x0, x19
    8518:	97fffcc5 	bl	782c <mpa_wipe>
/home/pedro/devel/optee/optee_os/lib/libmpa/mpa_div.c:164
    851c:	b940cba1 	ldr	w1, [x29,#200]
    8520:	f9407ba0 	ldr	x0, [x29,#240]
    8524:	94000535 	bl	99f8 <__mpa_shift_words_left>
/home/pedro/devel/optee/optee_os/lib/libmpa/mpa_div.c:170
    8528:	a94f07a2 	ldp	x2, x1, [x29,#240]
/home/pedro/devel/optee/optee_os/lib/libmpa/mpa_div.c:167
    852c:	52800025 	mov	w5, #0x1                   	// #1
/home/pedro/devel/optee/optee_os/lib/libmpa/mpa_div.c:166
    8530:	b9400444 	ldr	w4, [x2,#4]
    8534:	7100009f 	cmp	w4, #0x0
    8538:	5a84a484 	cneg	w4, w4, lt
    853c:	51000483 	sub	w3, w4, #0x1
    8540:	2a0403e0 	mov	w0, w4
    8544:	93407c63 	sxtw	x3, w3
    8548:	91000863 	add	x3, x3, #0x2
    854c:	d37ef463 	lsl	x3, x3, #2
/home/pedro/devel/optee/optee_os/lib/libmpa/mpa_div.c:168
    8550:	7100001f 	cmp	w0, #0x0
    8554:	1a9fd7e6 	cset	w6, gt
    8558:	6a0500df 	tst	w6, w5
    855c:	54000ba1 	b.ne	86d0 <__mpa_div_q_r+0x334>
/home/pedro/devel/optee/optee_os/lib/libmpa/mpa_div.c:172
    8560:	350002a5 	cbnz	w5, 85b4 <__mpa_div_q_r+0x218>
    8564:	b9400423 	ldr	w3, [x1,#4]
    8568:	7100007f 	cmp	w3, #0x0
    856c:	5a83a463 	cneg	w3, w3, lt
    8570:	6b03001f 	cmp	w0, w3
    8574:	5400250a 	b.ge	8a14 <__mpa_div_q_r+0x678>
    8578:	8b20c823 	add	x3, x1, w0, sxtw #2
    857c:	6b00009f 	cmp	w4, w0
    8580:	b9400863 	ldr	w3, [x3,#8]
    8584:	5400006d 	b.le	8590 <__mpa_div_q_r+0x1f4>
    8588:	8b20c840 	add	x0, x2, w0, sxtw #2
    858c:	b9400805 	ldr	w5, [x0,#8]
    8590:	6b0300bf 	cmp	w5, w3
    8594:	54000102 	b.cs	85b4 <__mpa_div_q_r+0x218>
/home/pedro/devel/optee/optee_os/lib/libmpa/mpa_div.c:173
    8598:	b940cba0 	ldr	w0, [x29,#200]
    859c:	52800023 	mov	w3, #0x1                   	// #1
    85a0:	8b20ca60 	add	x0, x19, w0, sxtw #2
    85a4:	b9000803 	str	w3, [x0,#8]
/home/pedro/devel/optee/optee_os/lib/libmpa/mpa_div.c:174
    85a8:	aa1703e3 	mov	x3, x23
    85ac:	aa0103e0 	mov	x0, x1
    85b0:	94000734 	bl	a280 <mpa_sub>
/home/pedro/devel/optee/optee_os/lib/libmpa/mpa_div.c:178
    85b4:	f9407fa0 	ldr	x0, [x29,#248]
    85b8:	510006d6 	sub	w22, w22, #0x1
    85bc:	b9400415 	ldr	w21, [x0,#4]
    85c0:	b940cfa0 	ldr	w0, [x29,#204]
    85c4:	510006b4 	sub	w20, w21, #0x1
    85c8:	51000ab5 	sub	w21, w21, #0x2
    85cc:	93407e9b 	sxtw	x27, w20
    85d0:	4b000294 	sub	w20, w20, w0
/home/pedro/devel/optee/optee_os/lib/libmpa/mpa_div.c:196
    85d4:	910353a0 	add	x0, x29, #0xd4
    85d8:	f9003ba0 	str	x0, [x29,#112]
    85dc:	910363a0 	add	x0, x29, #0xd8
    85e0:	8b34ca74 	add	x20, x19, w20, sxtw #2
    85e4:	f90053a0 	str	x0, [x29,#160]
/home/pedro/devel/optee/optee_os/lib/libmpa/mpa_div.c:203
    85e8:	910373a0 	add	x0, x29, #0xdc
    85ec:	93407eb5 	sxtw	x21, w21
    85f0:	f9004fa0 	str	x0, [x29,#152]
    85f4:	91002294 	add	x20, x20, #0x8
    85f8:	910383a0 	add	x0, x29, #0xe0
    85fc:	f90037a0 	str	x0, [x29,#104]
/home/pedro/devel/optee/optee_os/lib/libmpa/mpa_div.c:207
    8600:	910393a0 	add	x0, x29, #0xe4
    8604:	f9004ba0 	str	x0, [x29,#144]
/home/pedro/devel/optee/optee_os/lib/libmpa/mpa_div.c:179
    8608:	b940cfa0 	ldr	w0, [x29,#204]
    860c:	2a1b03fc 	mov	w28, w27
    8610:	6b1b001f 	cmp	w0, w27
    8614:	540007ed 	b.le	8710 <__mpa_div_q_r+0x374>
    8618:	b980cba0 	ldrsw	x0, [x29,#200]
    861c:	2a0003e1 	mov	w1, w0
/home/pedro/devel/optee/optee_os/lib/libmpa/mpa_div.c:240
    8620:	36f81be0 	tbz	w0, #31, 899c <__mpa_div_q_r+0x600>
/home/pedro/devel/optee/optee_os/lib/libmpa/mpa_div.c:242
    8624:	11000421 	add	w1, w1, #0x1
    8628:	b9000661 	str	w1, [x19,#4]
/home/pedro/devel/optee/optee_os/lib/libmpa/mpa_div.c:246
    862c:	f9407fa1 	ldr	x1, [x29,#248]
    8630:	2a1903e2 	mov	w2, w25
    8634:	aa0103e0 	mov	x0, x1
    8638:	94000593 	bl	9c84 <mpa_shift_right>
/home/pedro/devel/optee/optee_os/lib/libmpa/mpa_div.c:247
    863c:	f9407fa1 	ldr	x1, [x29,#248]
    8640:	aa1803e0 	mov	x0, x24
    8644:	97fffc86 	bl	785c <mpa_copy>
/home/pedro/devel/optee/optee_os/lib/libmpa/mpa_div.c:252
    8648:	f9405fa0 	ldr	x0, [x29,#184]
    864c:	aa1703e1 	mov	x1, x23
    8650:	94000399 	bl	94b4 <mpa_free_static_temp_var>
/home/pedro/devel/optee/optee_os/lib/libmpa/mpa_div.c:253
    8654:	f9405ba0 	ldr	x0, [x29,#176]
    8658:	aa1703e1 	mov	x1, x23
    865c:	94000396 	bl	94b4 <mpa_free_static_temp_var>
/home/pedro/devel/optee/optee_os/lib/libmpa/mpa_div.c:254
    8660:	f94057a0 	ldr	x0, [x29,#168]
    8664:	aa1703e1 	mov	x1, x23
    8668:	94000393 	bl	94b4 <mpa_free_static_temp_var>
__mpa_div_q_r():
/home/pedro/devel/optee/optee_os/lib/libmpa/mpa_div.c:359
    866c:	b9400660 	ldr	w0, [x19,#4]
    8670:	12800001 	mov	w1, #0xffffffff            	// #-1
    8674:	b940c3a2 	ldr	w2, [x29,#192]
    8678:	6b01001f 	cmp	w0, w1
    867c:	5a81d421 	cneg	w1, w1, gt
    8680:	6b01005f 	cmp	w2, w1
    8684:	54000060 	b.eq	8690 <__mpa_div_q_r+0x2f4>
/home/pedro/devel/optee/optee_os/lib/libmpa/mpa_div.c:359 (discriminator 5)
    8688:	4b0003e0 	neg	w0, w0
    868c:	b9000660 	str	w0, [x19,#4]
/home/pedro/devel/optee/optee_os/lib/libmpa/mpa_div.c:360
    8690:	b9400701 	ldr	w1, [x24,#4]
    8694:	12800000 	mov	w0, #0xffffffff            	// #-1
    8698:	b9400743 	ldr	w3, [x26,#4]
    869c:	6b00003f 	cmp	w1, w0
    86a0:	5a80d402 	cneg	w2, w0, gt
    86a4:	6b00007f 	cmp	w3, w0
    86a8:	5a80d400 	cneg	w0, w0, gt
    86ac:	6b00005f 	cmp	w2, w0
    86b0:	54ffe920 	b.eq	83d4 <__mpa_div_q_r+0x38>
/home/pedro/devel/optee/optee_os/lib/libmpa/mpa_div.c:360 (discriminator 9)
    86b4:	4b0103e1 	neg	w1, w1
    86b8:	b9000701 	str	w1, [x24,#4]
    86bc:	17ffff46 	b	83d4 <__mpa_div_q_r+0x38>
__mpa_div_q_r_internal():
/home/pedro/devel/optee/optee_os/lib/libmpa/mpa_div.c:146
    86c0:	11000739 	add	w25, w25, #0x1
/home/pedro/devel/optee/optee_os/lib/libmpa/mpa_div.c:147
    86c4:	531f7800 	lsl	w0, w0, #1
    86c8:	52800022 	mov	w2, #0x1                   	// #1
    86cc:	17ffff7f 	b	84c8 <__mpa_div_q_r+0x12c>
/home/pedro/devel/optee/optee_os/lib/libmpa/mpa_div.c:170
    86d0:	b9400425 	ldr	w5, [x1,#4]
/home/pedro/devel/optee/optee_os/lib/libmpa/mpa_div.c:169
    86d4:	51000400 	sub	w0, w0, #0x1
/home/pedro/devel/optee/optee_os/lib/libmpa/mpa_div.c:170
    86d8:	52800006 	mov	w6, #0x0                   	// #0
    86dc:	710000bf 	cmp	w5, #0x0
    86e0:	5a85a4a5 	cneg	w5, w5, lt
    86e4:	6b05001f 	cmp	w0, w5
    86e8:	5400004a 	b.ge	86f0 <__mpa_div_q_r+0x354>
    86ec:	b8636826 	ldr	w6, [x1,x3]
    86f0:	52800005 	mov	w5, #0x0                   	// #0
    86f4:	6b00009f 	cmp	w4, w0
    86f8:	5400004d 	b.le	8700 <__mpa_div_q_r+0x364>
    86fc:	b8636845 	ldr	w5, [x2,x3]
    8700:	6b0500df 	cmp	w6, w5
    8704:	d1001063 	sub	x3, x3, #0x4
    8708:	1a9f17e5 	cset	w5, eq
    870c:	17ffff91 	b	8550 <__mpa_div_q_r+0x1b4>
/home/pedro/devel/optee/optee_os/lib/libmpa/mpa_div.c:180
    8710:	f9407fa5 	ldr	x5, [x29,#248]
    8714:	52800001 	mov	w1, #0x0                   	// #0
    8718:	b94004a0 	ldr	w0, [x5,#4]
    871c:	7100001f 	cmp	w0, #0x0
    8720:	5a80a403 	cneg	w3, w0, lt
    8724:	6b1b007f 	cmp	w3, w27
    8728:	5400006d 	b.le	8734 <__mpa_div_q_r+0x398>
    872c:	8b3cc8a0 	add	x0, x5, w28, sxtw #2
    8730:	b9400801 	ldr	w1, [x0,#8]
/home/pedro/devel/optee/optee_os/lib/libmpa/mpa_div.c:181
    8734:	f9407ba6 	ldr	x6, [x29,#240]
    8738:	110006c0 	add	w0, w22, #0x1
    873c:	b9008fa0 	str	w0, [x29,#140]
    8740:	110006c4 	add	w4, w22, #0x1
    8744:	52800002 	mov	w2, #0x0                   	// #0
    8748:	b94004c0 	ldr	w0, [x6,#4]
    874c:	7100001f 	cmp	w0, #0x0
    8750:	5a80a400 	cneg	w0, w0, lt
    8754:	6b04001f 	cmp	w0, w4
    8758:	5400006b 	b.lt	8764 <__mpa_div_q_r+0x3c8>
    875c:	8b36c8c6 	add	x6, x6, w22, sxtw #2
    8760:	b94008c2 	ldr	w2, [x6,#8]
    8764:	b940cfa0 	ldr	w0, [x29,#204]
/home/pedro/devel/optee/optee_os/lib/libmpa/mpa_div.c:180
    8768:	6b02003f 	cmp	w1, w2
    876c:	4b000360 	sub	w0, w27, w0
    8770:	b900c7a0 	str	w0, [x29,#196]
    8774:	54000561 	b.ne	8820 <__mpa_div_q_r+0x484>
/home/pedro/devel/optee/optee_os/lib/libmpa/mpa_div.c:182
    8778:	8b20ca60 	add	x0, x19, w0, sxtw #2
    877c:	12800001 	mov	w1, #0xffffffff            	// #-1
    8780:	b9000801 	str	w1, [x0,#8]
/home/pedro/devel/optee/optee_os/lib/libmpa/mpa_div.c:218
    8784:	510006a0 	sub	w0, w21, #0x1
    8788:	937e7c00 	sbfiz	x0, x0, #2, #32
    878c:	f90043a0 	str	x0, [x29,#128]
/home/pedro/devel/optee/optee_os/lib/libmpa/mpa_div.c:203
    8790:	510006c0 	sub	w0, w22, #0x1
    8794:	93407c00 	sxtw	x0, w0
    8798:	f9003fa0 	str	x0, [x29,#120]
/home/pedro/devel/optee/optee_os/lib/libmpa/mpa_div.c:197
    879c:	f9407ba3 	ldr	x3, [x29,#240]
/home/pedro/devel/optee/optee_os/lib/libmpa/mpa_div.c:196
    87a0:	b9408fa4 	ldr	w4, [x29,#140]
/home/pedro/devel/optee/optee_os/lib/libmpa/mpa_div.c:193
    87a4:	b900d7bf 	str	wzr, [x29,#212]
/home/pedro/devel/optee/optee_os/lib/libmpa/mpa_div.c:194
    87a8:	b900dfbf 	str	wzr, [x29,#220]
/home/pedro/devel/optee/optee_os/lib/libmpa/mpa_div.c:197
    87ac:	b9400461 	ldr	w1, [x3,#4]
/home/pedro/devel/optee/optee_os/lib/libmpa/mpa_div.c:195
    87b0:	b900e7bf 	str	wzr, [x29,#228]
/home/pedro/devel/optee/optee_os/lib/libmpa/mpa_div.c:197
    87b4:	7100003f 	cmp	w1, #0x0
/home/pedro/devel/optee/optee_os/lib/libmpa/mpa_div.c:196
    87b8:	b9400280 	ldr	w0, [x20]
/home/pedro/devel/optee/optee_os/lib/libmpa/mpa_div.c:197
    87bc:	5a81a422 	cneg	w2, w1, lt
/home/pedro/devel/optee/optee_os/lib/libmpa/mpa_div.c:196
    87c0:	52800001 	mov	w1, #0x0                   	// #0
    87c4:	6b04005f 	cmp	w2, w4
    87c8:	5400006b 	b.lt	87d4 <__mpa_div_q_r+0x438>
    87cc:	8b36c863 	add	x3, x3, w22, sxtw #2
    87d0:	b9400861 	ldr	w1, [x3,#8]
    87d4:	f94053a2 	ldr	x2, [x29,#160]
    87d8:	f9403ba3 	ldr	x3, [x29,#112]
    87dc:	94000349 	bl	9500 <__mpa_mul_add_word>
/home/pedro/devel/optee/optee_os/lib/libmpa/mpa_div.c:200
    87e0:	f9407fa1 	ldr	x1, [x29,#248]
    87e4:	52800002 	mov	w2, #0x0                   	// #0
    87e8:	b9400420 	ldr	w0, [x1,#4]
    87ec:	7100001f 	cmp	w0, #0x0
    87f0:	5a80a400 	cneg	w0, w0, lt
    87f4:	6b00039f 	cmp	w28, w0
    87f8:	5400006a 	b.ge	8804 <__mpa_div_q_r+0x468>
    87fc:	8b3cc821 	add	x1, x1, w28, sxtw #2
    8800:	b9400822 	ldr	w2, [x1,#8]
    8804:	b940d7a0 	ldr	w0, [x29,#212]
    8808:	6b02001f 	cmp	w0, w2
    880c:	54000209 	b.ls	884c <__mpa_div_q_r+0x4b0>
/home/pedro/devel/optee/optee_os/lib/libmpa/mpa_div.c:222
    8810:	b9400280 	ldr	w0, [x20]
    8814:	51000400 	sub	w0, w0, #0x1
    8818:	b9000280 	str	w0, [x20]
    881c:	17ffffe0 	b	879c <__mpa_div_q_r+0x400>
/home/pedro/devel/optee/optee_os/lib/libmpa/mpa_div.c:185
    8820:	52800000 	mov	w0, #0x0                   	// #0
    8824:	6b1c007f 	cmp	w3, w28
    8828:	5400006b 	b.lt	8834 <__mpa_div_q_r+0x498>
    882c:	8b35c8a5 	add	x5, x5, w21, sxtw #2
    8830:	b94008a0 	ldr	w0, [x5,#8]
    8834:	d2800003 	mov	x3, #0x0                   	// #0
    8838:	97fffe73 	bl	8204 <__mpa_div_dword>
/home/pedro/devel/optee/optee_os/lib/libmpa/mpa_div.c:184
    883c:	b940c7a1 	ldr	w1, [x29,#196]
    8840:	8b21ca61 	add	x1, x19, w1, sxtw #2
    8844:	b9000820 	str	w0, [x1,#8]
    8848:	17ffffcf 	b	8784 <__mpa_div_q_r+0x3e8>
/home/pedro/devel/optee/optee_os/lib/libmpa/mpa_div.c:204
    884c:	f9407ba3 	ldr	x3, [x29,#240]
/home/pedro/devel/optee/optee_os/lib/libmpa/mpa_div.c:203
    8850:	b9400280 	ldr	w0, [x20]
/home/pedro/devel/optee/optee_os/lib/libmpa/mpa_div.c:204
    8854:	b9400461 	ldr	w1, [x3,#4]
    8858:	7100003f 	cmp	w1, #0x0
    885c:	5a81a422 	cneg	w2, w1, lt
/home/pedro/devel/optee/optee_os/lib/libmpa/mpa_div.c:203
    8860:	52800001 	mov	w1, #0x0                   	// #0
    8864:	6b0202df 	cmp	w22, w2
    8868:	5400008c 	b.gt	8878 <__mpa_div_q_r+0x4dc>
    886c:	f9403fa1 	ldr	x1, [x29,#120]
    8870:	8b010863 	add	x3, x3, x1, lsl #2
    8874:	b9400861 	ldr	w1, [x3,#8]
    8878:	f94037a2 	ldr	x2, [x29,#104]
    887c:	f9404fa3 	ldr	x3, [x29,#152]
    8880:	94000320 	bl	9500 <__mpa_mul_add_word>
/home/pedro/devel/optee/optee_os/lib/libmpa/mpa_div.c:207
    8884:	295b07a0 	ldp	w0, w1, [x29,#216]
    8888:	a9490ba3 	ldp	x3, x2, [x29,#144]
    888c:	9400054f 	bl	9dc8 <__mpa_full_adder>
/home/pedro/devel/optee/optee_os/lib/libmpa/mpa_div.c:208
    8890:	b900dbbf 	str	wzr, [x29,#216]
/home/pedro/devel/optee/optee_os/lib/libmpa/mpa_div.c:209
    8894:	f9404ba2 	ldr	x2, [x29,#144]
    8898:	b940d7a0 	ldr	w0, [x29,#212]
    889c:	b940e7a1 	ldr	w1, [x29,#228]
    88a0:	f94053a3 	ldr	x3, [x29,#160]
    88a4:	94000549 	bl	9dc8 <__mpa_full_adder>
/home/pedro/devel/optee/optee_os/lib/libmpa/mpa_div.c:210
    88a8:	b940dba2 	ldr	w2, [x29,#216]
    88ac:	35fffb22 	cbnz	w2, 8810 <__mpa_div_q_r+0x474>
    88b0:	f9407fa1 	ldr	x1, [x29,#248]
    88b4:	52800003 	mov	w3, #0x0                   	// #0
    88b8:	b9400420 	ldr	w0, [x1,#4]
    88bc:	7100001f 	cmp	w0, #0x0
    88c0:	5a80a400 	cneg	w0, w0, lt
    88c4:	6b00039f 	cmp	w28, w0
    88c8:	5400006a 	b.ge	88d4 <__mpa_div_q_r+0x538>
    88cc:	8b3cc823 	add	x3, x1, w28, sxtw #2
    88d0:	b9400863 	ldr	w3, [x3,#8]
    88d4:	b940e7a5 	ldr	w5, [x29,#228]
    88d8:	6b0300bf 	cmp	w5, w3
    88dc:	54fff9a8 	b.hi	8810 <__mpa_div_q_r+0x474>
/home/pedro/devel/optee/optee_os/lib/libmpa/mpa_div.c:212
    88e0:	54000243 	b.cc	8928 <__mpa_div_q_r+0x58c>
/home/pedro/devel/optee/optee_os/lib/libmpa/mpa_div.c:214
    88e4:	52800003 	mov	w3, #0x0                   	// #0
    88e8:	6b00039f 	cmp	w28, w0
    88ec:	5400006c 	b.gt	88f8 <__mpa_div_q_r+0x55c>
    88f0:	8b35c823 	add	x3, x1, w21, sxtw #2
    88f4:	b9400863 	ldr	w3, [x3,#8]
    88f8:	b940dfa5 	ldr	w5, [x29,#220]
    88fc:	6b0300bf 	cmp	w5, w3
    8900:	54fff888 	b.hi	8810 <__mpa_div_q_r+0x474>
/home/pedro/devel/optee/optee_os/lib/libmpa/mpa_div.c:216
    8904:	54000123 	b.cc	8928 <__mpa_div_q_r+0x58c>
/home/pedro/devel/optee/optee_os/lib/libmpa/mpa_div.c:218
    8908:	6b15001f 	cmp	w0, w21
    890c:	5400008b 	b.lt	891c <__mpa_div_q_r+0x580>
    8910:	f94043a0 	ldr	x0, [x29,#128]
    8914:	8b000021 	add	x1, x1, x0
    8918:	b9400822 	ldr	w2, [x1,#8]
    891c:	b940e3a0 	ldr	w0, [x29,#224]
    8920:	6b02001f 	cmp	w0, w2
    8924:	54fff768 	b.hi	8810 <__mpa_div_q_r+0x474>
/home/pedro/devel/optee/optee_os/lib/libmpa/mpa_div.c:226
    8928:	f9407ba0 	ldr	x0, [x29,#240]
    892c:	52800021 	mov	w1, #0x1                   	// #1
    8930:	94000458 	bl	9a90 <__mpa_shift_words_right>
    8934:	b940c7a0 	ldr	w0, [x29,#196]
/home/pedro/devel/optee/optee_os/lib/libmpa/mpa_div.c:228
    8938:	aa1703e3 	mov	x3, x23
    893c:	8b20ca7c 	add	x28, x19, w0, sxtw #2
    8940:	a94e87a0 	ldp	x0, x1, [x29,#232]
    8944:	b9400b82 	ldr	w2, [x28,#8]
    8948:	94000398 	bl	97a8 <mpa_mul_word>
/home/pedro/devel/optee/optee_os/lib/libmpa/mpa_div.c:229
    894c:	f9407fa1 	ldr	x1, [x29,#248]
    8950:	aa1703e3 	mov	x3, x23
    8954:	f94077a2 	ldr	x2, [x29,#232]
    8958:	aa0103e0 	mov	x0, x1
    895c:	94000649 	bl	a280 <mpa_sub>
/home/pedro/devel/optee/optee_os/lib/libmpa/mpa_div.c:230
    8960:	f9407fa1 	ldr	x1, [x29,#248]
    8964:	b9400420 	ldr	w0, [x1,#4]
    8968:	36f80100 	tbz	w0, #31, 8988 <__mpa_div_q_r+0x5ec>
/home/pedro/devel/optee/optee_os/lib/libmpa/mpa_div.c:231
    896c:	f9407ba2 	ldr	x2, [x29,#240]
    8970:	aa0103e0 	mov	x0, x1
    8974:	aa1703e3 	mov	x3, x23
    8978:	940005dd 	bl	a0ec <mpa_add>
/home/pedro/devel/optee/optee_os/lib/libmpa/mpa_div.c:232
    897c:	b9400b80 	ldr	w0, [x28,#8]
    8980:	51000400 	sub	w0, w0, #0x1
    8984:	b9000b80 	str	w0, [x28,#8]
    8988:	d100077b 	sub	x27, x27, #0x1
    898c:	d10006b5 	sub	x21, x21, #0x1
    8990:	d1001294 	sub	x20, x20, #0x4
    8994:	510006d6 	sub	w22, w22, #0x1
    8998:	17ffff1c 	b	8608 <__mpa_div_q_r+0x26c>
    899c:	d1000400 	sub	x0, x0, #0x1
/home/pedro/devel/optee/optee_os/lib/libmpa/mpa_div.c:240
    89a0:	8b000a62 	add	x2, x19, x0, lsl #2
    89a4:	b9400c42 	ldr	w2, [x2,#12]
    89a8:	34ffe3a2 	cbz	w2, 861c <__mpa_div_q_r+0x280>
    89ac:	17ffff1e 	b	8624 <__mpa_div_q_r+0x288>
__mpa_div_q_r():
/home/pedro/devel/optee/optee_os/lib/libmpa/mpa_div.c:353
    89b0:	b9400a83 	ldr	w3, [x20,#8]
    89b4:	aa1a03e2 	mov	x2, x26
    89b8:	aa1803e1 	mov	x1, x24
    89bc:	aa1303e0 	mov	x0, x19
    89c0:	97fffe25 	bl	8254 <__mpa_div_q_r_internal_word>
    89c4:	17ffff2a 	b	866c <__mpa_div_q_r+0x2d0>
/home/pedro/devel/optee/optee_os/lib/libmpa/mpa_div.c:355
    89c8:	aa1303e0 	mov	x0, x19
    89cc:	52800001 	mov	w1, #0x0                   	// #0
    89d0:	97fffe02 	bl	81d8 <mpa_set_word>
/home/pedro/devel/optee/optee_os/lib/libmpa/mpa_div.c:356
    89d4:	aa1a03e1 	mov	x1, x26
    89d8:	aa1803e0 	mov	x0, x24
    89dc:	97fffba0 	bl	785c <mpa_copy>
/home/pedro/devel/optee/optee_os/lib/libmpa/mpa_div.c:357
    89e0:	17fffe7d 	b	83d4 <__mpa_div_q_r+0x38>
/home/pedro/devel/optee/optee_os/lib/libmpa/mpa_div.c:342
    89e4:	12800001 	mov	w1, #0xffffffff            	// #-1
    89e8:	6b01001f 	cmp	w0, w1
    89ec:	5a81d420 	cneg	w0, w1, gt
    89f0:	b900c3a0 	str	w0, [x29,#192]
/home/pedro/devel/optee/optee_os/lib/libmpa/mpa_div.c:343
    89f4:	aa1403e1 	mov	x1, x20
    89f8:	aa1a03e0 	mov	x0, x26
    89fc:	94000730 	bl	a6bc <__mpa_abs_cmp>
/home/pedro/devel/optee/optee_os/lib/libmpa/mpa_div.c:344
    8a00:	7100001f 	cmp	w0, #0x0
    8a04:	54ffd0c1 	b.ne	841c <__mpa_div_q_r+0x80>
/home/pedro/devel/optee/optee_os/lib/libmpa/mpa_div.c:345
    8a08:	52800021 	mov	w1, #0x1                   	// #1
    8a0c:	aa1303e0 	mov	x0, x19
    8a10:	17fffe6d 	b	83c4 <__mpa_div_q_r+0x28>
__mpa_div_q_r_internal():
/home/pedro/devel/optee/optee_os/lib/libmpa/mpa_div.c:172
    8a14:	6b00009f 	cmp	w4, w0
    8a18:	54ffdced 	b.le	85b4 <__mpa_div_q_r+0x218>
    8a1c:	52800003 	mov	w3, #0x0                   	// #0
    8a20:	17fffeda 	b	8588 <__mpa_div_q_r+0x1ec>

0000000000008a24 <mpa_div>:
mpa_div():
/home/pedro/devel/optee/optee_os/lib/libmpa/mpa_div.c:380
    8a24:	a9ba7bfd 	stp	x29, x30, [sp,#-96]!
/home/pedro/devel/optee/optee_os/lib/libmpa/mpa_div.c:387
    8a28:	eb02001f 	cmp	x0, x2
    8a2c:	fa431004 	ccmp	x0, x3, #0x4, ne
/home/pedro/devel/optee/optee_os/lib/libmpa/mpa_div.c:380
    8a30:	910003fd 	mov	x29, sp
    8a34:	a90153f3 	stp	x19, x20, [sp,#16]
/home/pedro/devel/optee/optee_os/lib/libmpa/mpa_div.c:387
    8a38:	fa401804 	ccmp	x0, #0x0, #0x4, ne
/home/pedro/devel/optee/optee_os/lib/libmpa/mpa_div.c:380
    8a3c:	a9025bf5 	stp	x21, x22, [sp,#32]
    8a40:	aa0003f4 	mov	x20, x0
    8a44:	a90363f7 	stp	x23, x24, [sp,#48]
    8a48:	aa0103f3 	mov	x19, x1
    8a4c:	f90023f9 	str	x25, [sp,#64]
    8a50:	aa0203f6 	mov	x22, x2
    8a54:	aa0303f7 	mov	x23, x3
    8a58:	aa0403f5 	mov	x21, x4
/home/pedro/devel/optee/optee_os/lib/libmpa/mpa_div.c:387
    8a5c:	54000501 	b.ne	8afc <mpa_div+0xd8>
/home/pedro/devel/optee/optee_os/lib/libmpa/mpa_div.c:389
    8a60:	52800039 	mov	w25, #0x1                   	// #1
/home/pedro/devel/optee/optee_os/lib/libmpa/mpa_div.c:388
    8a64:	aa0403e1 	mov	x1, x4
    8a68:	910143a0 	add	x0, x29, #0x50
    8a6c:	9400028e 	bl	94a4 <mpa_alloc_static_temp_var>
/home/pedro/devel/optee/optee_os/lib/libmpa/mpa_div.c:396
    8a70:	f100027f 	cmp	x19, #0x0
    8a74:	fa5312e4 	ccmp	x23, x19, #0x4, ne
    8a78:	fa5312c4 	ccmp	x22, x19, #0x4, ne
    8a7c:	54000461 	b.ne	8b08 <mpa_div+0xe4>
/home/pedro/devel/optee/optee_os/lib/libmpa/mpa_div.c:398
    8a80:	52800038 	mov	w24, #0x1                   	// #1
/home/pedro/devel/optee/optee_os/lib/libmpa/mpa_div.c:397
    8a84:	aa1503e1 	mov	x1, x21
    8a88:	910163a0 	add	x0, x29, #0x58
    8a8c:	94000286 	bl	94a4 <mpa_alloc_static_temp_var>
/home/pedro/devel/optee/optee_os/lib/libmpa/mpa_div.c:404
    8a90:	a94507a0 	ldp	x0, x1, [x29,#80]
    8a94:	aa1503e4 	mov	x4, x21
    8a98:	aa1703e3 	mov	x3, x23
    8a9c:	aa1603e2 	mov	x2, x22
    8aa0:	97fffe3f 	bl	839c <__mpa_div_q_r>
/home/pedro/devel/optee/optee_os/lib/libmpa/mpa_div.c:406
    8aa4:	b4000094 	cbz	x20, 8ab4 <mpa_div+0x90>
/home/pedro/devel/optee/optee_os/lib/libmpa/mpa_div.c:407
    8aa8:	f9402ba1 	ldr	x1, [x29,#80]
    8aac:	aa1403e0 	mov	x0, x20
    8ab0:	97fffb6b 	bl	785c <mpa_copy>
/home/pedro/devel/optee/optee_os/lib/libmpa/mpa_div.c:408
    8ab4:	34000099 	cbz	w25, 8ac4 <mpa_div+0xa0>
/home/pedro/devel/optee/optee_os/lib/libmpa/mpa_div.c:409
    8ab8:	aa1503e1 	mov	x1, x21
    8abc:	910143a0 	add	x0, x29, #0x50
    8ac0:	9400027d 	bl	94b4 <mpa_free_static_temp_var>
/home/pedro/devel/optee/optee_os/lib/libmpa/mpa_div.c:410
    8ac4:	b4000093 	cbz	x19, 8ad4 <mpa_div+0xb0>
/home/pedro/devel/optee/optee_os/lib/libmpa/mpa_div.c:411
    8ac8:	f9402fa1 	ldr	x1, [x29,#88]
    8acc:	aa1303e0 	mov	x0, x19
    8ad0:	97fffb63 	bl	785c <mpa_copy>
/home/pedro/devel/optee/optee_os/lib/libmpa/mpa_div.c:412
    8ad4:	34000098 	cbz	w24, 8ae4 <mpa_div+0xc0>
/home/pedro/devel/optee/optee_os/lib/libmpa/mpa_div.c:413
    8ad8:	aa1503e1 	mov	x1, x21
    8adc:	910163a0 	add	x0, x29, #0x58
    8ae0:	94000275 	bl	94b4 <mpa_free_static_temp_var>
/home/pedro/devel/optee/optee_os/lib/libmpa/mpa_div.c:414
    8ae4:	a94153f3 	ldp	x19, x20, [sp,#16]
    8ae8:	a9425bf5 	ldp	x21, x22, [sp,#32]
    8aec:	a94363f7 	ldp	x23, x24, [sp,#48]
    8af0:	f94023f9 	ldr	x25, [sp,#64]
    8af4:	a8c67bfd 	ldp	x29, x30, [sp],#96
    8af8:	d65f03c0 	ret
/home/pedro/devel/optee/optee_os/lib/libmpa/mpa_div.c:392
    8afc:	52800019 	mov	w25, #0x0                   	// #0
/home/pedro/devel/optee/optee_os/lib/libmpa/mpa_div.c:391
    8b00:	f9002ba0 	str	x0, [x29,#80]
    8b04:	17ffffdb 	b	8a70 <mpa_div+0x4c>
/home/pedro/devel/optee/optee_os/lib/libmpa/mpa_div.c:401
    8b08:	52800018 	mov	w24, #0x0                   	// #0
/home/pedro/devel/optee/optee_os/lib/libmpa/mpa_div.c:400
    8b0c:	f9002fb3 	str	x19, [x29,#88]
    8b10:	17ffffe0 	b	8a90 <mpa_div+0x6c>

0000000000008b14 <__mpa_divby2>:
__mpa_divby2():
/home/pedro/devel/optee/optee_os/lib/libmpa/mpa_gcd.c:48
    8b14:	b9400403 	ldr	w3, [x0,#4]
    8b18:	7100007f 	cmp	w3, #0x0
    8b1c:	540002a0 	b.eq	8b70 <__mpa_divby2+0x5c>
/home/pedro/devel/optee/optee_os/lib/libmpa/mpa_gcd.c:51
    8b20:	5a83a466 	cneg	w6, w3, lt
/home/pedro/devel/optee/optee_os/lib/libmpa/mpa_gcd.c:53
    8b24:	b9400804 	ldr	w4, [x0,#8]
/home/pedro/devel/optee/optee_os/lib/libmpa/mpa_gcd.c:51
    8b28:	510004c1 	sub	w1, w6, #0x1
/home/pedro/devel/optee/optee_os/lib/libmpa/mpa_gcd.c:54
    8b2c:	52800025 	mov	w5, #0x1                   	// #1
/home/pedro/devel/optee/optee_os/lib/libmpa/mpa_gcd.c:51
    8b30:	8b21c801 	add	x1, x0, w1, sxtw #2
/home/pedro/devel/optee/optee_os/lib/libmpa/mpa_gcd.c:53
    8b34:	53017c84 	lsr	w4, w4, #1
/home/pedro/devel/optee/optee_os/lib/libmpa/mpa_gcd.c:51
    8b38:	b9400821 	ldr	w1, [x1,#8]
    8b3c:	53017c21 	lsr	w1, w1, #1
    8b40:	7100003f 	cmp	w1, #0x0
/home/pedro/devel/optee/optee_os/lib/libmpa/mpa_gcd.c:53
    8b44:	aa0003e1 	mov	x1, x0
/home/pedro/devel/optee/optee_os/lib/libmpa/mpa_gcd.c:51
    8b48:	1a9f17e2 	cset	w2, eq
/home/pedro/devel/optee/optee_os/lib/libmpa/mpa_gcd.c:53
    8b4c:	b8008c24 	str	w4, [x1,#8]!
    8b50:	91001021 	add	x1, x1, #0x4
/home/pedro/devel/optee/optee_os/lib/libmpa/mpa_gcd.c:54 (discriminator 1)
    8b54:	6b0600bf 	cmp	w5, w6
    8b58:	540000e3 	b.cc	8b74 <__mpa_divby2+0x60>
/home/pedro/devel/optee/optee_os/lib/libmpa/mpa_gcd.c:61
    8b5c:	4b020061 	sub	w1, w3, w2
    8b60:	7100007f 	cmp	w3, #0x0
    8b64:	0b020062 	add	w2, w3, w2
    8b68:	1a81b042 	csel	w2, w2, w1, lt
    8b6c:	b9000402 	str	w2, [x0,#4]
    8b70:	d65f03c0 	ret
/home/pedro/devel/optee/optee_os/lib/libmpa/mpa_gcd.c:55 (discriminator 3)
    8b74:	b9400024 	ldr	w4, [x1]
/home/pedro/devel/optee/optee_os/lib/libmpa/mpa_gcd.c:54 (discriminator 3)
    8b78:	110004a5 	add	w5, w5, #0x1
/home/pedro/devel/optee/optee_os/lib/libmpa/mpa_gcd.c:56 (discriminator 3)
    8b7c:	53017c87 	lsr	w7, w4, #1
    8b80:	b9000027 	str	w7, [x1]
/home/pedro/devel/optee/optee_os/lib/libmpa/mpa_gcd.c:57 (discriminator 3)
    8b84:	b85fc027 	ldur	w7, [x1,#-4]
    8b88:	4a047ce4 	eor	w4, w7, w4, lsl #31
    8b8c:	b81fc024 	stur	w4, [x1,#-4]
    8b90:	17fffff0 	b	8b50 <__mpa_divby2+0x3c>

0000000000008b94 <__mpa_gcd.part.0>:
__mpa_gcd():
/home/pedro/devel/optee/optee_os/lib/libmpa/mpa_gcd.c:213
    8b94:	a9ba7bfd 	stp	x29, x30, [sp,#-96]!
    8b98:	910003fd 	mov	x29, sp
    8b9c:	a9025bf5 	stp	x21, x22, [sp,#32]
/home/pedro/devel/optee/optee_os/lib/libmpa/mpa_gcd.c:227
    8ba0:	910123b6 	add	x22, x29, #0x48
/home/pedro/devel/optee/optee_os/lib/libmpa/mpa_gcd.c:213
    8ba4:	a90153f3 	stp	x19, x20, [sp,#16]
    8ba8:	aa0103f5 	mov	x21, x1
    8bac:	aa0203f4 	mov	x20, x2
    8bb0:	aa0303f3 	mov	x19, x3
/home/pedro/devel/optee/optee_os/lib/libmpa/mpa_gcd.c:227
    8bb4:	aa0303e1 	mov	x1, x3
/home/pedro/devel/optee/optee_os/lib/libmpa/mpa_gcd.c:213
    8bb8:	a90363f7 	stp	x23, x24, [sp,#48]
    8bbc:	aa0003f8 	mov	x24, x0
/home/pedro/devel/optee/optee_os/lib/libmpa/mpa_gcd.c:227
    8bc0:	aa1603e0 	mov	x0, x22
    8bc4:	94000238 	bl	94a4 <mpa_alloc_static_temp_var>
/home/pedro/devel/optee/optee_os/lib/libmpa/mpa_gcd.c:228
    8bc8:	f94027a0 	ldr	x0, [x29,#72]
    8bcc:	aa1503e1 	mov	x1, x21
/home/pedro/devel/optee/optee_os/lib/libmpa/mpa_gcd.c:229
    8bd0:	910143b5 	add	x21, x29, #0x50
/home/pedro/devel/optee/optee_os/lib/libmpa/mpa_gcd.c:228
    8bd4:	97fffb22 	bl	785c <mpa_copy>
/home/pedro/devel/optee/optee_os/lib/libmpa/mpa_gcd.c:229
    8bd8:	aa1303e1 	mov	x1, x19
    8bdc:	aa1503e0 	mov	x0, x21
    8be0:	94000231 	bl	94a4 <mpa_alloc_static_temp_var>
/home/pedro/devel/optee/optee_os/lib/libmpa/mpa_gcd.c:230
    8be4:	f9402ba0 	ldr	x0, [x29,#80]
    8be8:	aa1403e1 	mov	x1, x20
/home/pedro/devel/optee/optee_os/lib/libmpa/mpa_gcd.c:232
    8bec:	52800014 	mov	w20, #0x0                   	// #0
/home/pedro/devel/optee/optee_os/lib/libmpa/mpa_gcd.c:230
    8bf0:	97fffb1b 	bl	785c <mpa_copy>
/home/pedro/devel/optee/optee_os/lib/libmpa/mpa_gcd.c:233
    8bf4:	f94027a0 	ldr	x0, [x29,#72]
    8bf8:	97fffb63 	bl	7984 <mpa_parity>
    8bfc:	34000340 	cbz	w0, 8c64 <__mpa_gcd.part.0+0xd0>
/home/pedro/devel/optee/optee_os/lib/libmpa/mpa_gcd.c:239
    8c00:	910163b7 	add	x23, x29, #0x58
    8c04:	aa1303e1 	mov	x1, x19
    8c08:	aa1703e0 	mov	x0, x23
    8c0c:	94000226 	bl	94a4 <mpa_alloc_static_temp_var>
/home/pedro/devel/optee/optee_os/lib/libmpa/mpa_gcd.c:240
    8c10:	f94027a0 	ldr	x0, [x29,#72]
    8c14:	b9400400 	ldr	w0, [x0,#4]
    8c18:	350003c0 	cbnz	w0, 8c90 <__mpa_gcd.part.0+0xfc>
/home/pedro/devel/optee/optee_os/lib/libmpa/mpa_gcd.c:257
    8c1c:	f9402ba1 	ldr	x1, [x29,#80]
    8c20:	2a1403e2 	mov	w2, w20
    8c24:	aa1803e0 	mov	x0, x24
    8c28:	940003b3 	bl	9af4 <mpa_shift_left>
/home/pedro/devel/optee/optee_os/lib/libmpa/mpa_gcd.c:258
    8c2c:	aa1303e1 	mov	x1, x19
    8c30:	aa1703e0 	mov	x0, x23
    8c34:	94000220 	bl	94b4 <mpa_free_static_temp_var>
/home/pedro/devel/optee/optee_os/lib/libmpa/mpa_gcd.c:259
    8c38:	aa1303e1 	mov	x1, x19
    8c3c:	aa1603e0 	mov	x0, x22
    8c40:	9400021d 	bl	94b4 <mpa_free_static_temp_var>
/home/pedro/devel/optee/optee_os/lib/libmpa/mpa_gcd.c:260
    8c44:	aa1303e1 	mov	x1, x19
    8c48:	aa1503e0 	mov	x0, x21
    8c4c:	9400021a 	bl	94b4 <mpa_free_static_temp_var>
/home/pedro/devel/optee/optee_os/lib/libmpa/mpa_gcd.c:261
    8c50:	a94153f3 	ldp	x19, x20, [sp,#16]
    8c54:	a9425bf5 	ldp	x21, x22, [sp,#32]
    8c58:	a94363f7 	ldp	x23, x24, [sp,#48]
    8c5c:	a8c67bfd 	ldp	x29, x30, [sp],#96
    8c60:	d65f03c0 	ret
/home/pedro/devel/optee/optee_os/lib/libmpa/mpa_gcd.c:233
    8c64:	f9402ba0 	ldr	x0, [x29,#80]
    8c68:	97fffb47 	bl	7984 <mpa_parity>
    8c6c:	35fffca0 	cbnz	w0, 8c00 <__mpa_gcd.part.0+0x6c>
/home/pedro/devel/optee/optee_os/lib/libmpa/mpa_gcd.c:235
    8c70:	f94027a0 	ldr	x0, [x29,#72]
/home/pedro/devel/optee/optee_os/lib/libmpa/mpa_gcd.c:234
    8c74:	11000694 	add	w20, w20, #0x1
/home/pedro/devel/optee/optee_os/lib/libmpa/mpa_gcd.c:235
    8c78:	97ffffa7 	bl	8b14 <__mpa_divby2>
/home/pedro/devel/optee/optee_os/lib/libmpa/mpa_gcd.c:236
    8c7c:	f9402ba0 	ldr	x0, [x29,#80]
    8c80:	97ffffa5 	bl	8b14 <__mpa_divby2>
    8c84:	17ffffdc 	b	8bf4 <__mpa_gcd.part.0+0x60>
/home/pedro/devel/optee/optee_os/lib/libmpa/mpa_gcd.c:242
    8c88:	f94027a0 	ldr	x0, [x29,#72]
    8c8c:	97ffffa2 	bl	8b14 <__mpa_divby2>
/home/pedro/devel/optee/optee_os/lib/libmpa/mpa_gcd.c:241
    8c90:	f94027a0 	ldr	x0, [x29,#72]
    8c94:	97fffb3c 	bl	7984 <mpa_parity>
    8c98:	34ffff80 	cbz	w0, 8c88 <__mpa_gcd.part.0+0xf4>
/home/pedro/devel/optee/optee_os/lib/libmpa/mpa_gcd.c:244
    8c9c:	f9402ba0 	ldr	x0, [x29,#80]
    8ca0:	97fffb39 	bl	7984 <mpa_parity>
    8ca4:	34000240 	cbz	w0, 8cec <__mpa_gcd.part.0+0x158>
/home/pedro/devel/optee/optee_os/lib/libmpa/mpa_gcd.c:247
    8ca8:	a9448ba1 	ldp	x1, x2, [x29,#72]
    8cac:	aa1303e3 	mov	x3, x19
    8cb0:	f9402fa0 	ldr	x0, [x29,#88]
    8cb4:	94000573 	bl	a280 <mpa_sub>
/home/pedro/devel/optee/optee_os/lib/libmpa/mpa_gcd.c:249
    8cb8:	f9402fa0 	ldr	x0, [x29,#88]
    8cbc:	b9400401 	ldr	w1, [x0,#4]
    8cc0:	36f80061 	tbz	w1, #31, 8ccc <__mpa_gcd.part.0+0x138>
    8cc4:	4b0103e1 	neg	w1, w1
    8cc8:	b9000401 	str	w1, [x0,#4]
/home/pedro/devel/optee/optee_os/lib/libmpa/mpa_gcd.c:250
    8ccc:	97ffff92 	bl	8b14 <__mpa_divby2>
/home/pedro/devel/optee/optee_os/lib/libmpa/mpa_gcd.c:251
    8cd0:	a94487a0 	ldp	x0, x1, [x29,#72]
    8cd4:	940006b3 	bl	a7a0 <mpa_cmp>
/home/pedro/devel/optee/optee_os/lib/libmpa/mpa_gcd.c:252
    8cd8:	f9402fa1 	ldr	x1, [x29,#88]
/home/pedro/devel/optee/optee_os/lib/libmpa/mpa_gcd.c:251
    8cdc:	37f800e0 	tbnz	w0, #31, 8cf8 <__mpa_gcd.part.0+0x164>
/home/pedro/devel/optee/optee_os/lib/libmpa/mpa_gcd.c:252
    8ce0:	f94027a0 	ldr	x0, [x29,#72]
/home/pedro/devel/optee/optee_os/lib/libmpa/mpa_gcd.c:254
    8ce4:	97fffade 	bl	785c <mpa_copy>
    8ce8:	17ffffca 	b	8c10 <__mpa_gcd.part.0+0x7c>
/home/pedro/devel/optee/optee_os/lib/libmpa/mpa_gcd.c:245
    8cec:	f9402ba0 	ldr	x0, [x29,#80]
    8cf0:	97ffff89 	bl	8b14 <__mpa_divby2>
    8cf4:	17ffffea 	b	8c9c <__mpa_gcd.part.0+0x108>
/home/pedro/devel/optee/optee_os/lib/libmpa/mpa_gcd.c:254
    8cf8:	f9402ba0 	ldr	x0, [x29,#80]
    8cfc:	17fffffa 	b	8ce4 <__mpa_gcd.part.0+0x150>

0000000000008d00 <__mpa_egcd>:
__mpa_egcd():
/home/pedro/devel/optee/optee_os/lib/libmpa/mpa_gcd.c:117
    8d00:	a9b57bfd 	stp	x29, x30, [sp,#-176]!
    8d04:	910003fd 	mov	x29, sp
    8d08:	a90153f3 	stp	x19, x20, [sp,#16]
    8d0c:	aa0003f4 	mov	x20, x0
/home/pedro/devel/optee/optee_os/lib/libmpa/mpa_gcd.c:128
    8d10:	b9400480 	ldr	w0, [x4,#4]
/home/pedro/devel/optee/optee_os/lib/libmpa/mpa_gcd.c:117
    8d14:	a9025bf5 	stp	x21, x22, [sp,#32]
    8d18:	aa0103f6 	mov	x22, x1
    8d1c:	a9046bf9 	stp	x25, x26, [sp,#64]
    8d20:	aa0203f5 	mov	x21, x2
    8d24:	a90363f7 	stp	x23, x24, [sp,#48]
    8d28:	aa0303f9 	mov	x25, x3
    8d2c:	a90573fb 	stp	x27, x28, [sp,#80]
/home/pedro/devel/optee/optee_os/lib/libmpa/mpa_gcd.c:128
    8d30:	35000260 	cbnz	w0, 8d7c <__mpa_egcd+0x7c>
/home/pedro/devel/optee/optee_os/lib/libmpa/mpa_gcd.c:129
    8d34:	b4000081 	cbz	x1, 8d44 <__mpa_egcd+0x44>
/home/pedro/devel/optee/optee_os/lib/libmpa/mpa_gcd.c:130
    8d38:	52800021 	mov	w1, #0x1                   	// #1
    8d3c:	aa1603e0 	mov	x0, x22
    8d40:	97fffd26 	bl	81d8 <mpa_set_word>
/home/pedro/devel/optee/optee_os/lib/libmpa/mpa_gcd.c:131
    8d44:	b4000095 	cbz	x21, 8d54 <__mpa_egcd+0x54>
/home/pedro/devel/optee/optee_os/lib/libmpa/mpa_gcd.c:132
    8d48:	52800001 	mov	w1, #0x0                   	// #0
    8d4c:	aa1503e0 	mov	x0, x21
    8d50:	97fffd22 	bl	81d8 <mpa_set_word>
/home/pedro/devel/optee/optee_os/lib/libmpa/mpa_gcd.c:133
    8d54:	aa1903e1 	mov	x1, x25
    8d58:	aa1403e0 	mov	x0, x20
    8d5c:	97fffac0 	bl	785c <mpa_copy>
/home/pedro/devel/optee/optee_os/lib/libmpa/mpa_gcd.c:206
    8d60:	a94153f3 	ldp	x19, x20, [sp,#16]
    8d64:	a9425bf5 	ldp	x21, x22, [sp,#32]
    8d68:	a94363f7 	ldp	x23, x24, [sp,#48]
    8d6c:	a9446bf9 	ldp	x25, x26, [sp,#64]
    8d70:	a94573fb 	ldp	x27, x28, [sp,#80]
    8d74:	a8cb7bfd 	ldp	x29, x30, [sp],#176
    8d78:	d65f03c0 	ret
/home/pedro/devel/optee/optee_os/lib/libmpa/mpa_gcd.c:136
    8d7c:	910263b8 	add	x24, x29, #0x98
    8d80:	aa0403f7 	mov	x23, x4
    8d84:	aa0503f3 	mov	x19, x5
    8d88:	aa0503e1 	mov	x1, x5
    8d8c:	aa1803e0 	mov	x0, x24
    8d90:	940001c5 	bl	94a4 <mpa_alloc_static_temp_var>
/home/pedro/devel/optee/optee_os/lib/libmpa/mpa_gcd.c:137
    8d94:	f9404fa0 	ldr	x0, [x29,#152]
    8d98:	aa1903e1 	mov	x1, x25
    8d9c:	97fffab0 	bl	785c <mpa_copy>
/home/pedro/devel/optee/optee_os/lib/libmpa/mpa_gcd.c:138
    8da0:	910283a0 	add	x0, x29, #0xa0
    8da4:	aa1303e1 	mov	x1, x19
    8da8:	f90037a0 	str	x0, [x29,#104]
    8dac:	940001be 	bl	94a4 <mpa_alloc_static_temp_var>
/home/pedro/devel/optee/optee_os/lib/libmpa/mpa_gcd.c:139
    8db0:	f94053a0 	ldr	x0, [x29,#160]
    8db4:	aa1703e1 	mov	x1, x23
/home/pedro/devel/optee/optee_os/lib/libmpa/mpa_gcd.c:141
    8db8:	52800017 	mov	w23, #0x0                   	// #0
/home/pedro/devel/optee/optee_os/lib/libmpa/mpa_gcd.c:139
    8dbc:	97fffaa8 	bl	785c <mpa_copy>
/home/pedro/devel/optee/optee_os/lib/libmpa/mpa_gcd.c:142
    8dc0:	f9404fa0 	ldr	x0, [x29,#152]
    8dc4:	97fffaf0 	bl	7984 <mpa_parity>
    8dc8:	34000980 	cbz	w0, 8ef8 <__mpa_egcd+0x1f8>
/home/pedro/devel/optee/optee_os/lib/libmpa/mpa_gcd.c:148
    8dcc:	9102a3a0 	add	x0, x29, #0xa8
    8dd0:	aa1303e1 	mov	x1, x19
    8dd4:	f90033a0 	str	x0, [x29,#96]
    8dd8:	940001b3 	bl	94a4 <mpa_alloc_static_temp_var>
/home/pedro/devel/optee/optee_os/lib/libmpa/mpa_gcd.c:149
    8ddc:	f9404fa1 	ldr	x1, [x29,#152]
/home/pedro/devel/optee/optee_os/lib/libmpa/mpa_gcd.c:151
    8de0:	9101e3bc 	add	x28, x29, #0x78
/home/pedro/devel/optee/optee_os/lib/libmpa/mpa_gcd.c:149
    8de4:	f94057a0 	ldr	x0, [x29,#168]
/home/pedro/devel/optee/optee_os/lib/libmpa/mpa_gcd.c:153
    8de8:	910203bb 	add	x27, x29, #0x80
/home/pedro/devel/optee/optee_os/lib/libmpa/mpa_gcd.c:155
    8dec:	910223ba 	add	x26, x29, #0x88
/home/pedro/devel/optee/optee_os/lib/libmpa/mpa_gcd.c:157
    8df0:	910243b9 	add	x25, x29, #0x90
/home/pedro/devel/optee/optee_os/lib/libmpa/mpa_gcd.c:149
    8df4:	97fffa9a 	bl	785c <mpa_copy>
/home/pedro/devel/optee/optee_os/lib/libmpa/mpa_gcd.c:150
    8df8:	f94053a1 	ldr	x1, [x29,#160]
    8dfc:	aa1403e0 	mov	x0, x20
    8e00:	97fffa97 	bl	785c <mpa_copy>
/home/pedro/devel/optee/optee_os/lib/libmpa/mpa_gcd.c:151
    8e04:	aa1303e1 	mov	x1, x19
    8e08:	aa1c03e0 	mov	x0, x28
    8e0c:	940001a6 	bl	94a4 <mpa_alloc_static_temp_var>
/home/pedro/devel/optee/optee_os/lib/libmpa/mpa_gcd.c:152
    8e10:	f9403fa0 	ldr	x0, [x29,#120]
    8e14:	52800021 	mov	w1, #0x1                   	// #1
    8e18:	97fffcf0 	bl	81d8 <mpa_set_word>
/home/pedro/devel/optee/optee_os/lib/libmpa/mpa_gcd.c:153
    8e1c:	aa1303e1 	mov	x1, x19
    8e20:	aa1b03e0 	mov	x0, x27
    8e24:	940001a0 	bl	94a4 <mpa_alloc_static_temp_var>
/home/pedro/devel/optee/optee_os/lib/libmpa/mpa_gcd.c:154
    8e28:	f94043a0 	ldr	x0, [x29,#128]
    8e2c:	52800001 	mov	w1, #0x0                   	// #0
    8e30:	97fffcea 	bl	81d8 <mpa_set_word>
/home/pedro/devel/optee/optee_os/lib/libmpa/mpa_gcd.c:155
    8e34:	aa1303e1 	mov	x1, x19
    8e38:	aa1a03e0 	mov	x0, x26
    8e3c:	9400019a 	bl	94a4 <mpa_alloc_static_temp_var>
/home/pedro/devel/optee/optee_os/lib/libmpa/mpa_gcd.c:156
    8e40:	f94047a0 	ldr	x0, [x29,#136]
    8e44:	52800001 	mov	w1, #0x0                   	// #0
    8e48:	97fffce4 	bl	81d8 <mpa_set_word>
/home/pedro/devel/optee/optee_os/lib/libmpa/mpa_gcd.c:157
    8e4c:	aa1303e1 	mov	x1, x19
    8e50:	aa1903e0 	mov	x0, x25
    8e54:	94000194 	bl	94a4 <mpa_alloc_static_temp_var>
/home/pedro/devel/optee/optee_os/lib/libmpa/mpa_gcd.c:158
    8e58:	f9404ba0 	ldr	x0, [x29,#144]
    8e5c:	52800021 	mov	w1, #0x1                   	// #1
    8e60:	97fffcde 	bl	81d8 <mpa_set_word>
/home/pedro/devel/optee/optee_os/lib/libmpa/mpa_gcd.c:160
    8e64:	f94057a0 	ldr	x0, [x29,#168]
    8e68:	b9400400 	ldr	w0, [x0,#4]
    8e6c:	35000800 	cbnz	w0, 8f6c <__mpa_egcd+0x26c>
/home/pedro/devel/optee/optee_os/lib/libmpa/mpa_gcd.c:193
    8e70:	b4000096 	cbz	x22, 8e80 <__mpa_egcd+0x180>
/home/pedro/devel/optee/optee_os/lib/libmpa/mpa_gcd.c:194
    8e74:	f94047a1 	ldr	x1, [x29,#136]
    8e78:	aa1603e0 	mov	x0, x22
    8e7c:	97fffa78 	bl	785c <mpa_copy>
/home/pedro/devel/optee/optee_os/lib/libmpa/mpa_gcd.c:195
    8e80:	b4000095 	cbz	x21, 8e90 <__mpa_egcd+0x190>
/home/pedro/devel/optee/optee_os/lib/libmpa/mpa_gcd.c:196
    8e84:	f9404ba1 	ldr	x1, [x29,#144]
    8e88:	aa1503e0 	mov	x0, x21
    8e8c:	97fffa74 	bl	785c <mpa_copy>
/home/pedro/devel/optee/optee_os/lib/libmpa/mpa_gcd.c:197
    8e90:	2a1703e2 	mov	w2, w23
    8e94:	aa1403e1 	mov	x1, x20
    8e98:	aa1403e0 	mov	x0, x20
    8e9c:	94000316 	bl	9af4 <mpa_shift_left>
/home/pedro/devel/optee/optee_os/lib/libmpa/mpa_gcd.c:199
    8ea0:	aa1303e1 	mov	x1, x19
    8ea4:	aa1c03e0 	mov	x0, x28
    8ea8:	94000183 	bl	94b4 <mpa_free_static_temp_var>
/home/pedro/devel/optee/optee_os/lib/libmpa/mpa_gcd.c:200
    8eac:	aa1303e1 	mov	x1, x19
    8eb0:	aa1b03e0 	mov	x0, x27
    8eb4:	94000180 	bl	94b4 <mpa_free_static_temp_var>
/home/pedro/devel/optee/optee_os/lib/libmpa/mpa_gcd.c:201
    8eb8:	aa1303e1 	mov	x1, x19
    8ebc:	aa1a03e0 	mov	x0, x26
    8ec0:	9400017d 	bl	94b4 <mpa_free_static_temp_var>
/home/pedro/devel/optee/optee_os/lib/libmpa/mpa_gcd.c:202
    8ec4:	aa1303e1 	mov	x1, x19
    8ec8:	aa1903e0 	mov	x0, x25
    8ecc:	9400017a 	bl	94b4 <mpa_free_static_temp_var>
/home/pedro/devel/optee/optee_os/lib/libmpa/mpa_gcd.c:203
    8ed0:	aa1303e1 	mov	x1, x19
    8ed4:	aa1803e0 	mov	x0, x24
    8ed8:	94000177 	bl	94b4 <mpa_free_static_temp_var>
/home/pedro/devel/optee/optee_os/lib/libmpa/mpa_gcd.c:204
    8edc:	f94037a0 	ldr	x0, [x29,#104]
    8ee0:	aa1303e1 	mov	x1, x19
    8ee4:	94000174 	bl	94b4 <mpa_free_static_temp_var>
/home/pedro/devel/optee/optee_os/lib/libmpa/mpa_gcd.c:205
    8ee8:	f94033a0 	ldr	x0, [x29,#96]
    8eec:	aa1303e1 	mov	x1, x19
    8ef0:	94000171 	bl	94b4 <mpa_free_static_temp_var>
    8ef4:	17ffff9b 	b	8d60 <__mpa_egcd+0x60>
/home/pedro/devel/optee/optee_os/lib/libmpa/mpa_gcd.c:142
    8ef8:	f94053a0 	ldr	x0, [x29,#160]
    8efc:	97fffaa2 	bl	7984 <mpa_parity>
    8f00:	35fff660 	cbnz	w0, 8dcc <__mpa_egcd+0xcc>
/home/pedro/devel/optee/optee_os/lib/libmpa/mpa_gcd.c:144
    8f04:	f9404fa0 	ldr	x0, [x29,#152]
/home/pedro/devel/optee/optee_os/lib/libmpa/mpa_gcd.c:143
    8f08:	110006f7 	add	w23, w23, #0x1
/home/pedro/devel/optee/optee_os/lib/libmpa/mpa_gcd.c:144
    8f0c:	97ffff02 	bl	8b14 <__mpa_divby2>
/home/pedro/devel/optee/optee_os/lib/libmpa/mpa_gcd.c:145
    8f10:	f94053a0 	ldr	x0, [x29,#160]
    8f14:	97ffff00 	bl	8b14 <__mpa_divby2>
    8f18:	17ffffaa 	b	8dc0 <__mpa_egcd+0xc0>
/home/pedro/devel/optee/optee_os/lib/libmpa/mpa_gcd.c:162
    8f1c:	f94057a0 	ldr	x0, [x29,#168]
    8f20:	97fffefd 	bl	8b14 <__mpa_divby2>
/home/pedro/devel/optee/optee_os/lib/libmpa/mpa_gcd.c:163
    8f24:	f9403fa0 	ldr	x0, [x29,#120]
    8f28:	97fffa97 	bl	7984 <mpa_parity>
    8f2c:	7100041f 	cmp	w0, #0x1
    8f30:	54000521 	b.ne	8fd4 <__mpa_egcd+0x2d4>
/home/pedro/devel/optee/optee_os/lib/libmpa/mpa_gcd.c:164
    8f34:	f9403fa1 	ldr	x1, [x29,#120]
    8f38:	aa1303e3 	mov	x3, x19
    8f3c:	f94053a2 	ldr	x2, [x29,#160]
    8f40:	aa0103e0 	mov	x0, x1
    8f44:	9400046a 	bl	a0ec <mpa_add>
/home/pedro/devel/optee/optee_os/lib/libmpa/mpa_gcd.c:165
    8f48:	f94043a1 	ldr	x1, [x29,#128]
    8f4c:	aa1303e3 	mov	x3, x19
    8f50:	f9404fa2 	ldr	x2, [x29,#152]
    8f54:	aa0103e0 	mov	x0, x1
    8f58:	940004ca 	bl	a280 <mpa_sub>
/home/pedro/devel/optee/optee_os/lib/libmpa/mpa_gcd.c:167
    8f5c:	f9403fa0 	ldr	x0, [x29,#120]
    8f60:	97fffeed 	bl	8b14 <__mpa_divby2>
/home/pedro/devel/optee/optee_os/lib/libmpa/mpa_gcd.c:168
    8f64:	f94043a0 	ldr	x0, [x29,#128]
    8f68:	97fffeeb 	bl	8b14 <__mpa_divby2>
/home/pedro/devel/optee/optee_os/lib/libmpa/mpa_gcd.c:161
    8f6c:	f94057a0 	ldr	x0, [x29,#168]
    8f70:	97fffa85 	bl	7984 <mpa_parity>
    8f74:	34fffd40 	cbz	w0, 8f1c <__mpa_egcd+0x21c>
/home/pedro/devel/optee/optee_os/lib/libmpa/mpa_gcd.c:171
    8f78:	aa1403e0 	mov	x0, x20
    8f7c:	97fffa82 	bl	7984 <mpa_parity>
    8f80:	34000340 	cbz	w0, 8fe8 <__mpa_egcd+0x2e8>
/home/pedro/devel/optee/optee_os/lib/libmpa/mpa_gcd.c:181
    8f84:	f94057a0 	ldr	x0, [x29,#168]
    8f88:	aa1403e1 	mov	x1, x20
    8f8c:	94000605 	bl	a7a0 <mpa_cmp>
/home/pedro/devel/optee/optee_os/lib/libmpa/mpa_gcd.c:182
    8f90:	aa1303e3 	mov	x3, x19
/home/pedro/devel/optee/optee_os/lib/libmpa/mpa_gcd.c:181
    8f94:	37f805c0 	tbnz	w0, #31, 904c <__mpa_egcd+0x34c>
/home/pedro/devel/optee/optee_os/lib/libmpa/mpa_gcd.c:182
    8f98:	f94057a1 	ldr	x1, [x29,#168]
    8f9c:	aa1403e2 	mov	x2, x20
    8fa0:	aa0103e0 	mov	x0, x1
    8fa4:	940004b7 	bl	a280 <mpa_sub>
/home/pedro/devel/optee/optee_os/lib/libmpa/mpa_gcd.c:183
    8fa8:	f9403fa1 	ldr	x1, [x29,#120]
    8fac:	aa1303e3 	mov	x3, x19
    8fb0:	f94047a2 	ldr	x2, [x29,#136]
    8fb4:	aa0103e0 	mov	x0, x1
    8fb8:	940004b2 	bl	a280 <mpa_sub>
/home/pedro/devel/optee/optee_os/lib/libmpa/mpa_gcd.c:184
    8fbc:	f94043a1 	ldr	x1, [x29,#128]
    8fc0:	aa1303e3 	mov	x3, x19
    8fc4:	f9404ba2 	ldr	x2, [x29,#144]
/home/pedro/devel/optee/optee_os/lib/libmpa/mpa_gcd.c:188
    8fc8:	aa0103e0 	mov	x0, x1
    8fcc:	940004ad 	bl	a280 <mpa_sub>
    8fd0:	17ffffa5 	b	8e64 <__mpa_egcd+0x164>
/home/pedro/devel/optee/optee_os/lib/libmpa/mpa_gcd.c:163
    8fd4:	f94043a0 	ldr	x0, [x29,#128]
    8fd8:	97fffa6b 	bl	7984 <mpa_parity>
    8fdc:	7100041f 	cmp	w0, #0x1
    8fe0:	54fffbe1 	b.ne	8f5c <__mpa_egcd+0x25c>
    8fe4:	17ffffd4 	b	8f34 <__mpa_egcd+0x234>
/home/pedro/devel/optee/optee_os/lib/libmpa/mpa_gcd.c:172
    8fe8:	aa1403e0 	mov	x0, x20
    8fec:	97fffeca 	bl	8b14 <__mpa_divby2>
/home/pedro/devel/optee/optee_os/lib/libmpa/mpa_gcd.c:173
    8ff0:	f94047a0 	ldr	x0, [x29,#136]
    8ff4:	97fffa64 	bl	7984 <mpa_parity>
    8ff8:	7100041f 	cmp	w0, #0x1
    8ffc:	540001e1 	b.ne	9038 <__mpa_egcd+0x338>
/home/pedro/devel/optee/optee_os/lib/libmpa/mpa_gcd.c:174
    9000:	f94047a1 	ldr	x1, [x29,#136]
    9004:	aa1303e3 	mov	x3, x19
    9008:	f94053a2 	ldr	x2, [x29,#160]
    900c:	aa0103e0 	mov	x0, x1
    9010:	94000437 	bl	a0ec <mpa_add>
/home/pedro/devel/optee/optee_os/lib/libmpa/mpa_gcd.c:175
    9014:	a9490ba1 	ldp	x1, x2, [x29,#144]
    9018:	aa1303e3 	mov	x3, x19
    901c:	aa0103e0 	mov	x0, x1
    9020:	94000498 	bl	a280 <mpa_sub>
/home/pedro/devel/optee/optee_os/lib/libmpa/mpa_gcd.c:177
    9024:	f94047a0 	ldr	x0, [x29,#136]
    9028:	97fffebb 	bl	8b14 <__mpa_divby2>
/home/pedro/devel/optee/optee_os/lib/libmpa/mpa_gcd.c:178
    902c:	f9404ba0 	ldr	x0, [x29,#144]
    9030:	97fffeb9 	bl	8b14 <__mpa_divby2>
    9034:	17ffffd1 	b	8f78 <__mpa_egcd+0x278>
/home/pedro/devel/optee/optee_os/lib/libmpa/mpa_gcd.c:173
    9038:	f9404ba0 	ldr	x0, [x29,#144]
    903c:	97fffa52 	bl	7984 <mpa_parity>
    9040:	7100041f 	cmp	w0, #0x1
    9044:	54ffff01 	b.ne	9024 <__mpa_egcd+0x324>
    9048:	17ffffee 	b	9000 <__mpa_egcd+0x300>
/home/pedro/devel/optee/optee_os/lib/libmpa/mpa_gcd.c:186
    904c:	f94057a2 	ldr	x2, [x29,#168]
    9050:	aa1403e1 	mov	x1, x20
    9054:	aa1403e0 	mov	x0, x20
    9058:	9400048a 	bl	a280 <mpa_sub>
/home/pedro/devel/optee/optee_os/lib/libmpa/mpa_gcd.c:187
    905c:	f94047a1 	ldr	x1, [x29,#136]
    9060:	aa1303e3 	mov	x3, x19
    9064:	f9403fa2 	ldr	x2, [x29,#120]
    9068:	aa0103e0 	mov	x0, x1
    906c:	94000485 	bl	a280 <mpa_sub>
/home/pedro/devel/optee/optee_os/lib/libmpa/mpa_gcd.c:188
    9070:	aa1303e3 	mov	x3, x19
    9074:	f94043a2 	ldr	x2, [x29,#128]
    9078:	f9404ba1 	ldr	x1, [x29,#144]
    907c:	17ffffd3 	b	8fc8 <__mpa_egcd+0x2c8>

0000000000009080 <mpa_gcd>:
mpa_gcd():
/home/pedro/devel/optee/optee_os/lib/libmpa/mpa_gcd.c:276
    9080:	a9bc7bfd 	stp	x29, x30, [sp,#-64]!
    9084:	910003fd 	mov	x29, sp
    9088:	a90153f3 	stp	x19, x20, [sp,#16]
    908c:	aa0203f3 	mov	x19, x2
    9090:	a9025bf5 	stp	x21, x22, [sp,#32]
    9094:	aa0003f6 	mov	x22, x0
/home/pedro/devel/optee/optee_os/lib/libmpa/mpa_gcd.c:282
    9098:	b9400420 	ldr	w0, [x1,#4]
/home/pedro/devel/optee/optee_os/lib/libmpa/mpa_gcd.c:276
    909c:	aa0103f4 	mov	x20, x1
/home/pedro/devel/optee/optee_os/lib/libmpa/mpa_gcd.c:283
    90a0:	b9400661 	ldr	w1, [x19,#4]
/home/pedro/devel/optee/optee_os/lib/libmpa/mpa_gcd.c:282
    90a4:	52800022 	mov	w2, #0x1                   	// #1
    90a8:	7100001f 	cmp	w0, #0x0
/home/pedro/devel/optee/optee_os/lib/libmpa/mpa_gcd.c:276
    90ac:	a90363f7 	stp	x23, x24, [sp,#48]
    90b0:	aa0303f8 	mov	x24, x3
/home/pedro/devel/optee/optee_os/lib/libmpa/mpa_gcd.c:282
    90b4:	5a82a457 	cneg	w23, w2, lt
/home/pedro/devel/optee/optee_os/lib/libmpa/mpa_gcd.c:283
    90b8:	36f806e1 	tbz	w1, #31, 9194 <mpa_gcd+0x114>
    90bc:	12800015 	mov	w21, #0xffffffff            	// #-1
/home/pedro/devel/optee/optee_os/lib/libmpa/mpa_gcd.c:284
    90c0:	36f800a0 	tbz	w0, #31, 90d4 <mpa_gcd+0x54>
/home/pedro/devel/optee/optee_os/lib/libmpa/mpa_gcd.c:284 (discriminator 1)
    90c4:	4b0003e0 	neg	w0, w0
    90c8:	b9000680 	str	w0, [x20,#4]
/home/pedro/devel/optee/optee_os/lib/libmpa/mpa_gcd.c:285 (discriminator 1)
    90cc:	b9400661 	ldr	w1, [x19,#4]
    90d0:	36f80061 	tbz	w1, #31, 90dc <mpa_gcd+0x5c>
    90d4:	4b0103e1 	neg	w1, w1
    90d8:	b9000661 	str	w1, [x19,#4]
/home/pedro/devel/optee/optee_os/lib/libmpa/mpa_gcd.c:287
    90dc:	aa1303e1 	mov	x1, x19
    90e0:	aa1403e0 	mov	x0, x20
    90e4:	940005af 	bl	a7a0 <mpa_cmp>
/home/pedro/devel/optee/optee_os/lib/libmpa/mpa_gcd.c:288
    90e8:	7100001f 	cmp	w0, #0x0
    90ec:	54000321 	b.ne	9150 <mpa_gcd+0xd0>
/home/pedro/devel/optee/optee_os/lib/libmpa/mpa_gcd.c:289
    90f0:	aa1403e1 	mov	x1, x20
__mpa_gcd():
/home/pedro/devel/optee/optee_os/lib/libmpa/mpa_gcd.c:224
    90f4:	aa1603e0 	mov	x0, x22
    90f8:	97fff9d9 	bl	785c <mpa_copy>
mpa_gcd():
/home/pedro/devel/optee/optee_os/lib/libmpa/mpa_gcd.c:300
    90fc:	b9400680 	ldr	w0, [x20,#4]
    9100:	52800021 	mov	w1, #0x1                   	// #1
    9104:	7100001f 	cmp	w0, #0x0
    9108:	5a81a421 	cneg	w1, w1, lt
    910c:	6b0102ff 	cmp	w23, w1
    9110:	54000060 	b.eq	911c <mpa_gcd+0x9c>
/home/pedro/devel/optee/optee_os/lib/libmpa/mpa_gcd.c:300 (discriminator 5)
    9114:	4b0003e0 	neg	w0, w0
    9118:	b9000680 	str	w0, [x20,#4]
/home/pedro/devel/optee/optee_os/lib/libmpa/mpa_gcd.c:301
    911c:	b9400660 	ldr	w0, [x19,#4]
    9120:	52800021 	mov	w1, #0x1                   	// #1
    9124:	7100001f 	cmp	w0, #0x0
    9128:	5a81a421 	cneg	w1, w1, lt
    912c:	6b15003f 	cmp	w1, w21
    9130:	54000060 	b.eq	913c <mpa_gcd+0xbc>
/home/pedro/devel/optee/optee_os/lib/libmpa/mpa_gcd.c:301 (discriminator 5)
    9134:	4b0003e0 	neg	w0, w0
    9138:	b9000660 	str	w0, [x19,#4]
/home/pedro/devel/optee/optee_os/lib/libmpa/mpa_gcd.c:302
    913c:	a94153f3 	ldp	x19, x20, [sp,#16]
    9140:	a9425bf5 	ldp	x21, x22, [sp,#32]
    9144:	a94363f7 	ldp	x23, x24, [sp,#48]
    9148:	a8c47bfd 	ldp	x29, x30, [sp],#64
    914c:	d65f03c0 	ret
/home/pedro/devel/optee/optee_os/lib/libmpa/mpa_gcd.c:292
    9150:	5400016a 	b.ge	917c <mpa_gcd+0xfc>
__mpa_gcd():
/home/pedro/devel/optee/optee_os/lib/libmpa/mpa_gcd.c:223
    9154:	b9400680 	ldr	w0, [x20,#4]
    9158:	35000060 	cbnz	w0, 9164 <mpa_gcd+0xe4>
/home/pedro/devel/optee/optee_os/lib/libmpa/mpa_gcd.c:224
    915c:	aa1303e1 	mov	x1, x19
    9160:	17ffffe5 	b	90f4 <mpa_gcd+0x74>
    9164:	aa1803e3 	mov	x3, x24
    9168:	aa1403e2 	mov	x2, x20
    916c:	aa1303e1 	mov	x1, x19
    9170:	aa1603e0 	mov	x0, x22
    9174:	97fffe88 	bl	8b94 <__mpa_gcd.part.0>
    9178:	17ffffe1 	b	90fc <mpa_gcd+0x7c>
/home/pedro/devel/optee/optee_os/lib/libmpa/mpa_gcd.c:223
    917c:	b9400660 	ldr	w0, [x19,#4]
    9180:	34fffb80 	cbz	w0, 90f0 <mpa_gcd+0x70>
    9184:	aa1803e3 	mov	x3, x24
    9188:	aa1303e2 	mov	x2, x19
    918c:	aa1403e1 	mov	x1, x20
    9190:	17fffff8 	b	9170 <mpa_gcd+0xf0>
mpa_gcd():
/home/pedro/devel/optee/optee_os/lib/libmpa/mpa_gcd.c:283
    9194:	2a0203f5 	mov	w21, w2
/home/pedro/devel/optee/optee_os/lib/libmpa/mpa_gcd.c:284
    9198:	36fffa20 	tbz	w0, #31, 90dc <mpa_gcd+0x5c>
    919c:	17ffffca 	b	90c4 <mpa_gcd+0x44>

00000000000091a0 <mpa_extended_gcd>:
mpa_extended_gcd():
/home/pedro/devel/optee/optee_os/lib/libmpa/mpa_gcd.c:318
    91a0:	a9b97bfd 	stp	x29, x30, [sp,#-112]!
/home/pedro/devel/optee/optee_os/lib/libmpa/mpa_gcd.c:325
    91a4:	f100003f 	cmp	x1, #0x0
    91a8:	fa400840 	ccmp	x2, #0x0, #0x0, eq
/home/pedro/devel/optee/optee_os/lib/libmpa/mpa_gcd.c:318
    91ac:	910003fd 	mov	x29, sp
    91b0:	a90153f3 	stp	x19, x20, [sp,#16]
    91b4:	aa0303f3 	mov	x19, x3
    91b8:	a9025bf5 	stp	x21, x22, [sp,#32]
    91bc:	aa0403f4 	mov	x20, x4
    91c0:	a9046bf9 	stp	x25, x26, [sp,#64]
    91c4:	aa0003f6 	mov	x22, x0
    91c8:	a90363f7 	stp	x23, x24, [sp,#48]
    91cc:	aa0503f9 	mov	x25, x5
    91d0:	a90573fb 	stp	x27, x28, [sp,#80]
/home/pedro/devel/optee/optee_os/lib/libmpa/mpa_gcd.c:325
    91d4:	540001a1 	b.ne	9208 <mpa_extended_gcd+0x68>
/home/pedro/devel/optee/optee_os/lib/libmpa/mpa_gcd.c:326
    91d8:	b40000a0 	cbz	x0, 91ec <mpa_extended_gcd+0x4c>
/home/pedro/devel/optee/optee_os/lib/libmpa/mpa_gcd.c:327
    91dc:	aa0503e3 	mov	x3, x5
    91e0:	aa0403e2 	mov	x2, x4
    91e4:	aa1303e1 	mov	x1, x19
    91e8:	97ffffa6 	bl	9080 <mpa_gcd>
/home/pedro/devel/optee/optee_os/lib/libmpa/mpa_gcd.c:373
    91ec:	a94153f3 	ldp	x19, x20, [sp,#16]
    91f0:	a9425bf5 	ldp	x21, x22, [sp,#32]
    91f4:	a94363f7 	ldp	x23, x24, [sp,#48]
    91f8:	a9446bf9 	ldp	x25, x26, [sp,#64]
    91fc:	a94573fb 	ldp	x27, x28, [sp,#80]
    9200:	a8c77bfd 	ldp	x29, x30, [sp],#112
    9204:	d65f03c0 	ret
/home/pedro/devel/optee/optee_os/lib/libmpa/mpa_gcd.c:332
    9208:	b9400460 	ldr	w0, [x3,#4]
    920c:	aa0103f7 	mov	x23, x1
/home/pedro/devel/optee/optee_os/lib/libmpa/mpa_gcd.c:333
    9210:	b9400481 	ldr	w1, [x4,#4]
/home/pedro/devel/optee/optee_os/lib/libmpa/mpa_gcd.c:332
    9214:	52800035 	mov	w21, #0x1                   	// #1
    9218:	7100001f 	cmp	w0, #0x0
    921c:	aa0203f8 	mov	x24, x2
    9220:	5a95a6ba 	cneg	w26, w21, lt
/home/pedro/devel/optee/optee_os/lib/libmpa/mpa_gcd.c:333
    9224:	36f80b01 	tbz	w1, #31, 9384 <mpa_extended_gcd+0x1e4>
    9228:	12800015 	mov	w21, #0xffffffff            	// #-1
/home/pedro/devel/optee/optee_os/lib/libmpa/mpa_gcd.c:334
    922c:	36f800a0 	tbz	w0, #31, 9240 <mpa_extended_gcd+0xa0>
/home/pedro/devel/optee/optee_os/lib/libmpa/mpa_gcd.c:334 (discriminator 1)
    9230:	4b0003e0 	neg	w0, w0
    9234:	b9000660 	str	w0, [x19,#4]
/home/pedro/devel/optee/optee_os/lib/libmpa/mpa_gcd.c:335 (discriminator 1)
    9238:	b9400681 	ldr	w1, [x20,#4]
    923c:	36f80061 	tbz	w1, #31, 9248 <mpa_extended_gcd+0xa8>
    9240:	4b0103e1 	neg	w1, w1
    9244:	b9000681 	str	w1, [x20,#4]
/home/pedro/devel/optee/optee_os/lib/libmpa/mpa_gcd.c:337
    9248:	aa1403e1 	mov	x1, x20
    924c:	aa1303e0 	mov	x0, x19
    9250:	94000554 	bl	a7a0 <mpa_cmp>
    9254:	2a0003fc 	mov	w28, w0
/home/pedro/devel/optee/optee_os/lib/libmpa/mpa_gcd.c:338
    9258:	35000540 	cbnz	w0, 9300 <mpa_extended_gcd+0x160>
/home/pedro/devel/optee/optee_os/lib/libmpa/mpa_gcd.c:339
    925c:	b4000096 	cbz	x22, 926c <mpa_extended_gcd+0xcc>
/home/pedro/devel/optee/optee_os/lib/libmpa/mpa_gcd.c:340
    9260:	aa1303e1 	mov	x1, x19
    9264:	aa1603e0 	mov	x0, x22
    9268:	97fff97d 	bl	785c <mpa_copy>
/home/pedro/devel/optee/optee_os/lib/libmpa/mpa_gcd.c:341
    926c:	b4000097 	cbz	x23, 927c <mpa_extended_gcd+0xdc>
/home/pedro/devel/optee/optee_os/lib/libmpa/mpa_gcd.c:342
    9270:	52800021 	mov	w1, #0x1                   	// #1
    9274:	aa1703e0 	mov	x0, x23
    9278:	97fffbd8 	bl	81d8 <mpa_set_word>
/home/pedro/devel/optee/optee_os/lib/libmpa/mpa_gcd.c:343
    927c:	b4000098 	cbz	x24, 928c <mpa_extended_gcd+0xec>
/home/pedro/devel/optee/optee_os/lib/libmpa/mpa_gcd.c:344
    9280:	52800001 	mov	w1, #0x0                   	// #0
    9284:	aa1803e0 	mov	x0, x24
    9288:	97fffbd4 	bl	81d8 <mpa_set_word>
/home/pedro/devel/optee/optee_os/lib/libmpa/mpa_gcd.c:366
    928c:	b9400660 	ldr	w0, [x19,#4]
    9290:	52800021 	mov	w1, #0x1                   	// #1
    9294:	7100001f 	cmp	w0, #0x0
    9298:	5a81a421 	cneg	w1, w1, lt
    929c:	6b01035f 	cmp	w26, w1
    92a0:	54000060 	b.eq	92ac <mpa_extended_gcd+0x10c>
/home/pedro/devel/optee/optee_os/lib/libmpa/mpa_gcd.c:366 (discriminator 5)
    92a4:	4b0003e0 	neg	w0, w0
    92a8:	b9000660 	str	w0, [x19,#4]
/home/pedro/devel/optee/optee_os/lib/libmpa/mpa_gcd.c:367
    92ac:	b9400680 	ldr	w0, [x20,#4]
    92b0:	52800021 	mov	w1, #0x1                   	// #1
    92b4:	7100001f 	cmp	w0, #0x0
    92b8:	5a81a421 	cneg	w1, w1, lt
    92bc:	6b15003f 	cmp	w1, w21
    92c0:	54000060 	b.eq	92cc <mpa_extended_gcd+0x12c>
/home/pedro/devel/optee/optee_os/lib/libmpa/mpa_gcd.c:367 (discriminator 5)
    92c4:	4b0003e0 	neg	w0, w0
    92c8:	b9000680 	str	w0, [x20,#4]
/home/pedro/devel/optee/optee_os/lib/libmpa/mpa_gcd.c:369
    92cc:	f10002ff 	cmp	x23, #0x0
    92d0:	3a411b40 	ccmn	w26, #0x1, #0x0, ne
    92d4:	54000081 	b.ne	92e4 <mpa_extended_gcd+0x144>
/home/pedro/devel/optee/optee_os/lib/libmpa/mpa_gcd.c:370
    92d8:	b94006e0 	ldr	w0, [x23,#4]
    92dc:	4b0003e0 	neg	w0, w0
    92e0:	b90006e0 	str	w0, [x23,#4]
/home/pedro/devel/optee/optee_os/lib/libmpa/mpa_gcd.c:371
    92e4:	f100031f 	cmp	x24, #0x0
    92e8:	3a411aa0 	ccmn	w21, #0x1, #0x0, ne
    92ec:	54fff801 	b.ne	91ec <mpa_extended_gcd+0x4c>
/home/pedro/devel/optee/optee_os/lib/libmpa/mpa_gcd.c:372
    92f0:	b9400700 	ldr	w0, [x24,#4]
    92f4:	4b0003e0 	neg	w0, w0
    92f8:	b9000700 	str	w0, [x24,#4]
    92fc:	17ffffbc 	b	91ec <mpa_extended_gcd+0x4c>
/home/pedro/devel/optee/optee_os/lib/libmpa/mpa_gcd.c:348
    9300:	f10002df 	cmp	x22, #0x0
    9304:	fa561284 	ccmp	x20, x22, #0x4, ne
    9308:	fa561264 	ccmp	x19, x22, #0x4, ne
    930c:	54000361 	b.ne	9378 <mpa_extended_gcd+0x1d8>
    9310:	5280003b 	mov	w27, #0x1                   	// #1
/home/pedro/devel/optee/optee_os/lib/libmpa/mpa_gcd.c:350
    9314:	aa1903e1 	mov	x1, x25
    9318:	9101a3a0 	add	x0, x29, #0x68
    931c:	94000062 	bl	94a4 <mpa_alloc_static_temp_var>
/home/pedro/devel/optee/optee_os/lib/libmpa/mpa_gcd.c:355
    9320:	aa1903e5 	mov	x5, x25
/home/pedro/devel/optee/optee_os/lib/libmpa/mpa_gcd.c:354
    9324:	36f8021c 	tbz	w28, #31, 9364 <mpa_extended_gcd+0x1c4>
/home/pedro/devel/optee/optee_os/lib/libmpa/mpa_gcd.c:355
    9328:	aa1303e4 	mov	x4, x19
    932c:	aa1403e3 	mov	x3, x20
    9330:	aa1703e2 	mov	x2, x23
    9334:	aa1803e1 	mov	x1, x24
/home/pedro/devel/optee/optee_os/lib/libmpa/mpa_gcd.c:357
    9338:	f94037a0 	ldr	x0, [x29,#104]
    933c:	97fffe71 	bl	8d00 <__mpa_egcd>
/home/pedro/devel/optee/optee_os/lib/libmpa/mpa_gcd.c:359
    9340:	b4000096 	cbz	x22, 9350 <mpa_extended_gcd+0x1b0>
/home/pedro/devel/optee/optee_os/lib/libmpa/mpa_gcd.c:360
    9344:	f94037a1 	ldr	x1, [x29,#104]
    9348:	aa1603e0 	mov	x0, x22
    934c:	97fff944 	bl	785c <mpa_copy>
/home/pedro/devel/optee/optee_os/lib/libmpa/mpa_gcd.c:361
    9350:	34fff9fb 	cbz	w27, 928c <mpa_extended_gcd+0xec>
/home/pedro/devel/optee/optee_os/lib/libmpa/mpa_gcd.c:362
    9354:	aa1903e1 	mov	x1, x25
    9358:	9101a3a0 	add	x0, x29, #0x68
    935c:	94000056 	bl	94b4 <mpa_free_static_temp_var>
    9360:	17ffffcb 	b	928c <mpa_extended_gcd+0xec>
/home/pedro/devel/optee/optee_os/lib/libmpa/mpa_gcd.c:357
    9364:	aa1403e4 	mov	x4, x20
    9368:	aa1303e3 	mov	x3, x19
    936c:	aa1803e2 	mov	x2, x24
    9370:	aa1703e1 	mov	x1, x23
    9374:	17fffff1 	b	9338 <mpa_extended_gcd+0x198>
/home/pedro/devel/optee/optee_os/lib/libmpa/mpa_gcd.c:348
    9378:	5280001b 	mov	w27, #0x0                   	// #0
/home/pedro/devel/optee/optee_os/lib/libmpa/mpa_gcd.c:352
    937c:	f90037b6 	str	x22, [x29,#104]
    9380:	17ffffe8 	b	9320 <mpa_extended_gcd+0x180>
/home/pedro/devel/optee/optee_os/lib/libmpa/mpa_gcd.c:334
    9384:	36fff620 	tbz	w0, #31, 9248 <mpa_extended_gcd+0xa8>
    9388:	17ffffaa 	b	9230 <mpa_extended_gcd+0x90>

000000000000938c <mpa_init_scratch_mem_sync>:
mpa_init_scratch_mem_sync():
/home/pedro/devel/optee/optee_os/lib/libmpa/mpa_mem_static.c:42
    938c:	531f7842 	lsl	w2, w2, #1
/home/pedro/devel/optee/optee_os/lib/libmpa/mpa_mem_static.c:41
    9390:	b900081f 	str	wzr, [x0,#8]
/home/pedro/devel/optee/optee_os/lib/libmpa/mpa_mem_static.c:42
    9394:	29000801 	stp	w1, w2, [x0]
/home/pedro/devel/optee/optee_os/lib/libmpa/mpa_mem_static.c:44
    9398:	a9011003 	stp	x3, x4, [x0,#16]
/home/pedro/devel/optee/optee_os/lib/libmpa/mpa_mem_static.c:45
    939c:	f9001005 	str	x5, [x0,#32]
    93a0:	d65f03c0 	ret

00000000000093a4 <mpa_init_scratch_mem>:
/home/pedro/devel/optee/optee_os/lib/libmpa/mpa_mem_static.c:42
    93a4:	531f7842 	lsl	w2, w2, #1
/home/pedro/devel/optee/optee_os/lib/libmpa/mpa_mem_static.c:41
    93a8:	b900081f 	str	wzr, [x0,#8]
/home/pedro/devel/optee/optee_os/lib/libmpa/mpa_mem_static.c:42
    93ac:	29000801 	stp	w1, w2, [x0]
/home/pedro/devel/optee/optee_os/lib/libmpa/mpa_mem_static.c:44
    93b0:	a9017c1f 	stp	xzr, xzr, [x0,#16]
/home/pedro/devel/optee/optee_os/lib/libmpa/mpa_mem_static.c:45
    93b4:	f900101f 	str	xzr, [x0,#32]
    93b8:	d65f03c0 	ret

00000000000093bc <mpa_alloc_static_temp_var_size>:
mpa_alloc_static_temp_var_size():
/home/pedro/devel/optee/optee_os/lib/libmpa/mpa_mem_static.c:90
    93bc:	a9bd7bfd 	stp	x29, x30, [sp,#-48]!
    93c0:	910003fd 	mov	x29, sp
    93c4:	f90013f5 	str	x21, [sp,#32]
    93c8:	aa0103f5 	mov	x21, x1
/home/pedro/devel/optee/optee_os/lib/libmpa/mpa_mem_static.c:96
    93cc:	f9400841 	ldr	x1, [x2,#16]
/home/pedro/devel/optee/optee_os/lib/libmpa/mpa_mem_static.c:90
    93d0:	a90153f3 	stp	x19, x20, [sp,#16]
    93d4:	2a0003f4 	mov	w20, w0
    93d8:	aa0203f3 	mov	x19, x2
/home/pedro/devel/optee/optee_os/lib/libmpa/mpa_mem_static.c:96
    93dc:	b4000061 	cbz	x1, 93e8 <mpa_alloc_static_temp_var_size+0x2c>
/home/pedro/devel/optee/optee_os/lib/libmpa/mpa_mem_static.c:97
    93e0:	f9401040 	ldr	x0, [x2,#32]
    93e4:	d63f0020 	blr	x1
/home/pedro/devel/optee/optee_os/lib/libmpa/mpa_mem_static.c:99
    93e8:	b9400a63 	ldr	w3, [x19,#8]
    93ec:	34000463 	cbz	w3, 9478 <mpa_alloc_static_temp_var_size+0xbc>
/home/pedro/devel/optee/optee_os/lib/libmpa/mpa_mem_static.c:104
    93f0:	2a0303e0 	mov	w0, w3
    93f4:	8b000265 	add	x5, x19, x0
/home/pedro/devel/optee/optee_os/lib/libmpa/mpa_mem_static.c:105
    93f8:	b8606a62 	ldr	w2, [x19,x0]
    93fc:	0b020062 	add	w2, w3, w2
/home/pedro/devel/optee/optee_os/lib/libmpa/mpa_mem_static.c:108
    9400:	11000c42 	add	w2, w2, #0x3
/home/pedro/devel/optee/optee_os/lib/libmpa/mpa_mem_static.c:109
    9404:	b9400260 	ldr	w0, [x19]
/home/pedro/devel/optee/optee_os/lib/libmpa/mpa_mem_static.c:108
    9408:	121e7442 	and	w2, w2, #0xfffffffc
/home/pedro/devel/optee/optee_os/lib/libmpa/mpa_mem_static.c:109
    940c:	6b00005f 	cmp	w2, w0
    9410:	540003a8 	b.hi	9484 <mpa_alloc_static_temp_var_size+0xc8>
/home/pedro/devel/optee/optee_os/lib/libmpa/mpa_mem_static.c:113
    9414:	11007e81 	add	w1, w20, #0x1f
    9418:	52800414 	mov	w20, #0x20                  	// #32
/home/pedro/devel/optee/optee_os/lib/libmpa/mpa_mem_static.c:115
    941c:	2a0203e6 	mov	w6, w2
/home/pedro/devel/optee/optee_os/lib/libmpa/mpa_mem_static.c:113
    9420:	1ad40c21 	sdiv	w1, w1, w20
    9424:	11000821 	add	w1, w1, #0x2
/home/pedro/devel/optee/optee_os/lib/libmpa/mpa_mem_static.c:112
    9428:	937e7c24 	sbfiz	x4, x1, #2, #32
/home/pedro/devel/optee/optee_os/lib/libmpa/mpa_mem_static.c:114
    942c:	91003084 	add	x4, x4, #0xc
/home/pedro/devel/optee/optee_os/lib/libmpa/mpa_mem_static.c:115
    9430:	8b060087 	add	x7, x4, x6
    9434:	eb2040ff 	cmp	x7, w0, uxtw
    9438:	54000268 	b.hi	9484 <mpa_alloc_static_temp_var_size+0xc8>
/home/pedro/devel/optee/optee_os/lib/libmpa/mpa_mem_static.c:118
    943c:	8b060260 	add	x0, x19, x6
/home/pedro/devel/optee/optee_os/lib/libmpa/mpa_mem_static.c:119
    9440:	b8266a64 	str	w4, [x19,x6]
/home/pedro/devel/optee/optee_os/lib/libmpa/mpa_mem_static.c:120
    9444:	b9000403 	str	w3, [x0,#4]
/home/pedro/devel/optee/optee_os/lib/libmpa/mpa_mem_static.c:121
    9448:	b4000045 	cbz	x5, 9450 <mpa_alloc_static_temp_var_size+0x94>
/home/pedro/devel/optee/optee_os/lib/libmpa/mpa_mem_static.c:122
    944c:	b90008a2 	str	w2, [x5,#8]
/home/pedro/devel/optee/optee_os/lib/libmpa/mpa_mem_static.c:123
    9450:	b900081f 	str	wzr, [x0,#8]
/home/pedro/devel/optee/optee_os/lib/libmpa/mpa_mem_static.c:126
    9454:	91003000 	add	x0, x0, #0xc
/home/pedro/devel/optee/optee_os/lib/libmpa/mpa_mem_static.c:124
    9458:	b9000a62 	str	w2, [x19,#8]
/home/pedro/devel/optee/optee_os/lib/libmpa/mpa_mem_static.c:126
    945c:	f90002a0 	str	x0, [x21]
/home/pedro/devel/optee/optee_os/lib/libmpa/mpa_mem_static.c:127
    9460:	9400057a 	bl	aa48 <mpa_init_static>
/home/pedro/devel/optee/optee_os/lib/libmpa/mpa_mem_static.c:128
    9464:	f94002a0 	ldr	x0, [x21]
/home/pedro/devel/optee/optee_os/lib/libmpa/mpa_mem_static.c:135
    9468:	a94153f3 	ldp	x19, x20, [sp,#16]
    946c:	f94013f5 	ldr	x21, [sp,#32]
    9470:	a8c37bfd 	ldp	x29, x30, [sp],#48
    9474:	d65f03c0 	ret
/home/pedro/devel/optee/optee_os/lib/libmpa/mpa_mem_static.c:94
    9478:	d2800005 	mov	x5, #0x0                   	// #0
/home/pedro/devel/optee/optee_os/lib/libmpa/mpa_mem_static.c:100
    947c:	52800502 	mov	w2, #0x28                  	// #40
    9480:	17ffffe0 	b	9400 <mpa_alloc_static_temp_var_size+0x44>
/home/pedro/devel/optee/optee_os/lib/libmpa/mpa_mem_static.c:132
    9484:	f9400e61 	ldr	x1, [x19,#24]
/home/pedro/devel/optee/optee_os/lib/libmpa/mpa_mem_static.c:134
    9488:	d2800000 	mov	x0, #0x0                   	// #0
/home/pedro/devel/optee/optee_os/lib/libmpa/mpa_mem_static.c:131
    948c:	f90002bf 	str	xzr, [x21]
/home/pedro/devel/optee/optee_os/lib/libmpa/mpa_mem_static.c:132
    9490:	b4fffec1 	cbz	x1, 9468 <mpa_alloc_static_temp_var_size+0xac>
/home/pedro/devel/optee/optee_os/lib/libmpa/mpa_mem_static.c:133
    9494:	f9401260 	ldr	x0, [x19,#32]
    9498:	d63f0020 	blr	x1
/home/pedro/devel/optee/optee_os/lib/libmpa/mpa_mem_static.c:134
    949c:	d2800000 	mov	x0, #0x0                   	// #0
    94a0:	17fffff2 	b	9468 <mpa_alloc_static_temp_var_size+0xac>

00000000000094a4 <mpa_alloc_static_temp_var>:
mpa_alloc_static_temp_var():
/home/pedro/devel/optee/optee_os/lib/libmpa/mpa_mem_static.c:140
    94a4:	aa0103e2 	mov	x2, x1
    94a8:	aa0003e1 	mov	x1, x0
    94ac:	b9400440 	ldr	w0, [x2,#4]
    94b0:	17ffffc3 	b	93bc <mpa_alloc_static_temp_var_size>

00000000000094b4 <mpa_free_static_temp_var>:
mpa_free_static_temp_var():
/home/pedro/devel/optee/optee_os/lib/libmpa/mpa_mem_static.c:155
    94b4:	b4000240 	cbz	x0, 94fc <mpa_free_static_temp_var+0x48>
/home/pedro/devel/optee/optee_os/lib/libmpa/mpa_mem_static.c:155 (discriminator 1)
    94b8:	f9400002 	ldr	x2, [x0]
    94bc:	b4000202 	cbz	x2, 94fc <mpa_free_static_temp_var+0x48>
/home/pedro/devel/optee/optee_os/lib/libmpa/mpa_mem_static.c:160
    94c0:	b85f8040 	ldur	w0, [x2,#-8]
    94c4:	34000080 	cbz	w0, 94d4 <mpa_free_static_temp_var+0x20>
/home/pedro/devel/optee/optee_os/lib/libmpa/mpa_mem_static.c:163
    94c8:	8b204023 	add	x3, x1, w0, uxtw
    94cc:	b85fc044 	ldur	w4, [x2,#-4]
    94d0:	b9000864 	str	w4, [x3,#8]
/home/pedro/devel/optee/optee_os/lib/libmpa/mpa_mem_static.c:167
    94d4:	b85fc042 	ldur	w2, [x2,#-4]
    94d8:	34000082 	cbz	w2, 94e8 <mpa_free_static_temp_var+0x34>
/home/pedro/devel/optee/optee_os/lib/libmpa/mpa_mem_static.c:170
    94dc:	8b224022 	add	x2, x1, w2, uxtw
    94e0:	b9000440 	str	w0, [x2,#4]
/home/pedro/devel/optee/optee_os/lib/libmpa/mpa_mem_static.c:171
    94e4:	b9400820 	ldr	w0, [x1,#8]
/home/pedro/devel/optee/optee_os/lib/libmpa/mpa_mem_static.c:175
    94e8:	f9400c22 	ldr	x2, [x1,#24]
/home/pedro/devel/optee/optee_os/lib/libmpa/mpa_mem_static.c:174
    94ec:	b9000820 	str	w0, [x1,#8]
/home/pedro/devel/optee/optee_os/lib/libmpa/mpa_mem_static.c:175
    94f0:	b4000062 	cbz	x2, 94fc <mpa_free_static_temp_var+0x48>
/home/pedro/devel/optee/optee_os/lib/libmpa/mpa_mem_static.c:176
    94f4:	f9401020 	ldr	x0, [x1,#32]
    94f8:	d61f0040 	br	x2
    94fc:	d65f03c0 	ret

0000000000009500 <__mpa_mul_add_word>:
__mpa_mul_add_word():
/home/pedro/devel/optee/optee_os/lib/libmpa/mpa_mul.c:55
    9500:	b9400064 	ldr	w4, [x3]
    9504:	9ba11000 	umaddl	x0, w0, w1, x4
/home/pedro/devel/optee/optee_os/lib/libmpa/mpa_mul.c:56
    9508:	b9000040 	str	w0, [x2]
/home/pedro/devel/optee/optee_os/lib/libmpa/mpa_mul.c:57
    950c:	d360fc00 	lsr	x0, x0, #32
    9510:	b9000060 	str	w0, [x3]
    9514:	d65f03c0 	ret

0000000000009518 <__mpa_mul_add_word_cum>:
__mpa_mul_add_word_cum():
/home/pedro/devel/optee/optee_os/lib/libmpa/mpa_mul.c:77
    9518:	b9400044 	ldr	w4, [x2]
/home/pedro/devel/optee/optee_os/lib/libmpa/mpa_mul.c:78
    951c:	b9400065 	ldr	w5, [x3]
/home/pedro/devel/optee/optee_os/lib/libmpa/mpa_mul.c:76
    9520:	8b050084 	add	x4, x4, x5
    9524:	9ba11000 	umaddl	x0, w0, w1, x4
/home/pedro/devel/optee/optee_os/lib/libmpa/mpa_mul.c:79
    9528:	b9000040 	str	w0, [x2]
/home/pedro/devel/optee/optee_os/lib/libmpa/mpa_mul.c:80
    952c:	d360fc00 	lsr	x0, x0, #32
    9530:	b9000060 	str	w0, [x3]
    9534:	d65f03c0 	ret

0000000000009538 <__mpa_abs_mul_word>:
__mpa_abs_mul_word():
/home/pedro/devel/optee/optee_os/lib/libmpa/mpa_mul.c:96
    9538:	a9bd7bfd 	stp	x29, x30, [sp,#-48]!
    953c:	910003fd 	mov	x29, sp
    9540:	a9025bf5 	stp	x21, x22, [sp,#32]
    9544:	2a0203f6 	mov	w22, w2
/home/pedro/devel/optee/optee_os/lib/libmpa/mpa_mul.c:103
    9548:	b9400002 	ldr	w2, [x0]
/home/pedro/devel/optee/optee_os/lib/libmpa/mpa_mul.c:96
    954c:	aa0103f5 	mov	x21, x1
    9550:	a90153f3 	stp	x19, x20, [sp,#16]
/home/pedro/devel/optee/optee_os/lib/libmpa/mpa_mul.c:103
    9554:	91002014 	add	x20, x0, #0x8
    9558:	52800001 	mov	w1, #0x0                   	// #0
/home/pedro/devel/optee/optee_os/lib/libmpa/mpa_mul.c:96
    955c:	aa0003f3 	mov	x19, x0
/home/pedro/devel/optee/optee_os/lib/libmpa/mpa_mul.c:103
    9560:	d37e7442 	ubfiz	x2, x2, #2, #30
    9564:	aa1403e0 	mov	x0, x20
    9568:	97fff4ca 	bl	6890 <memset>
/home/pedro/devel/optee/optee_os/lib/libmpa/mpa_mul.c:105
    956c:	910022a3 	add	x3, x21, #0x8
/home/pedro/devel/optee/optee_os/lib/libmpa/mpa_mul.c:108
    9570:	d2800000 	mov	x0, #0x0                   	// #0
/home/pedro/devel/optee/optee_os/lib/libmpa/mpa_mul.c:107
    9574:	52800001 	mov	w1, #0x0                   	// #0
/home/pedro/devel/optee/optee_os/lib/libmpa/mpa_mul.c:108 (discriminator 1)
    9578:	b94006a2 	ldr	w2, [x21,#4]
    957c:	7100005f 	cmp	w2, #0x0
    9580:	5a82a442 	cneg	w2, w2, lt
    9584:	6b00005f 	cmp	w2, w0
    9588:	54000168 	b.hi	95b4 <__mpa_abs_mul_word+0x7c>
/home/pedro/devel/optee/optee_os/lib/libmpa/mpa_mul.c:112
    958c:	b9000660 	str	w0, [x19,#4]
/home/pedro/devel/optee/optee_os/lib/libmpa/mpa_mul.c:113
    9590:	340000a1 	cbz	w1, 95a4 <__mpa_abs_mul_word+0x6c>
/home/pedro/devel/optee/optee_os/lib/libmpa/mpa_mul.c:114
    9594:	b8205a81 	str	w1, [x20,w0,uxtw #2]
/home/pedro/devel/optee/optee_os/lib/libmpa/mpa_mul.c:115
    9598:	b9400660 	ldr	w0, [x19,#4]
    959c:	11000400 	add	w0, w0, #0x1
    95a0:	b9000660 	str	w0, [x19,#4]
/home/pedro/devel/optee/optee_os/lib/libmpa/mpa_mul.c:117
    95a4:	a94153f3 	ldp	x19, x20, [sp,#16]
    95a8:	a9425bf5 	ldp	x21, x22, [sp,#32]
    95ac:	a8c37bfd 	ldp	x29, x30, [sp],#48
    95b0:	d65f03c0 	ret
__mpa_mul_add_word():
/home/pedro/devel/optee/optee_os/lib/libmpa/mpa_mul.c:55 (discriminator 3)
    95b4:	b8607862 	ldr	w2, [x3,x0,lsl #2]
    95b8:	2a0103e1 	mov	w1, w1
    95bc:	9bb60441 	umaddl	x1, w2, w22, x1
/home/pedro/devel/optee/optee_os/lib/libmpa/mpa_mul.c:56 (discriminator 3)
    95c0:	b8205a81 	str	w1, [x20,w0,uxtw #2]
    95c4:	91000400 	add	x0, x0, #0x1
/home/pedro/devel/optee/optee_os/lib/libmpa/mpa_mul.c:57 (discriminator 3)
    95c8:	d360fc21 	lsr	x1, x1, #32
    95cc:	17ffffeb 	b	9578 <__mpa_abs_mul_word+0x40>

00000000000095d0 <__mpa_abs_mul>:
__mpa_abs_mul():
/home/pedro/devel/optee/optee_os/lib/libmpa/mpa_mul.c:127
    95d0:	a9b97bfd 	stp	x29, x30, [sp,#-112]!
    95d4:	910003fd 	mov	x29, sp
    95d8:	a90153f3 	stp	x19, x20, [sp,#16]
/home/pedro/devel/optee/optee_os/lib/libmpa/mpa_mul.c:130
    95dc:	9101c3b4 	add	x20, x29, #0x70
/home/pedro/devel/optee/optee_os/lib/libmpa/mpa_mul.c:127
    95e0:	a90573fb 	stp	x27, x28, [sp,#80]
/home/pedro/devel/optee/optee_os/lib/libmpa/mpa_mul.c:141
    95e4:	9100205c 	add	x28, x2, #0x8
/home/pedro/devel/optee/optee_os/lib/libmpa/mpa_mul.c:127
    95e8:	a90363f7 	stp	x23, x24, [sp,#48]
    95ec:	aa0203f7 	mov	x23, x2
/home/pedro/devel/optee/optee_os/lib/libmpa/mpa_mul.c:136
    95f0:	b9400002 	ldr	w2, [x0]
/home/pedro/devel/optee/optee_os/lib/libmpa/mpa_mul.c:127
    95f4:	aa0003f3 	mov	x19, x0
    95f8:	a9025bf5 	stp	x21, x22, [sp,#32]
    95fc:	aa0103f6 	mov	x22, x1
/home/pedro/devel/optee/optee_os/lib/libmpa/mpa_mul.c:136
    9600:	91002015 	add	x21, x0, #0x8
/home/pedro/devel/optee/optee_os/lib/libmpa/mpa_mul.c:127
    9604:	a9046bf9 	stp	x25, x26, [sp,#64]
/home/pedro/devel/optee/optee_os/lib/libmpa/mpa_mul.c:136
    9608:	d37e7442 	ubfiz	x2, x2, #2, #30
/home/pedro/devel/optee/optee_os/lib/libmpa/mpa_mul.c:130
    960c:	b81fce9f 	str	wzr, [x20,#-4]!
/home/pedro/devel/optee/optee_os/lib/libmpa/mpa_mul.c:136
    9610:	52800001 	mov	w1, #0x0                   	// #0
    9614:	aa1503e0 	mov	x0, x21
/home/pedro/devel/optee/optee_os/lib/libmpa/mpa_mul.c:138
    9618:	910022db 	add	x27, x22, #0x8
/home/pedro/devel/optee/optee_os/lib/libmpa/mpa_mul.c:136
    961c:	97fff49d 	bl	6890 <memset>
/home/pedro/devel/optee/optee_os/lib/libmpa/mpa_mul.c:140
    9620:	d2800019 	mov	x25, #0x0                   	// #0
/home/pedro/devel/optee/optee_os/lib/libmpa/mpa_mul.c:129
    9624:	52800002 	mov	w2, #0x0                   	// #0
/home/pedro/devel/optee/optee_os/lib/libmpa/mpa_mul.c:140 (discriminator 1)
    9628:	b94006c0 	ldr	w0, [x22,#4]
    962c:	8b190aba 	add	x26, x21, x25, lsl #2
    9630:	7100001f 	cmp	w0, #0x0
    9634:	5a80a400 	cneg	w0, w0, lt
    9638:	6b00033f 	cmp	w25, w0
    963c:	540001c3 	b.cc	9674 <__mpa_abs_mul+0xa4>
/home/pedro/devel/optee/optee_os/lib/libmpa/mpa_mul.c:152
    9640:	0b020320 	add	w0, w25, w2
    9644:	51000401 	sub	w1, w0, #0x1
    9648:	b9000661 	str	w1, [x19,#4]
/home/pedro/devel/optee/optee_os/lib/libmpa/mpa_mul.c:153
    964c:	b9406fa1 	ldr	w1, [x29,#108]
    9650:	34000041 	cbz	w1, 9658 <__mpa_abs_mul+0x88>
/home/pedro/devel/optee/optee_os/lib/libmpa/mpa_mul.c:154
    9654:	b9000660 	str	w0, [x19,#4]
/home/pedro/devel/optee/optee_os/lib/libmpa/mpa_mul.c:155
    9658:	a94153f3 	ldp	x19, x20, [sp,#16]
    965c:	a9425bf5 	ldp	x21, x22, [sp,#32]
    9660:	a94363f7 	ldp	x23, x24, [sp,#48]
    9664:	a9446bf9 	ldp	x25, x26, [sp,#64]
    9668:	a94573fb 	ldp	x27, x28, [sp,#80]
    966c:	a8c77bfd 	ldp	x29, x30, [sp],#112
    9670:	d65f03c0 	ret
/home/pedro/devel/optee/optee_os/lib/libmpa/mpa_mul.c:143
    9674:	d2800018 	mov	x24, #0x0                   	// #0
/home/pedro/devel/optee/optee_os/lib/libmpa/mpa_mul.c:142
    9678:	b9006fbf 	str	wzr, [x29,#108]
/home/pedro/devel/optee/optee_os/lib/libmpa/mpa_mul.c:143 (discriminator 1)
    967c:	b94006e0 	ldr	w0, [x23,#4]
    9680:	2a1803e2 	mov	w2, w24
    9684:	7100001f 	cmp	w0, #0x0
    9688:	5a80a400 	cneg	w0, w0, lt
    968c:	6b00031f 	cmp	w24, w0
    9690:	540000c3 	b.cc	96a8 <__mpa_abs_mul+0xd8>
/home/pedro/devel/optee/optee_os/lib/libmpa/mpa_mul.c:147
    9694:	b9406fa0 	ldr	w0, [x29,#108]
    9698:	34000040 	cbz	w0, 96a0 <__mpa_abs_mul+0xd0>
/home/pedro/devel/optee/optee_os/lib/libmpa/mpa_mul.c:148
    969c:	b8385b40 	str	w0, [x26,w24,uxtw #2]
    96a0:	91000739 	add	x25, x25, #0x1
    96a4:	17ffffe1 	b	9628 <__mpa_abs_mul+0x58>
/home/pedro/devel/optee/optee_os/lib/libmpa/mpa_mul.c:144 (discriminator 3)
    96a8:	b8787b81 	ldr	w1, [x28,x24,lsl #2]
    96ac:	8b384b42 	add	x2, x26, w24, uxtw #2
    96b0:	b8797b60 	ldr	w0, [x27,x25,lsl #2]
    96b4:	aa1403e3 	mov	x3, x20
    96b8:	91000718 	add	x24, x24, #0x1
    96bc:	97ffff97 	bl	9518 <__mpa_mul_add_word_cum>
    96c0:	17ffffef 	b	967c <__mpa_abs_mul+0xac>

00000000000096c4 <mpa_mul>:
mpa_mul():
/home/pedro/devel/optee/optee_os/lib/libmpa/mpa_mul.c:170
    96c4:	a9bb7bfd 	stp	x29, x30, [sp,#-80]!
    96c8:	910003fd 	mov	x29, sp
    96cc:	a90153f3 	stp	x19, x20, [sp,#16]
    96d0:	aa0003f3 	mov	x19, x0
/home/pedro/devel/optee/optee_os/lib/libmpa/mpa_mul.c:174
    96d4:	b9400420 	ldr	w0, [x1,#4]
/home/pedro/devel/optee/optee_os/lib/libmpa/mpa_mul.c:170
    96d8:	a9025bf5 	stp	x21, x22, [sp,#32]
    96dc:	f9001bf7 	str	x23, [sp,#48]
/home/pedro/devel/optee/optee_os/lib/libmpa/mpa_mul.c:174
    96e0:	34000080 	cbz	w0, 96f0 <mpa_mul+0x2c>
/home/pedro/devel/optee/optee_os/lib/libmpa/mpa_mul.c:174 (discriminator 1)
    96e4:	b9400440 	ldr	w0, [x2,#4]
    96e8:	aa0203f5 	mov	x21, x2
    96ec:	35000120 	cbnz	w0, 9710 <mpa_mul+0x4c>
/home/pedro/devel/optee/optee_os/lib/libmpa/mpa_mul.c:175
    96f0:	52800001 	mov	w1, #0x0                   	// #0
    96f4:	aa1303e0 	mov	x0, x19
    96f8:	97fffab8 	bl	81d8 <mpa_set_word>
/home/pedro/devel/optee/optee_os/lib/libmpa/mpa_mul.c:194
    96fc:	a94153f3 	ldp	x19, x20, [sp,#16]
    9700:	a9425bf5 	ldp	x21, x22, [sp,#32]
    9704:	f9401bf7 	ldr	x23, [sp,#48]
    9708:	a8c57bfd 	ldp	x29, x30, [sp],#80
    970c:	d65f03c0 	ret
/home/pedro/devel/optee/optee_os/lib/libmpa/mpa_mul.c:180
    9710:	eb13003f 	cmp	x1, x19
    9714:	aa0103f6 	mov	x22, x1
    9718:	1a9f17f4 	cset	w20, eq
    971c:	eb13005f 	cmp	x2, x19
    9720:	1a9f17e0 	cset	w0, eq
    9724:	aa0303f7 	mov	x23, x3
    9728:	2a000294 	orr	w20, w20, w0
/home/pedro/devel/optee/optee_os/lib/libmpa/mpa_mul.c:181
    972c:	340003b4 	cbz	w20, 97a0 <mpa_mul+0xdc>
/home/pedro/devel/optee/optee_os/lib/libmpa/mpa_mul.c:182
    9730:	aa0303e1 	mov	x1, x3
    9734:	910123a0 	add	x0, x29, #0x48
    9738:	97ffff5b 	bl	94a4 <mpa_alloc_static_temp_var>
/home/pedro/devel/optee/optee_os/lib/libmpa/mpa_mul.c:186
    973c:	f94027a0 	ldr	x0, [x29,#72]
    9740:	aa1503e2 	mov	x2, x21
    9744:	aa1603e1 	mov	x1, x22
    9748:	97ffffa2 	bl	95d0 <__mpa_abs_mul>
/home/pedro/devel/optee/optee_os/lib/libmpa/mpa_mul.c:188
    974c:	b94006c1 	ldr	w1, [x22,#4]
    9750:	12800000 	mov	w0, #0xffffffff            	// #-1
    9754:	b94006a2 	ldr	w2, [x21,#4]
    9758:	6b00003f 	cmp	w1, w0
    975c:	5a80d401 	cneg	w1, w0, gt
    9760:	6b00005f 	cmp	w2, w0
    9764:	5a80d400 	cneg	w0, w0, gt
    9768:	6b00003f 	cmp	w1, w0
    976c:	540000a0 	b.eq	9780 <mpa_mul+0xbc>
/home/pedro/devel/optee/optee_os/lib/libmpa/mpa_mul.c:189
    9770:	f94027a1 	ldr	x1, [x29,#72]
    9774:	b9400420 	ldr	w0, [x1,#4]
    9778:	4b0003e0 	neg	w0, w0
    977c:	b9000420 	str	w0, [x1,#4]
/home/pedro/devel/optee/optee_os/lib/libmpa/mpa_mul.c:191
    9780:	f94027a1 	ldr	x1, [x29,#72]
    9784:	aa1303e0 	mov	x0, x19
    9788:	97fff835 	bl	785c <mpa_copy>
/home/pedro/devel/optee/optee_os/lib/libmpa/mpa_mul.c:192
    978c:	34fffb94 	cbz	w20, 96fc <mpa_mul+0x38>
/home/pedro/devel/optee/optee_os/lib/libmpa/mpa_mul.c:193
    9790:	aa1703e1 	mov	x1, x23
    9794:	910123a0 	add	x0, x29, #0x48
    9798:	97ffff47 	bl	94b4 <mpa_free_static_temp_var>
    979c:	17ffffd8 	b	96fc <mpa_mul+0x38>
/home/pedro/devel/optee/optee_os/lib/libmpa/mpa_mul.c:184
    97a0:	f90027b3 	str	x19, [x29,#72]
    97a4:	17ffffe6 	b	973c <mpa_mul+0x78>

00000000000097a8 <mpa_mul_word>:
mpa_mul_word():
/home/pedro/devel/optee/optee_os/lib/libmpa/mpa_mul.c:203
    97a8:	a9bb7bfd 	stp	x29, x30, [sp,#-80]!
    97ac:	910003fd 	mov	x29, sp
    97b0:	a90153f3 	stp	x19, x20, [sp,#16]
    97b4:	aa0103f4 	mov	x20, x1
/home/pedro/devel/optee/optee_os/lib/libmpa/mpa_mul.c:208
    97b8:	b9400421 	ldr	w1, [x1,#4]
/home/pedro/devel/optee/optee_os/lib/libmpa/mpa_mul.c:203
    97bc:	a9025bf5 	stp	x21, x22, [sp,#32]
    97c0:	f9001bf7 	str	x23, [sp,#48]
/home/pedro/devel/optee/optee_os/lib/libmpa/mpa_mul.c:208
    97c4:	7100003f 	cmp	w1, #0x0
    97c8:	7a401844 	ccmp	w2, #0x0, #0x4, ne
    97cc:	54000101 	b.ne	97ec <mpa_mul_word+0x44>
/home/pedro/devel/optee/optee_os/lib/libmpa/mpa_mul.c:209
    97d0:	52800001 	mov	w1, #0x0                   	// #0
    97d4:	97fffa81 	bl	81d8 <mpa_set_word>
/home/pedro/devel/optee/optee_os/lib/libmpa/mpa_mul.c:229
    97d8:	a94153f3 	ldp	x19, x20, [sp,#16]
    97dc:	a9425bf5 	ldp	x21, x22, [sp,#32]
    97e0:	f9401bf7 	ldr	x23, [sp,#48]
    97e4:	a8c57bfd 	ldp	x29, x30, [sp],#80
    97e8:	d65f03c0 	ret
    97ec:	aa0003f3 	mov	x19, x0
/home/pedro/devel/optee/optee_os/lib/libmpa/mpa_mul.c:213
    97f0:	12800000 	mov	w0, #0xffffffff            	// #-1
    97f4:	6b00003f 	cmp	w1, w0
    97f8:	2a0203f7 	mov	w23, w2
    97fc:	5a80d415 	cneg	w21, w0, gt
    9800:	aa0303f6 	mov	x22, x3
/home/pedro/devel/optee/optee_os/lib/libmpa/mpa_mul.c:217
    9804:	eb13029f 	cmp	x20, x19
    9808:	540002e1 	b.ne	9864 <mpa_mul_word+0xbc>
/home/pedro/devel/optee/optee_os/lib/libmpa/mpa_mul.c:218
    980c:	aa0303e1 	mov	x1, x3
    9810:	910123a0 	add	x0, x29, #0x48
    9814:	97ffff24 	bl	94a4 <mpa_alloc_static_temp_var>
/home/pedro/devel/optee/optee_os/lib/libmpa/mpa_mul.c:222
    9818:	f94027a0 	ldr	x0, [x29,#72]
    981c:	2a1703e2 	mov	w2, w23
    9820:	aa1403e1 	mov	x1, x20
    9824:	97ffff45 	bl	9538 <__mpa_abs_mul_word>
/home/pedro/devel/optee/optee_os/lib/libmpa/mpa_mul.c:224
    9828:	310006bf 	cmn	w21, #0x1
    982c:	540000a1 	b.ne	9840 <mpa_mul_word+0x98>
/home/pedro/devel/optee/optee_os/lib/libmpa/mpa_mul.c:225
    9830:	f94027a1 	ldr	x1, [x29,#72]
    9834:	b9400420 	ldr	w0, [x1,#4]
    9838:	4b0003e0 	neg	w0, w0
    983c:	b9000420 	str	w0, [x1,#4]
/home/pedro/devel/optee/optee_os/lib/libmpa/mpa_mul.c:226
    9840:	f94027a1 	ldr	x1, [x29,#72]
    9844:	aa1303e0 	mov	x0, x19
    9848:	97fff805 	bl	785c <mpa_copy>
/home/pedro/devel/optee/optee_os/lib/libmpa/mpa_mul.c:227
    984c:	eb13029f 	cmp	x20, x19
    9850:	54fffc41 	b.ne	97d8 <mpa_mul_word+0x30>
/home/pedro/devel/optee/optee_os/lib/libmpa/mpa_mul.c:228
    9854:	aa1603e1 	mov	x1, x22
    9858:	910123a0 	add	x0, x29, #0x48
    985c:	97ffff16 	bl	94b4 <mpa_free_static_temp_var>
    9860:	17ffffde 	b	97d8 <mpa_mul_word+0x30>
/home/pedro/devel/optee/optee_os/lib/libmpa/mpa_mul.c:220
    9864:	f90027b3 	str	x19, [x29,#72]
    9868:	17ffffec 	b	9818 <mpa_mul_word+0x70>

000000000000986c <mpa_set_random_generator>:
mpa_set_random_generator():
/home/pedro/devel/optee/optee_os/lib/libmpa/mpa_random.c:35
    986c:	d0000061 	adrp	x1, 17000 <mempool_u32+0xc58>
    9870:	f907a420 	str	x0, [x1,#3912]
    9874:	d65f03c0 	ret

0000000000009878 <mpa_get_random>:
mpa_get_random():
/home/pedro/devel/optee/optee_os/lib/libmpa/mpa_random.c:53
    9878:	a9ba7bfd 	stp	x29, x30, [sp,#-96]!
    987c:	910003fd 	mov	x29, sp
    9880:	a9025bf5 	stp	x21, x22, [sp,#32]
    9884:	aa0103f5 	mov	x21, x1
    9888:	a90153f3 	stp	x19, x20, [sp,#16]
    988c:	aa0003f4 	mov	x20, x0
    9890:	a90363f7 	stp	x23, x24, [sp,#48]
get_random_byte():
/home/pedro/devel/optee/optee_os/lib/libmpa/mpa_random.c:41
    9894:	91017fb7 	add	x23, x29, #0x5f
mpa_get_random():
/home/pedro/devel/optee/optee_os/lib/libmpa/mpa_random.c:53
    9898:	a9046bf9 	stp	x25, x26, [sp,#64]
/home/pedro/devel/optee/optee_os/lib/libmpa/mpa_random.c:56
    989c:	97fff7e4 	bl	782c <mpa_wipe>
/home/pedro/devel/optee/optee_os/lib/libmpa/mpa_random.c:57
    98a0:	b94006a0 	ldr	w0, [x21,#4]
    98a4:	52800013 	mov	w19, #0x0                   	// #0
    98a8:	b9400281 	ldr	w1, [x20]
    98ac:	7100001f 	cmp	w0, #0x0
    98b0:	5a80a400 	cneg	w0, w0, lt
/home/pedro/devel/optee/optee_os/lib/libmpa/mpa_random.c:58
    98b4:	6b00003f 	cmp	w1, w0
    98b8:	1a812000 	csel	w0, w0, w1, cs
    98bc:	b9000680 	str	w0, [x20,#4]
get_random_byte():
/home/pedro/devel/optee/optee_os/lib/libmpa/mpa_random.c:41
    98c0:	d000007a 	adrp	x26, 17000 <mempool_u32+0xc58>
mpa_get_random():
/home/pedro/devel/optee/optee_os/lib/libmpa/mpa_random.c:61
    98c4:	35000593 	cbnz	w19, 9974 <mpa_get_random+0xfc>
    98c8:	91002299 	add	x25, x20, #0x8
    98cc:	1400000f 	b	9908 <mpa_get_random+0x90>
    98d0:	52800098 	mov	w24, #0x4                   	// #4
    98d4:	52800000 	mov	w0, #0x0                   	// #0
/home/pedro/devel/optee/optee_os/lib/libmpa/mpa_random.c:65 (discriminator 3)
    98d8:	53185c16 	lsl	w22, w0, #8
get_random_byte():
/home/pedro/devel/optee/optee_os/lib/libmpa/mpa_random.c:41
    98dc:	f947a742 	ldr	x2, [x26,#3912]
    98e0:	d2800021 	mov	x1, #0x1                   	// #1
    98e4:	aa1703e0 	mov	x0, x23
    98e8:	d63f0040 	blr	x2
    98ec:	35ffff80 	cbnz	w0, 98dc <mpa_get_random+0x64>
/home/pedro/devel/optee/optee_os/lib/libmpa/mpa_random.c:44
    98f0:	39417fa0 	ldrb	w0, [x29,#95]
mpa_get_random():
/home/pedro/devel/optee/optee_os/lib/libmpa/mpa_random.c:64
    98f4:	71000718 	subs	w24, w24, #0x1
/home/pedro/devel/optee/optee_os/lib/libmpa/mpa_random.c:65
    98f8:	4a160000 	eor	w0, w0, w22
/home/pedro/devel/optee/optee_os/lib/libmpa/mpa_random.c:64
    98fc:	54fffee1 	b.ne	98d8 <mpa_get_random+0x60>
/home/pedro/devel/optee/optee_os/lib/libmpa/mpa_random.c:62 (discriminator 2)
    9900:	11000673 	add	w19, w19, #0x1
/home/pedro/devel/optee/optee_os/lib/libmpa/mpa_random.c:66 (discriminator 2)
    9904:	b8004720 	str	w0, [x25],#4
/home/pedro/devel/optee/optee_os/lib/libmpa/mpa_random.c:62 (discriminator 1)
    9908:	b9400681 	ldr	w1, [x20,#4]
    990c:	6b01027f 	cmp	w19, w1
    9910:	54fffe0b 	b.lt	98d0 <mpa_get_random+0x58>
/home/pedro/devel/optee/optee_os/lib/libmpa/mpa_random.c:68
    9914:	b94006a0 	ldr	w0, [x21,#4]
/home/pedro/devel/optee/optee_os/lib/libmpa/mpa_random.c:69
    9918:	52800033 	mov	w19, #0x1                   	// #1
/home/pedro/devel/optee/optee_os/lib/libmpa/mpa_random.c:68
    991c:	7100001f 	cmp	w0, #0x0
    9920:	5a80a400 	cneg	w0, w0, lt
    9924:	6b00003f 	cmp	w1, w0
    9928:	5400026b 	b.lt	9974 <mpa_get_random+0xfc>
/home/pedro/devel/optee/optee_os/lib/libmpa/mpa_random.c:72
    992c:	aa1503e0 	mov	x0, x21
    9930:	97fff7ec 	bl	78e0 <mpa_highest_bit_index>
/home/pedro/devel/optee/optee_os/lib/libmpa/mpa_random.c:74
    9934:	12001000 	and	w0, w0, #0x1f
    9938:	0b130000 	add	w0, w0, w19
/home/pedro/devel/optee/optee_os/lib/libmpa/mpa_random.c:75
    993c:	7100801f 	cmp	w0, #0x20
    9940:	54000100 	b.eq	9960 <mpa_get_random+0xe8>
/home/pedro/devel/optee/optee_os/lib/libmpa/mpa_random.c:76
    9944:	1ac02273 	lsl	w19, w19, w0
    9948:	b9800680 	ldrsw	x0, [x20,#4]
    994c:	51000673 	sub	w19, w19, #0x1
    9950:	8b000a80 	add	x0, x20, x0, lsl #2
/home/pedro/devel/optee/optee_os/lib/libmpa/mpa_random.c:77
    9954:	b9400401 	ldr	w1, [x0,#4]
    9958:	0a130033 	and	w19, w1, w19
    995c:	b9000413 	str	w19, [x0,#4]
/home/pedro/devel/optee/optee_os/lib/libmpa/mpa_random.c:79
    9960:	aa1503e1 	mov	x1, x21
    9964:	aa1403e0 	mov	x0, x20
    9968:	9400038e 	bl	a7a0 <mpa_cmp>
    996c:	531f7c13 	lsr	w19, w0, #31
    9970:	17ffffd4 	b	98c0 <mpa_get_random+0x48>
/home/pedro/devel/optee/optee_os/lib/libmpa/mpa_random.c:82
    9974:	a94153f3 	ldp	x19, x20, [sp,#16]
    9978:	a9425bf5 	ldp	x21, x22, [sp,#32]
    997c:	a94363f7 	ldp	x23, x24, [sp,#48]
    9980:	a9446bf9 	ldp	x25, x26, [sp,#64]
    9984:	a8c67bfd 	ldp	x29, x30, [sp],#96
    9988:	d65f03c0 	ret

000000000000998c <mpa_get_random_digits>:
mpa_get_random_digits():
/home/pedro/devel/optee/optee_os/lib/libmpa/mpa_random.c:85
    998c:	a9be7bfd 	stp	x29, x30, [sp,#-32]!
    9990:	910003fd 	mov	x29, sp
    9994:	a90153f3 	stp	x19, x20, [sp,#16]
    9998:	aa0003f4 	mov	x20, x0
    999c:	2a0103f3 	mov	w19, w1
/home/pedro/devel/optee/optee_os/lib/libmpa/mpa_random.c:86
    99a0:	97fff7a3 	bl	782c <mpa_wipe>
/home/pedro/devel/optee/optee_os/lib/libmpa/mpa_random.c:88
    99a4:	b9400280 	ldr	w0, [x20]
    99a8:	6b13001f 	cmp	w0, w19
    99ac:	540000a2 	b.cs	99c0 <mpa_get_random_digits+0x34>
/home/pedro/devel/optee/optee_os/lib/libmpa/mpa_random.c:89
    99b0:	52800000 	mov	w0, #0x0                   	// #0
/home/pedro/devel/optee/optee_os/lib/libmpa/mpa_random.c:97
    99b4:	a94153f3 	ldp	x19, x20, [sp,#16]
    99b8:	a8c27bfd 	ldp	x29, x30, [sp],#32
    99bc:	d65f03c0 	ret
/home/pedro/devel/optee/optee_os/lib/libmpa/mpa_random.c:93
    99c0:	d0000060 	adrp	x0, 17000 <mempool_u32+0xc58>
    99c4:	7100027f 	cmp	w19, #0x0
/home/pedro/devel/optee/optee_os/lib/libmpa/mpa_random.c:91
    99c8:	b9000693 	str	w19, [x20,#4]
/home/pedro/devel/optee/optee_os/lib/libmpa/mpa_random.c:93
    99cc:	5a93a673 	cneg	w19, w19, lt
    99d0:	f947a402 	ldr	x2, [x0,#3912]
    99d4:	531e7661 	lsl	w1, w19, #2
    99d8:	91002280 	add	x0, x20, #0x8
    99dc:	93407c21 	sxtw	x1, w1
    99e0:	d63f0040 	blr	x2
    99e4:	35fffe60 	cbnz	w0, 99b0 <mpa_get_random_digits+0x24>
/home/pedro/devel/optee/optee_os/lib/libmpa/mpa_random.c:96
    99e8:	b9400680 	ldr	w0, [x20,#4]
    99ec:	7100001f 	cmp	w0, #0x0
    99f0:	5a80a400 	cneg	w0, w0, lt
    99f4:	17fffff0 	b	99b4 <mpa_get_random_digits+0x28>

00000000000099f8 <__mpa_shift_words_left>:
__mpa_shift_words_left():
/home/pedro/devel/optee/optee_os/lib/libmpa/mpa_shift.c:45
    99f8:	340004a1 	cbz	w1, 9a8c <__mpa_shift_words_left+0x94>
/home/pedro/devel/optee/optee_os/lib/libmpa/mpa_shift.c:42 (discriminator 1)
    99fc:	a9bd7bfd 	stp	x29, x30, [sp,#-48]!
    9a00:	910003fd 	mov	x29, sp
    9a04:	f90013f5 	str	x21, [sp,#32]
    9a08:	a90153f3 	stp	x19, x20, [sp,#16]
/home/pedro/devel/optee/optee_os/lib/libmpa/mpa_shift.c:45 (discriminator 1)
    9a0c:	b9400415 	ldr	w21, [x0,#4]
    9a10:	710002bf 	cmp	w21, #0x0
    9a14:	54000280 	b.eq	9a64 <__mpa_shift_words_left+0x6c>
    9a18:	51000425 	sub	w5, w1, #0x1
/home/pedro/devel/optee/optee_os/lib/libmpa/mpa_shift.c:47
    9a1c:	5a95a6a2 	cneg	w2, w21, lt
    9a20:	0b050042 	add	w2, w2, w5
    9a24:	d37e7c43 	ubfiz	x3, x2, #2, #32
    9a28:	91002063 	add	x3, x3, #0x8
    9a2c:	8b030003 	add	x3, x0, x3
/home/pedro/devel/optee/optee_os/lib/libmpa/mpa_shift.c:47 (discriminator 1)
    9a30:	6b05005f 	cmp	w2, w5
    9a34:	54000208 	b.hi	9a74 <__mpa_shift_words_left+0x7c>
    9a38:	2a0103f3 	mov	w19, w1
    9a3c:	aa0003f4 	mov	x20, x0
/home/pedro/devel/optee/optee_os/lib/libmpa/mpa_shift.c:50
    9a40:	52800001 	mov	w1, #0x0                   	// #0
    9a44:	d37e7662 	ubfiz	x2, x19, #2, #30
    9a48:	91002000 	add	x0, x0, #0x8
    9a4c:	97fff391 	bl	6890 <memset>
/home/pedro/devel/optee/optee_os/lib/libmpa/mpa_shift.c:54
    9a50:	4b1302a0 	sub	w0, w21, w19
    9a54:	0b1302a1 	add	w1, w21, w19
    9a58:	710002bf 	cmp	w21, #0x0
    9a5c:	1a80c021 	csel	w1, w1, w0, gt
    9a60:	b9000681 	str	w1, [x20,#4]
/home/pedro/devel/optee/optee_os/lib/libmpa/mpa_shift.c:57
    9a64:	a94153f3 	ldp	x19, x20, [sp,#16]
    9a68:	f94013f5 	ldr	x21, [sp,#32]
    9a6c:	a8c37bfd 	ldp	x29, x30, [sp],#48
    9a70:	d65f03c0 	ret
/home/pedro/devel/optee/optee_os/lib/libmpa/mpa_shift.c:48 (discriminator 3)
    9a74:	4b010044 	sub	w4, w2, w1
/home/pedro/devel/optee/optee_os/lib/libmpa/mpa_shift.c:47 (discriminator 3)
    9a78:	51000442 	sub	w2, w2, #0x1
/home/pedro/devel/optee/optee_os/lib/libmpa/mpa_shift.c:48 (discriminator 3)
    9a7c:	8b040804 	add	x4, x0, x4, lsl #2
    9a80:	b9400884 	ldr	w4, [x4,#8]
    9a84:	b81fc464 	str	w4, [x3],#-4
    9a88:	17ffffea 	b	9a30 <__mpa_shift_words_left+0x38>
    9a8c:	d65f03c0 	ret

0000000000009a90 <__mpa_shift_words_right>:
__mpa_shift_words_right():
/home/pedro/devel/optee/optee_os/lib/libmpa/mpa_shift.c:65
    9a90:	aa0003e3 	mov	x3, x0
/home/pedro/devel/optee/optee_os/lib/libmpa/mpa_shift.c:68
    9a94:	34000201 	cbz	w1, 9ad4 <__mpa_shift_words_right+0x44>
/home/pedro/devel/optee/optee_os/lib/libmpa/mpa_shift.c:68 (discriminator 1)
    9a98:	b9400402 	ldr	w2, [x0,#4]
    9a9c:	7100005f 	cmp	w2, #0x0
    9aa0:	540001a0 	b.eq	9ad4 <__mpa_shift_words_right+0x44>
/home/pedro/devel/optee/optee_os/lib/libmpa/mpa_shift.c:71
    9aa4:	5a82a444 	cneg	w4, w2, lt
    9aa8:	6b04003f 	cmp	w1, w4
    9aac:	54000162 	b.cs	9ad8 <__mpa_shift_words_right+0x48>
    9ab0:	91002005 	add	x5, x0, #0x8
    9ab4:	2a0103e0 	mov	w0, w1
/home/pedro/devel/optee/optee_os/lib/libmpa/mpa_shift.c:76 (discriminator 1)
    9ab8:	6b04001f 	cmp	w0, w4
    9abc:	54000121 	b.ne	9ae0 <__mpa_shift_words_right+0x50>
/home/pedro/devel/optee/optee_os/lib/libmpa/mpa_shift.c:81
    9ac0:	0b010040 	add	w0, w2, w1
    9ac4:	7100005f 	cmp	w2, #0x0
    9ac8:	4b010041 	sub	w1, w2, w1
    9acc:	1a80c021 	csel	w1, w1, w0, gt
    9ad0:	b9000461 	str	w1, [x3,#4]
    9ad4:	d65f03c0 	ret
/home/pedro/devel/optee/optee_os/lib/libmpa/mpa_shift.c:72
    9ad8:	52800001 	mov	w1, #0x0                   	// #0
    9adc:	17fff9bf 	b	81d8 <mpa_set_word>
/home/pedro/devel/optee/optee_os/lib/libmpa/mpa_shift.c:77 (discriminator 3)
    9ae0:	8b204866 	add	x6, x3, w0, uxtw #2
    9ae4:	11000400 	add	w0, w0, #0x1
    9ae8:	b94008c6 	ldr	w6, [x6,#8]
    9aec:	b80044a6 	str	w6, [x5],#4
    9af0:	17fffff2 	b	9ab8 <__mpa_shift_words_right+0x28>

0000000000009af4 <mpa_shift_left>:
mpa_shift_left():
/home/pedro/devel/optee/optee_os/lib/libmpa/mpa_shift.c:99
    9af4:	a9bd7bfd 	stp	x29, x30, [sp,#-48]!
    9af8:	910003fd 	mov	x29, sp
    9afc:	a90153f3 	stp	x19, x20, [sp,#16]
    9b00:	aa0003f3 	mov	x19, x0
    9b04:	a9025bf5 	stp	x21, x22, [sp,#32]
    9b08:	2a0203f6 	mov	w22, w2
/home/pedro/devel/optee/optee_os/lib/libmpa/mpa_shift.c:111
    9b0c:	97fff754 	bl	785c <mpa_copy>
/home/pedro/devel/optee/optee_os/lib/libmpa/mpa_shift.c:112
    9b10:	aa1303e0 	mov	x0, x19
    9b14:	97fff73d 	bl	7808 <__mpa_set_unused_digits_to_zero>
/home/pedro/devel/optee/optee_os/lib/libmpa/mpa_shift.c:113
    9b18:	34000316 	cbz	w22, 9b78 <mpa_shift_left+0x84>
/home/pedro/devel/optee/optee_os/lib/libmpa/mpa_shift.c:113 (discriminator 1)
    9b1c:	b9400674 	ldr	w20, [x19,#4]
    9b20:	340002d4 	cbz	w20, 9b78 <mpa_shift_left+0x84>
/home/pedro/devel/optee/optee_os/lib/libmpa/mpa_shift.c:117
    9b24:	53057ed5 	lsr	w21, w22, #5
/home/pedro/devel/optee/optee_os/lib/libmpa/mpa_shift.c:133
    9b28:	720012d6 	ands	w22, w22, #0x1f
    9b2c:	540003a1 	b.ne	9ba0 <mpa_shift_left+0xac>
/home/pedro/devel/optee/optee_os/lib/libmpa/mpa_shift.c:137
    9b30:	7100029f 	cmp	w20, #0x0
    9b34:	510006a3 	sub	w3, w21, #0x1
    9b38:	5a94a680 	cneg	w0, w20, lt
    9b3c:	0b030000 	add	w0, w0, w3
    9b40:	d37e7c01 	ubfiz	x1, x0, #2, #32
    9b44:	91002021 	add	x1, x1, #0x8
    9b48:	8b010261 	add	x1, x19, x1
/home/pedro/devel/optee/optee_os/lib/libmpa/mpa_shift.c:137 (discriminator 1)
    9b4c:	6b03001f 	cmp	w0, w3
    9b50:	540001c8 	b.hi	9b88 <mpa_shift_left+0x94>
/home/pedro/devel/optee/optee_os/lib/libmpa/mpa_shift.c:163
    9b54:	d37e6aa2 	ubfiz	x2, x21, #2, #27
    9b58:	52800001 	mov	w1, #0x0                   	// #0
    9b5c:	91002260 	add	x0, x19, #0x8
    9b60:	97fff34c 	bl	6890 <memset>
/home/pedro/devel/optee/optee_os/lib/libmpa/mpa_shift.c:165
    9b64:	7100029f 	cmp	w20, #0x0
    9b68:	5400088d 	b.le	9c78 <mpa_shift_left+0x184>
/home/pedro/devel/optee/optee_os/lib/libmpa/mpa_shift.c:166
    9b6c:	0b150294 	add	w20, w20, w21
    9b70:	0b160294 	add	w20, w20, w22
/home/pedro/devel/optee/optee_os/lib/libmpa/mpa_shift.c:168
    9b74:	b9000674 	str	w20, [x19,#4]
/home/pedro/devel/optee/optee_os/lib/libmpa/mpa_shift.c:169
    9b78:	a94153f3 	ldp	x19, x20, [sp,#16]
    9b7c:	a9425bf5 	ldp	x21, x22, [sp,#32]
    9b80:	a8c37bfd 	ldp	x29, x30, [sp],#48
    9b84:	d65f03c0 	ret
/home/pedro/devel/optee/optee_os/lib/libmpa/mpa_shift.c:138 (discriminator 3)
    9b88:	4b150002 	sub	w2, w0, w21
/home/pedro/devel/optee/optee_os/lib/libmpa/mpa_shift.c:137 (discriminator 3)
    9b8c:	51000400 	sub	w0, w0, #0x1
/home/pedro/devel/optee/optee_os/lib/libmpa/mpa_shift.c:138 (discriminator 3)
    9b90:	8b020a62 	add	x2, x19, x2, lsl #2
    9b94:	b9400842 	ldr	w2, [x2,#8]
    9b98:	b81fc422 	str	w2, [x1],#-4
    9b9c:	17ffffec 	b	9b4c <mpa_shift_left+0x58>
/home/pedro/devel/optee/optee_os/lib/libmpa/mpa_shift.c:140
    9ba0:	7100029f 	cmp	w20, #0x0
/home/pedro/devel/optee/optee_os/lib/libmpa/mpa_shift.c:141
    9ba4:	52800021 	mov	w1, #0x1                   	// #1
/home/pedro/devel/optee/optee_os/lib/libmpa/mpa_shift.c:140
    9ba8:	5a94a680 	cneg	w0, w20, lt
/home/pedro/devel/optee/optee_os/lib/libmpa/mpa_shift.c:141
    9bac:	52800403 	mov	w3, #0x20                  	// #32
/home/pedro/devel/optee/optee_os/lib/libmpa/mpa_shift.c:140
    9bb0:	51000402 	sub	w2, w0, #0x1
/home/pedro/devel/optee/optee_os/lib/libmpa/mpa_shift.c:141
    9bb4:	4b160063 	sub	w3, w3, w22
/home/pedro/devel/optee/optee_os/lib/libmpa/mpa_shift.c:140
    9bb8:	8b22ca62 	add	x2, x19, w2, sxtw #2
/home/pedro/devel/optee/optee_os/lib/libmpa/mpa_shift.c:141
    9bbc:	1ad62021 	lsl	w1, w1, w22
    9bc0:	51000421 	sub	w1, w1, #0x1
/home/pedro/devel/optee/optee_os/lib/libmpa/mpa_shift.c:149
    9bc4:	0b150000 	add	w0, w0, w21
/home/pedro/devel/optee/optee_os/lib/libmpa/mpa_shift.c:140
    9bc8:	b9400842 	ldr	w2, [x2,#8]
/home/pedro/devel/optee/optee_os/lib/libmpa/mpa_shift.c:141
    9bcc:	1ac32021 	lsl	w1, w1, w3
/home/pedro/devel/optee/optee_os/lib/libmpa/mpa_shift.c:140
    9bd0:	6a020021 	ands	w1, w1, w2
    9bd4:	1a9f07e6 	cset	w6, ne
/home/pedro/devel/optee/optee_os/lib/libmpa/mpa_shift.c:149
    9bd8:	0b060000 	add	w0, w0, w6
/home/pedro/devel/optee/optee_os/lib/libmpa/mpa_shift.c:150
    9bdc:	34000141 	cbz	w1, 9c04 <mpa_shift_left+0x110>
/home/pedro/devel/optee/optee_os/lib/libmpa/mpa_shift.c:151
    9be0:	2a3503e1 	mvn	w1, w21
    9be4:	8b204a64 	add	x4, x19, w0, uxtw #2
    9be8:	0b000021 	add	w1, w1, w0
    9bec:	8b010a61 	add	x1, x19, x1, lsl #2
    9bf0:	b9400821 	ldr	w1, [x1,#8]
    9bf4:	1ac32422 	lsr	w2, w1, w3
/home/pedro/devel/optee/optee_os/lib/libmpa/mpa_shift.c:152
    9bf8:	b9400881 	ldr	w1, [x4,#8]
    9bfc:	4a020021 	eor	w1, w1, w2
    9c00:	b9000881 	str	w1, [x4,#8]
/home/pedro/devel/optee/optee_os/lib/libmpa/mpa_shift.c:154
    9c04:	51000401 	sub	w1, w0, #0x1
    9c08:	4b150000 	sub	w0, w0, w21
/home/pedro/devel/optee/optee_os/lib/libmpa/mpa_shift.c:155
    9c0c:	4b150024 	sub	w4, w1, w21
    9c10:	8b010a65 	add	x5, x19, x1, lsl #2
    9c14:	8b040a64 	add	x4, x19, x4, lsl #2
/home/pedro/devel/optee/optee_os/lib/libmpa/mpa_shift.c:154
    9c18:	aa0103e2 	mov	x2, x1
    9c1c:	91000821 	add	x1, x1, #0x2
    9c20:	51000800 	sub	w0, w0, #0x2
    9c24:	8b010a61 	add	x1, x19, x1, lsl #2
/home/pedro/devel/optee/optee_os/lib/libmpa/mpa_shift.c:155
    9c28:	b9400884 	ldr	w4, [x4,#8]
    9c2c:	1ad62084 	lsl	w4, w4, w22
    9c30:	b90008a4 	str	w4, [x5,#8]
/home/pedro/devel/optee/optee_os/lib/libmpa/mpa_shift.c:156
    9c34:	6b15005f 	cmp	w2, w21
    9c38:	54000068 	b.hi	9c44 <mpa_shift_left+0x150>
/home/pedro/devel/optee/optee_os/lib/libmpa/mpa_shift.c:131
    9c3c:	2a0603f6 	mov	w22, w6
    9c40:	17ffffc5 	b	9b54 <mpa_shift_left+0x60>
/home/pedro/devel/optee/optee_os/lib/libmpa/mpa_shift.c:157
    9c44:	8b204a67 	add	x7, x19, w0, uxtw #2
/home/pedro/devel/optee/optee_os/lib/libmpa/mpa_shift.c:159
    9c48:	51000442 	sub	w2, w2, #0x1
    9c4c:	51000400 	sub	w0, w0, #0x1
/home/pedro/devel/optee/optee_os/lib/libmpa/mpa_shift.c:157
    9c50:	b94008e4 	ldr	w4, [x7,#8]
    9c54:	1ac32485 	lsr	w5, w4, w3
/home/pedro/devel/optee/optee_os/lib/libmpa/mpa_shift.c:158
    9c58:	b9400024 	ldr	w4, [x1]
    9c5c:	4a050084 	eor	w4, w4, w5
    9c60:	b81fc424 	str	w4, [x1],#-4
/home/pedro/devel/optee/optee_os/lib/libmpa/mpa_shift.c:160
    9c64:	8b224a65 	add	x5, x19, w2, uxtw #2
    9c68:	b94008e4 	ldr	w4, [x7,#8]
    9c6c:	1ad62084 	lsl	w4, w4, w22
    9c70:	b90008a4 	str	w4, [x5,#8]
    9c74:	17fffff0 	b	9c34 <mpa_shift_left+0x140>
/home/pedro/devel/optee/optee_os/lib/libmpa/mpa_shift.c:168
    9c78:	4b150294 	sub	w20, w20, w21
    9c7c:	4b160294 	sub	w20, w20, w22
    9c80:	17ffffbd 	b	9b74 <mpa_shift_left+0x80>

0000000000009c84 <mpa_shift_right>:
mpa_shift_right():
/home/pedro/devel/optee/optee_os/lib/libmpa/mpa_shift.c:180
    9c84:	a9be7bfd 	stp	x29, x30, [sp,#-32]!
    9c88:	910003fd 	mov	x29, sp
    9c8c:	a90153f3 	stp	x19, x20, [sp,#16]
    9c90:	aa0003f3 	mov	x19, x0
    9c94:	2a0203f4 	mov	w20, w2
/home/pedro/devel/optee/optee_os/lib/libmpa/mpa_shift.c:191
    9c98:	97fff6f1 	bl	785c <mpa_copy>
/home/pedro/devel/optee/optee_os/lib/libmpa/mpa_shift.c:192
    9c9c:	aa1303e0 	mov	x0, x19
    9ca0:	97fff6da 	bl	7808 <__mpa_set_unused_digits_to_zero>
/home/pedro/devel/optee/optee_os/lib/libmpa/mpa_shift.c:193
    9ca4:	34000674 	cbz	w20, 9d70 <mpa_shift_right+0xec>
/home/pedro/devel/optee/optee_os/lib/libmpa/mpa_shift.c:193 (discriminator 1)
    9ca8:	b9400663 	ldr	w3, [x19,#4]
    9cac:	7100007f 	cmp	w3, #0x0
    9cb0:	54000600 	b.eq	9d70 <mpa_shift_right+0xec>
/home/pedro/devel/optee/optee_os/lib/libmpa/mpa_shift.c:197
    9cb4:	53057e82 	lsr	w2, w20, #5
/home/pedro/devel/optee/optee_os/lib/libmpa/mpa_shift.c:199
    9cb8:	5a83a466 	cneg	w6, w3, lt
/home/pedro/devel/optee/optee_os/lib/libmpa/mpa_shift.c:196
    9cbc:	12001284 	and	w4, w20, #0x1f
/home/pedro/devel/optee/optee_os/lib/libmpa/mpa_shift.c:199
    9cc0:	6b06005f 	cmp	w2, w6
    9cc4:	540000c3 	b.cc	9cdc <mpa_shift_right+0x58>
/home/pedro/devel/optee/optee_os/lib/libmpa/mpa_shift.c:200
    9cc8:	aa1303e0 	mov	x0, x19
    9ccc:	52800001 	mov	w1, #0x0                   	// #0
/home/pedro/devel/optee/optee_os/lib/libmpa/mpa_shift.c:238
    9cd0:	a94153f3 	ldp	x19, x20, [sp,#16]
    9cd4:	a8c27bfd 	ldp	x29, x30, [sp],#32
/home/pedro/devel/optee/optee_os/lib/libmpa/mpa_shift.c:200
    9cd8:	17fff940 	b	81d8 <mpa_set_word>
    9cdc:	91002260 	add	x0, x19, #0x8
/home/pedro/devel/optee/optee_os/lib/libmpa/mpa_shift.c:209
    9ce0:	34000264 	cbz	w4, 9d2c <mpa_shift_right+0xa8>
/home/pedro/devel/optee/optee_os/lib/libmpa/mpa_shift.c:217 (discriminator 1)
    9ce4:	d2800025 	mov	x5, #0x1                   	// #1
/home/pedro/devel/optee/optee_os/lib/libmpa/mpa_shift.c:219 (discriminator 1)
    9ce8:	52800409 	mov	w9, #0x20                  	// #32
/home/pedro/devel/optee/optee_os/lib/libmpa/mpa_shift.c:217 (discriminator 1)
    9cec:	9ac420a5 	lsl	x5, x5, x4
    9cf0:	2a0203e1 	mov	w1, w2
    9cf4:	510004a5 	sub	w5, w5, #0x1
/home/pedro/devel/optee/optee_os/lib/libmpa/mpa_shift.c:219 (discriminator 1)
    9cf8:	4b040129 	sub	w9, w9, w4
    9cfc:	11000428 	add	w8, w1, #0x1
/home/pedro/devel/optee/optee_os/lib/libmpa/mpa_shift.c:215 (discriminator 1)
    9d00:	6b0800df 	cmp	w6, w8
    9d04:	54000461 	b.ne	9d90 <mpa_shift_right+0x10c>
    9d08:	2a2203e0 	mvn	w0, w2
    9d0c:	0b060000 	add	w0, w0, w6
/home/pedro/devel/optee/optee_os/lib/libmpa/mpa_shift.c:222
    9d10:	8b204a61 	add	x1, x19, w0, uxtw #2
    9d14:	0b000040 	add	w0, w2, w0
    9d18:	8b000a60 	add	x0, x19, x0, lsl #2
    9d1c:	b9400800 	ldr	w0, [x0,#8]
    9d20:	1ac42404 	lsr	w4, w0, w4
    9d24:	b9000824 	str	w4, [x1,#8]
    9d28:	14000004 	b	9d38 <mpa_shift_right+0xb4>
/home/pedro/devel/optee/optee_os/lib/libmpa/mpa_shift.c:209 (discriminator 1)
    9d2c:	2a0203e1 	mov	w1, w2
/home/pedro/devel/optee/optee_os/lib/libmpa/mpa_shift.c:211 (discriminator 1)
    9d30:	6b0100df 	cmp	w6, w1
    9d34:	54000241 	b.ne	9d7c <mpa_shift_right+0xf8>
/home/pedro/devel/optee/optee_os/lib/libmpa/mpa_shift.c:227
    9d38:	0b020060 	add	w0, w3, w2
    9d3c:	7100007f 	cmp	w3, #0x0
    9d40:	4b020062 	sub	w2, w3, w2
    9d44:	1a80c042 	csel	w2, w2, w0, gt
    9d48:	b9000662 	str	w2, [x19,#4]
/home/pedro/devel/optee/optee_os/lib/libmpa/mpa_shift.c:232
    9d4c:	7100005f 	cmp	w2, #0x0
    9d50:	5a82a440 	cneg	w0, w2, lt
    9d54:	51000400 	sub	w0, w0, #0x1
    9d58:	8b20ca60 	add	x0, x19, w0, sxtw #2
    9d5c:	b9400800 	ldr	w0, [x0,#8]
    9d60:	35000080 	cbnz	w0, 9d70 <mpa_shift_right+0xec>
/home/pedro/devel/optee/optee_os/lib/libmpa/mpa_shift.c:233
    9d64:	540002ed 	b.le	9dc0 <mpa_shift_right+0x13c>
/home/pedro/devel/optee/optee_os/lib/libmpa/mpa_shift.c:234
    9d68:	51000442 	sub	w2, w2, #0x1
/home/pedro/devel/optee/optee_os/lib/libmpa/mpa_shift.c:236
    9d6c:	b9000662 	str	w2, [x19,#4]
/home/pedro/devel/optee/optee_os/lib/libmpa/mpa_shift.c:238
    9d70:	a94153f3 	ldp	x19, x20, [sp,#16]
    9d74:	a8c27bfd 	ldp	x29, x30, [sp],#32
    9d78:	d65f03c0 	ret
/home/pedro/devel/optee/optee_os/lib/libmpa/mpa_shift.c:212 (discriminator 3)
    9d7c:	8b214a64 	add	x4, x19, w1, uxtw #2
    9d80:	11000421 	add	w1, w1, #0x1
    9d84:	b9400884 	ldr	w4, [x4,#8]
    9d88:	b8004404 	str	w4, [x0],#4
    9d8c:	17ffffe9 	b	9d30 <mpa_shift_right+0xac>
/home/pedro/devel/optee/optee_os/lib/libmpa/mpa_shift.c:216 (discriminator 3)
    9d90:	8b214a61 	add	x1, x19, w1, uxtw #2
    9d94:	b9400827 	ldr	w7, [x1,#8]
/home/pedro/devel/optee/optee_os/lib/libmpa/mpa_shift.c:217 (discriminator 3)
    9d98:	8b284a61 	add	x1, x19, w8, uxtw #2
/home/pedro/devel/optee/optee_os/lib/libmpa/mpa_shift.c:216 (discriminator 3)
    9d9c:	b9000007 	str	w7, [x0]
/home/pedro/devel/optee/optee_os/lib/libmpa/mpa_shift.c:217 (discriminator 3)
    9da0:	b9400821 	ldr	w1, [x1,#8]
/home/pedro/devel/optee/optee_os/lib/libmpa/mpa_shift.c:219 (discriminator 3)
    9da4:	1ac424e7 	lsr	w7, w7, w4
/home/pedro/devel/optee/optee_os/lib/libmpa/mpa_shift.c:217 (discriminator 3)
    9da8:	0a0100a1 	and	w1, w5, w1
/home/pedro/devel/optee/optee_os/lib/libmpa/mpa_shift.c:219 (discriminator 3)
    9dac:	1ac92021 	lsl	w1, w1, w9
    9db0:	4a070021 	eor	w1, w1, w7
/home/pedro/devel/optee/optee_os/lib/libmpa/mpa_shift.c:218 (discriminator 3)
    9db4:	b8004401 	str	w1, [x0],#4
    9db8:	2a0803e1 	mov	w1, w8
    9dbc:	17ffffd0 	b	9cfc <mpa_shift_right+0x78>
/home/pedro/devel/optee/optee_os/lib/libmpa/mpa_shift.c:236
    9dc0:	11000442 	add	w2, w2, #0x1
    9dc4:	17ffffea 	b	9d6c <mpa_shift_right+0xe8>

0000000000009dc8 <__mpa_full_adder>:
__mpa_full_adder():
/home/pedro/devel/optee/optee_os/lib/libmpa/mpa_addsub.c:55
    9dc8:	b9400064 	ldr	w4, [x3]
    9dcc:	8b214081 	add	x1, x4, w1, uxtw
    9dd0:	8b204020 	add	x0, x1, w0, uxtw
/home/pedro/devel/optee/optee_os/lib/libmpa/mpa_addsub.c:56
    9dd4:	b9000040 	str	w0, [x2]
/home/pedro/devel/optee/optee_os/lib/libmpa/mpa_addsub.c:57
    9dd8:	d360fc00 	lsr	x0, x0, #32
    9ddc:	b9000060 	str	w0, [x3]
    9de0:	d65f03c0 	ret

0000000000009de4 <__mpa_full_sub>:
__mpa_full_sub():
/home/pedro/devel/optee/optee_os/lib/libmpa/mpa_addsub.c:78
    9de4:	2a0003e0 	mov	w0, w0
    9de8:	cb214001 	sub	x1, x0, w1, uxtw
    9dec:	b9400060 	ldr	w0, [x3]
    9df0:	cb000021 	sub	x1, x1, x0
/home/pedro/devel/optee/optee_os/lib/libmpa/mpa_addsub.c:79
    9df4:	b9000041 	str	w1, [x2]
/home/pedro/devel/optee/optee_os/lib/libmpa/mpa_addsub.c:80
    9df8:	d360fc21 	lsr	x1, x1, #32
    9dfc:	4b0103e1 	neg	w1, w1
    9e00:	b9000061 	str	w1, [x3]
    9e04:	d65f03c0 	ret

0000000000009e08 <__mpa_full_adder_ackum>:
__mpa_full_adder_ackum():
/home/pedro/devel/optee/optee_os/lib/libmpa/mpa_addsub.c:102
    9e08:	b9400043 	ldr	w3, [x2]
    9e0c:	8b214061 	add	x1, x3, w1, uxtw
    9e10:	b9400003 	ldr	w3, [x0]
    9e14:	8b030021 	add	x1, x1, x3
/home/pedro/devel/optee/optee_os/lib/libmpa/mpa_addsub.c:103
    9e18:	b9000001 	str	w1, [x0]
/home/pedro/devel/optee/optee_os/lib/libmpa/mpa_addsub.c:104
    9e1c:	d360fc21 	lsr	x1, x1, #32
    9e20:	b9000041 	str	w1, [x2]
    9e24:	d65f03c0 	ret

0000000000009e28 <__mpa_abs_add>:
__mpa_abs_add():
/home/pedro/devel/optee/optee_os/lib/libmpa/mpa_addsub.c:128
    9e28:	a9bd7bfd 	stp	x29, x30, [sp,#-48]!
/home/pedro/devel/optee/optee_os/lib/libmpa/mpa_addsub.c:138
    9e2c:	6b05007f 	cmp	w3, w5
/home/pedro/devel/optee/optee_os/lib/libmpa/mpa_addsub.c:128
    9e30:	910003fd 	mov	x29, sp
    9e34:	a90153f3 	stp	x19, x20, [sp,#16]
    9e38:	aa0003f4 	mov	x20, x0
    9e3c:	f90013f5 	str	x21, [sp,#32]
    9e40:	aa0103f5 	mov	x21, x1
/home/pedro/devel/optee/optee_os/lib/libmpa/mpa_addsub.c:138
    9e44:	540000ec 	b.gt	9e60 <__mpa_abs_add+0x38>
    9e48:	2a0503e0 	mov	w0, w5
    9e4c:	2a0303e5 	mov	w5, w3
    9e50:	2a0003e3 	mov	w3, w0
    9e54:	aa0403e0 	mov	x0, x4
/home/pedro/devel/optee/optee_os/lib/libmpa/mpa_addsub.c:145
    9e58:	aa0203e4 	mov	x4, x2
/home/pedro/devel/optee/optee_os/lib/libmpa/mpa_addsub.c:144
    9e5c:	aa0003e2 	mov	x2, x0
/home/pedro/devel/optee/optee_os/lib/libmpa/mpa_addsub.c:153
    9e60:	d2800001 	mov	x1, #0x0                   	// #0
/home/pedro/devel/optee/optee_os/lib/libmpa/mpa_addsub.c:151
    9e64:	52800008 	mov	w8, #0x0                   	// #0
/home/pedro/devel/optee/optee_os/lib/libmpa/mpa_addsub.c:153
    9e68:	6b0100bf 	cmp	w5, w1
    9e6c:	540001ac 	b.gt	9ea0 <__mpa_abs_add+0x78>
    9e70:	710000bf 	cmp	w5, #0x0
    9e74:	1a9fa0a5 	csel	w5, w5, wzr, ge
    9e78:	937e7ca1 	sbfiz	x1, x5, #2, #32
    9e7c:	8b010284 	add	x4, x20, x1
    9e80:	8b010041 	add	x1, x2, x1
/home/pedro/devel/optee/optee_os/lib/libmpa/mpa_addsub.c:157
    9e84:	6b05007f 	cmp	w3, w5
    9e88:	340002c8 	cbz	w8, 9ee0 <__mpa_abs_add+0xb8>
    9e8c:	91001080 	add	x0, x4, #0x4
/home/pedro/devel/optee/optee_os/lib/libmpa/mpa_addsub.c:157 (discriminator 1)
    9e90:	540001ac 	b.gt	9ec4 <__mpa_abs_add+0x9c>
/home/pedro/devel/optee/optee_os/lib/libmpa/mpa_addsub.c:169
    9e94:	52800021 	mov	w1, #0x1                   	// #1
    9e98:	b9000081 	str	w1, [x4]
    9e9c:	14000019 	b	9f00 <__mpa_abs_add+0xd8>
__mpa_full_adder():
/home/pedro/devel/optee/optee_os/lib/libmpa/mpa_addsub.c:55
    9ea0:	b8617886 	ldr	w6, [x4,x1,lsl #2]
    9ea4:	2a0803e0 	mov	w0, w8
    9ea8:	b8617847 	ldr	w7, [x2,x1,lsl #2]
    9eac:	8b0700c6 	add	x6, x6, x7
    9eb0:	8b0000c0 	add	x0, x6, x0
/home/pedro/devel/optee/optee_os/lib/libmpa/mpa_addsub.c:56
    9eb4:	b8217a80 	str	w0, [x20,x1,lsl #2]
/home/pedro/devel/optee/optee_os/lib/libmpa/mpa_addsub.c:57
    9eb8:	d360fc08 	lsr	x8, x0, #32
    9ebc:	91000421 	add	x1, x1, #0x1
    9ec0:	17ffffea 	b	9e68 <__mpa_abs_add+0x40>
__mpa_abs_add():
/home/pedro/devel/optee/optee_os/lib/libmpa/mpa_addsub.c:158
    9ec4:	aa0003e4 	mov	x4, x0
__mpa_full_adder():
/home/pedro/devel/optee/optee_os/lib/libmpa/mpa_addsub.c:55
    9ec8:	b8404420 	ldr	w0, [x1],#4
__mpa_abs_add():
/home/pedro/devel/optee/optee_os/lib/libmpa/mpa_addsub.c:159
    9ecc:	110004a5 	add	w5, w5, #0x1
__mpa_full_adder():
/home/pedro/devel/optee/optee_os/lib/libmpa/mpa_addsub.c:55
    9ed0:	91000400 	add	x0, x0, #0x1
/home/pedro/devel/optee/optee_os/lib/libmpa/mpa_addsub.c:57
    9ed4:	d360fc08 	lsr	x8, x0, #32
/home/pedro/devel/optee/optee_os/lib/libmpa/mpa_addsub.c:56
    9ed8:	b81fc080 	stur	w0, [x4,#-4]
    9edc:	17ffffea 	b	9e84 <__mpa_abs_add+0x5c>
__mpa_abs_add():
/home/pedro/devel/optee/optee_os/lib/libmpa/mpa_addsub.c:162
    9ee0:	540000ed 	b.le	9efc <__mpa_abs_add+0xd4>
/home/pedro/devel/optee/optee_os/lib/libmpa/mpa_addsub.c:164
    9ee4:	4b050073 	sub	w19, w3, w5
    9ee8:	aa0403e0 	mov	x0, x4
    9eec:	531e7662 	lsl	w2, w19, #2
    9ef0:	93407c42 	sxtw	x2, w2
    9ef4:	97fff24c 	bl	6824 <memcpy>
/home/pedro/devel/optee/optee_os/lib/libmpa/mpa_addsub.c:165
    9ef8:	8b33c804 	add	x4, x0, w19, sxtw #2
/home/pedro/devel/optee/optee_os/lib/libmpa/mpa_addsub.c:151
    9efc:	aa0403e0 	mov	x0, x4
/home/pedro/devel/optee/optee_os/lib/libmpa/mpa_addsub.c:170
    9f00:	cb140001 	sub	x1, x0, x20
    9f04:	9342fc20 	asr	x0, x1, #2
    9f08:	b90002a0 	str	w0, [x21]
/home/pedro/devel/optee/optee_os/lib/libmpa/mpa_addsub.c:171
    9f0c:	a94153f3 	ldp	x19, x20, [sp,#16]
    9f10:	f94013f5 	ldr	x21, [sp,#32]
    9f14:	a8c37bfd 	ldp	x29, x30, [sp],#48
    9f18:	d65f03c0 	ret

0000000000009f1c <__mpa_abs_add_ackum>:
__mpa_abs_add_ackum():
/home/pedro/devel/optee/optee_os/lib/libmpa/mpa_addsub.c:180
    9f1c:	a9bb7bfd 	stp	x29, x30, [sp,#-80]!
    9f20:	910003fd 	mov	x29, sp
    9f24:	a90153f3 	stp	x19, x20, [sp,#16]
/home/pedro/devel/optee/optee_os/lib/libmpa/mpa_addsub.c:191
    9f28:	91002014 	add	x20, x0, #0x8
/home/pedro/devel/optee/optee_os/lib/libmpa/mpa_addsub.c:180
    9f2c:	a9025bf5 	stp	x21, x22, [sp,#32]
    9f30:	aa0003f3 	mov	x19, x0
    9f34:	a90363f7 	stp	x23, x24, [sp,#48]
    9f38:	aa0103f5 	mov	x21, x1
/home/pedro/devel/optee/optee_os/lib/libmpa/mpa_addsub.c:188
    9f3c:	b9400400 	ldr	w0, [x0,#4]
/home/pedro/devel/optee/optee_os/lib/libmpa/mpa_addsub.c:194
    9f40:	91002038 	add	x24, x1, #0x8
/home/pedro/devel/optee/optee_os/lib/libmpa/mpa_addsub.c:188
    9f44:	b9400421 	ldr	w1, [x1,#4]
/home/pedro/devel/optee/optee_os/lib/libmpa/mpa_addsub.c:197
    9f48:	910143b7 	add	x23, x29, #0x50
/home/pedro/devel/optee/optee_os/lib/libmpa/mpa_addsub.c:198
    9f4c:	d2800016 	mov	x22, #0x0                   	// #0
/home/pedro/devel/optee/optee_os/lib/libmpa/mpa_addsub.c:191
    9f50:	6b000022 	subs	w2, w1, w0
    9f54:	52800001 	mov	w1, #0x0                   	// #0
    9f58:	1a9f5042 	csel	w2, w2, wzr, pl
    9f5c:	8b20ca80 	add	x0, x20, w0, sxtw #2
    9f60:	11000442 	add	w2, w2, #0x1
    9f64:	531e7442 	lsl	w2, w2, #2
    9f68:	93407c42 	sxtw	x2, w2
    9f6c:	97fff249 	bl	6890 <memset>
/home/pedro/devel/optee/optee_os/lib/libmpa/mpa_addsub.c:197
    9f70:	b81fceff 	str	wzr, [x23,#-4]!
/home/pedro/devel/optee/optee_os/lib/libmpa/mpa_addsub.c:198
    9f74:	b94006a1 	ldr	w1, [x21,#4]
    9f78:	8b160a80 	add	x0, x20, x22, lsl #2
    9f7c:	6b16003f 	cmp	w1, w22
    9f80:	540001ec 	b.gt	9fbc <__mpa_abs_add_ackum+0xa0>
/home/pedro/devel/optee/optee_os/lib/libmpa/mpa_addsub.c:209
    9f84:	910133b6 	add	x22, x29, #0x4c
/home/pedro/devel/optee/optee_os/lib/libmpa/mpa_addsub.c:208
    9f88:	b9404fa1 	ldr	w1, [x29,#76]
    9f8c:	35000221 	cbnz	w1, 9fd0 <__mpa_abs_add_ackum+0xb4>
/home/pedro/devel/optee/optee_os/lib/libmpa/mpa_addsub.c:216
    9f90:	cb140000 	sub	x0, x0, x20
/home/pedro/devel/optee/optee_os/lib/libmpa/mpa_addsub.c:217
    9f94:	b9400661 	ldr	w1, [x19,#4]
/home/pedro/devel/optee/optee_os/lib/libmpa/mpa_addsub.c:216
    9f98:	9342fc02 	asr	x2, x0, #2
/home/pedro/devel/optee/optee_os/lib/libmpa/mpa_addsub.c:217
    9f9c:	6b01005f 	cmp	w2, w1
    9fa0:	5400004d 	b.le	9fa8 <__mpa_abs_add_ackum+0x8c>
/home/pedro/devel/optee/optee_os/lib/libmpa/mpa_addsub.c:218
    9fa4:	b9000662 	str	w2, [x19,#4]
/home/pedro/devel/optee/optee_os/lib/libmpa/mpa_addsub.c:219
    9fa8:	a94153f3 	ldp	x19, x20, [sp,#16]
    9fac:	a9425bf5 	ldp	x21, x22, [sp,#32]
    9fb0:	a94363f7 	ldp	x23, x24, [sp,#48]
    9fb4:	a8c57bfd 	ldp	x29, x30, [sp],#80
    9fb8:	d65f03c0 	ret
/home/pedro/devel/optee/optee_os/lib/libmpa/mpa_addsub.c:199
    9fbc:	b8767b01 	ldr	w1, [x24,x22,lsl #2]
    9fc0:	aa1703e2 	mov	x2, x23
    9fc4:	910006d6 	add	x22, x22, #0x1
    9fc8:	97ffff90 	bl	9e08 <__mpa_full_adder_ackum>
    9fcc:	17ffffea 	b	9f74 <__mpa_abs_add_ackum+0x58>
/home/pedro/devel/optee/optee_os/lib/libmpa/mpa_addsub.c:209
    9fd0:	91001015 	add	x21, x0, #0x4
    9fd4:	aa1603e2 	mov	x2, x22
    9fd8:	52800001 	mov	w1, #0x0                   	// #0
    9fdc:	97ffff8b 	bl	9e08 <__mpa_full_adder_ackum>
    9fe0:	aa1503e0 	mov	x0, x21
    9fe4:	17ffffe9 	b	9f88 <__mpa_abs_add_ackum+0x6c>

0000000000009fe8 <__mpa_abs_sub>:
__mpa_abs_sub():
/home/pedro/devel/optee/optee_os/lib/libmpa/mpa_addsub.c:234
    9fe8:	a9ba7bfd 	stp	x29, x30, [sp,#-96]!
    9fec:	910003fd 	mov	x29, sp
    9ff0:	a9046bf9 	stp	x25, x26, [sp,#64]
/home/pedro/devel/optee/optee_os/lib/libmpa/mpa_addsub.c:238
    9ff4:	910183b9 	add	x25, x29, #0x60
/home/pedro/devel/optee/optee_os/lib/libmpa/mpa_addsub.c:234
    9ff8:	a90153f3 	stp	x19, x20, [sp,#16]
    9ffc:	aa0403fa 	mov	x26, x4
    a000:	a9025bf5 	stp	x21, x22, [sp,#32]
    a004:	2a0303f4 	mov	w20, w3
    a008:	a90363f7 	stp	x23, x24, [sp,#48]
    a00c:	aa0103f5 	mov	x21, x1
    a010:	aa0003f7 	mov	x23, x0
    a014:	aa0203f8 	mov	x24, x2
    a018:	2a0503f6 	mov	w22, w5
/home/pedro/devel/optee/optee_os/lib/libmpa/mpa_addsub.c:238
    a01c:	b81fcf3f 	str	wzr, [x25,#-4]!
/home/pedro/devel/optee/optee_os/lib/libmpa/mpa_addsub.c:240
    a020:	d2800013 	mov	x19, #0x0                   	// #0
    a024:	8b130ae2 	add	x2, x23, x19, lsl #2
    a028:	6b1302df 	cmp	w22, w19
    a02c:	5400028c 	b.gt	a07c <__mpa_abs_sub+0x94>
    a030:	710002df 	cmp	w22, #0x0
    a034:	1a9fa2d3 	csel	w19, w22, wzr, ge
    a038:	937e7e60 	sbfiz	x0, x19, #2, #32
    a03c:	8b000316 	add	x22, x24, x0
    a040:	8b0002e4 	add	x4, x23, x0
/home/pedro/devel/optee/optee_os/lib/libmpa/mpa_addsub.c:249
    a044:	910173b8 	add	x24, x29, #0x5c
/home/pedro/devel/optee/optee_os/lib/libmpa/mpa_addsub.c:248
    a048:	b9405fa0 	ldr	w0, [x29,#92]
    a04c:	6b14027f 	cmp	w19, w20
    a050:	34000340 	cbz	w0, a0b8 <__mpa_abs_sub+0xd0>
/home/pedro/devel/optee/optee_os/lib/libmpa/mpa_addsub.c:248 (discriminator 1)
    a054:	5400020b 	b.lt	a094 <__mpa_abs_sub+0xac>
/home/pedro/devel/optee/optee_os/lib/libmpa/mpa_addsub.c:263
    a058:	7100029f 	cmp	w20, #0x0
    a05c:	5400040c 	b.gt	a0dc <__mpa_abs_sub+0xf4>
/home/pedro/devel/optee/optee_os/lib/libmpa/mpa_addsub.c:265
    a060:	b90002b4 	str	w20, [x21]
/home/pedro/devel/optee/optee_os/lib/libmpa/mpa_addsub.c:266
    a064:	a94363f7 	ldp	x23, x24, [sp,#48]
    a068:	a94153f3 	ldp	x19, x20, [sp,#16]
    a06c:	a9425bf5 	ldp	x21, x22, [sp,#32]
    a070:	a9446bf9 	ldp	x25, x26, [sp,#64]
    a074:	a8c67bfd 	ldp	x29, x30, [sp],#96
    a078:	d65f03c0 	ret
/home/pedro/devel/optee/optee_os/lib/libmpa/mpa_addsub.c:241
    a07c:	b8737b41 	ldr	w1, [x26,x19,lsl #2]
    a080:	aa1903e3 	mov	x3, x25
    a084:	b8737b00 	ldr	w0, [x24,x19,lsl #2]
    a088:	91000673 	add	x19, x19, #0x1
    a08c:	97ffff56 	bl	9de4 <__mpa_full_sub>
    a090:	17ffffe5 	b	a024 <__mpa_abs_sub+0x3c>
/home/pedro/devel/optee/optee_os/lib/libmpa/mpa_addsub.c:249
    a094:	b84046c0 	ldr	w0, [x22],#4
    a098:	91001097 	add	x23, x4, #0x4
    a09c:	aa0403e2 	mov	x2, x4
    a0a0:	aa1803e3 	mov	x3, x24
    a0a4:	52800001 	mov	w1, #0x0                   	// #0
/home/pedro/devel/optee/optee_os/lib/libmpa/mpa_addsub.c:250
    a0a8:	11000673 	add	w19, w19, #0x1
/home/pedro/devel/optee/optee_os/lib/libmpa/mpa_addsub.c:249
    a0ac:	97ffff4e 	bl	9de4 <__mpa_full_sub>
    a0b0:	aa1703e4 	mov	x4, x23
    a0b4:	17ffffe5 	b	a048 <__mpa_abs_sub+0x60>
/home/pedro/devel/optee/optee_os/lib/libmpa/mpa_addsub.c:253
    a0b8:	54fffd0a 	b.ge	a058 <__mpa_abs_sub+0x70>
/home/pedro/devel/optee/optee_os/lib/libmpa/mpa_addsub.c:258
    a0bc:	4b130293 	sub	w19, w20, w19
    a0c0:	aa0403e0 	mov	x0, x4
    a0c4:	531e7662 	lsl	w2, w19, #2
    a0c8:	aa1603e1 	mov	x1, x22
    a0cc:	93407c42 	sxtw	x2, w2
    a0d0:	97fff1d5 	bl	6824 <memcpy>
/home/pedro/devel/optee/optee_os/lib/libmpa/mpa_addsub.c:259
    a0d4:	8b33c804 	add	x4, x0, w19, sxtw #2
/home/pedro/devel/optee/optee_os/lib/libmpa/mpa_addsub.c:263
    a0d8:	17ffffe0 	b	a058 <__mpa_abs_sub+0x70>
/home/pedro/devel/optee/optee_os/lib/libmpa/mpa_addsub.c:263 (discriminator 1)
    a0dc:	b85fcc80 	ldr	w0, [x4,#-4]!
    a0e0:	35fffc00 	cbnz	w0, a060 <__mpa_abs_sub+0x78>
/home/pedro/devel/optee/optee_os/lib/libmpa/mpa_addsub.c:264
    a0e4:	51000694 	sub	w20, w20, #0x1
    a0e8:	17ffffdc 	b	a058 <__mpa_abs_sub+0x70>

000000000000a0ec <mpa_add>:
mpa_add():
/home/pedro/devel/optee/optee_os/lib/libmpa/mpa_addsub.c:282
    a0ec:	a9b97bfd 	stp	x29, x30, [sp,#-112]!
    a0f0:	910003fd 	mov	x29, sp
    a0f4:	a90363f7 	stp	x23, x24, [sp,#48]
    a0f8:	aa0203f8 	mov	x24, x2
/home/pedro/devel/optee/optee_os/lib/libmpa/mpa_addsub.c:290
    a0fc:	b9400422 	ldr	w2, [x1,#4]
/home/pedro/devel/optee/optee_os/lib/libmpa/mpa_addsub.c:282
    a100:	aa0103f7 	mov	x23, x1
    a104:	a9025bf5 	stp	x21, x22, [sp,#32]
/home/pedro/devel/optee/optee_os/lib/libmpa/mpa_addsub.c:291
    a108:	b9400701 	ldr	w1, [x24,#4]
/home/pedro/devel/optee/optee_os/lib/libmpa/mpa_addsub.c:290
    a10c:	7100005f 	cmp	w2, #0x0
    a110:	5a82a456 	cneg	w22, w2, lt
/home/pedro/devel/optee/optee_os/lib/libmpa/mpa_addsub.c:282
    a114:	a90153f3 	stp	x19, x20, [sp,#16]
/home/pedro/devel/optee/optee_os/lib/libmpa/mpa_addsub.c:291
    a118:	7100003f 	cmp	w1, #0x0
/home/pedro/devel/optee/optee_os/lib/libmpa/mpa_addsub.c:282
    a11c:	a9046bf9 	stp	x25, x26, [sp,#64]
/home/pedro/devel/optee/optee_os/lib/libmpa/mpa_addsub.c:291
    a120:	5a81a434 	cneg	w20, w1, lt
/home/pedro/devel/optee/optee_os/lib/libmpa/mpa_addsub.c:282
    a124:	aa0003f9 	mov	x25, x0
/home/pedro/devel/optee/optee_os/lib/libmpa/mpa_addsub.c:293
    a128:	12800000 	mov	w0, #0xffffffff            	// #-1
    a12c:	6b00005f 	cmp	w2, w0
/home/pedro/devel/optee/optee_os/lib/libmpa/mpa_addsub.c:282
    a130:	a90573fb 	stp	x27, x28, [sp,#80]
/home/pedro/devel/optee/optee_os/lib/libmpa/mpa_addsub.c:293
    a134:	5a80d41c 	cneg	w28, w0, gt
/home/pedro/devel/optee/optee_os/lib/libmpa/mpa_addsub.c:294
    a138:	6b00003f 	cmp	w1, w0
/home/pedro/devel/optee/optee_os/lib/libmpa/mpa_addsub.c:282
    a13c:	aa0303fa 	mov	x26, x3
/home/pedro/devel/optee/optee_os/lib/libmpa/mpa_addsub.c:294
    a140:	5a80d413 	cneg	w19, w0, gt
/home/pedro/devel/optee/optee_os/lib/libmpa/mpa_addsub.c:297
    a144:	eb1902ff 	cmp	x23, x25
    a148:	1a9f17fb 	cset	w27, eq
    a14c:	eb19031f 	cmp	x24, x25
    a150:	1a9f17e0 	cset	w0, eq
    a154:	2a00037b 	orr	w27, w27, w0
/home/pedro/devel/optee/optee_os/lib/libmpa/mpa_addsub.c:298
    a158:	3400049b 	cbz	w27, a1e8 <mpa_add+0xfc>
/home/pedro/devel/optee/optee_os/lib/libmpa/mpa_addsub.c:299
    a15c:	aa0303e1 	mov	x1, x3
    a160:	9101a3a0 	add	x0, x29, #0x68
    a164:	97fffcd0 	bl	94a4 <mpa_alloc_static_temp_var>
/home/pedro/devel/optee/optee_os/lib/libmpa/mpa_addsub.c:307
    a168:	6b13039f 	cmp	w28, w19
    a16c:	910022f5 	add	x21, x23, #0x8
    a170:	91002313 	add	x19, x24, #0x8
    a174:	540003e1 	b.ne	a1f0 <mpa_add+0x104>
/home/pedro/devel/optee/optee_os/lib/libmpa/mpa_addsub.c:309
    a178:	f94037a0 	ldr	x0, [x29,#104]
    a17c:	2a1403e5 	mov	w5, w20
    a180:	aa1303e4 	mov	x4, x19
    a184:	2a1603e3 	mov	w3, w22
    a188:	91001001 	add	x1, x0, #0x4
    a18c:	aa1503e2 	mov	x2, x21
    a190:	91002000 	add	x0, x0, #0x8
    a194:	97ffff25 	bl	9e28 <__mpa_abs_add>
/home/pedro/devel/optee/optee_os/lib/libmpa/mpa_addsub.c:312
    a198:	3100079f 	cmn	w28, #0x1
    a19c:	540000a1 	b.ne	a1b0 <mpa_add+0xc4>
/home/pedro/devel/optee/optee_os/lib/libmpa/mpa_addsub.c:328
    a1a0:	f94037a1 	ldr	x1, [x29,#104]
    a1a4:	b9400420 	ldr	w0, [x1,#4]
    a1a8:	4b0003e0 	neg	w0, w0
    a1ac:	b9000420 	str	w0, [x1,#4]
/home/pedro/devel/optee/optee_os/lib/libmpa/mpa_addsub.c:347
    a1b0:	f94037a1 	ldr	x1, [x29,#104]
    a1b4:	aa1903e0 	mov	x0, x25
    a1b8:	97fff5a9 	bl	785c <mpa_copy>
/home/pedro/devel/optee/optee_os/lib/libmpa/mpa_addsub.c:348
    a1bc:	3400009b 	cbz	w27, a1cc <mpa_add+0xe0>
/home/pedro/devel/optee/optee_os/lib/libmpa/mpa_addsub.c:349
    a1c0:	aa1a03e1 	mov	x1, x26
    a1c4:	9101a3a0 	add	x0, x29, #0x68
    a1c8:	97fffcbb 	bl	94b4 <mpa_free_static_temp_var>
/home/pedro/devel/optee/optee_os/lib/libmpa/mpa_addsub.c:350
    a1cc:	a94153f3 	ldp	x19, x20, [sp,#16]
    a1d0:	a9425bf5 	ldp	x21, x22, [sp,#32]
    a1d4:	a94363f7 	ldp	x23, x24, [sp,#48]
    a1d8:	a9446bf9 	ldp	x25, x26, [sp,#64]
    a1dc:	a94573fb 	ldp	x27, x28, [sp,#80]
    a1e0:	a8c77bfd 	ldp	x29, x30, [sp],#112
    a1e4:	d65f03c0 	ret
/home/pedro/devel/optee/optee_os/lib/libmpa/mpa_addsub.c:301
    a1e8:	f90037b9 	str	x25, [x29,#104]
    a1ec:	17ffffdf 	b	a168 <mpa_add+0x7c>
/home/pedro/devel/optee/optee_os/lib/libmpa/mpa_addsub.c:317
    a1f0:	aa1803e1 	mov	x1, x24
    a1f4:	aa1703e0 	mov	x0, x23
/home/pedro/devel/optee/optee_os/lib/libmpa/mpa_addsub.c:316
    a1f8:	7100079f 	cmp	w28, #0x1
    a1fc:	54000281 	b.ne	a24c <mpa_add+0x160>
/home/pedro/devel/optee/optee_os/lib/libmpa/mpa_addsub.c:317
    a200:	9400015b 	bl	a76c <__mpa_abs_greater_than>
    a204:	f94037a6 	ldr	x6, [x29,#104]
    a208:	34000120 	cbz	w0, a22c <mpa_add+0x140>
/home/pedro/devel/optee/optee_os/lib/libmpa/mpa_addsub.c:321
    a20c:	2a1403e5 	mov	w5, w20
    a210:	aa1303e4 	mov	x4, x19
    a214:	2a1603e3 	mov	w3, w22
    a218:	aa1503e2 	mov	x2, x21
/home/pedro/devel/optee/optee_os/lib/libmpa/mpa_addsub.c:341
    a21c:	910010c1 	add	x1, x6, #0x4
    a220:	910020c0 	add	x0, x6, #0x8
    a224:	97ffff71 	bl	9fe8 <__mpa_abs_sub>
    a228:	17ffffe2 	b	a1b0 <mpa_add+0xc4>
/home/pedro/devel/optee/optee_os/lib/libmpa/mpa_addsub.c:326
    a22c:	2a1603e5 	mov	w5, w22
    a230:	aa1503e4 	mov	x4, x21
    a234:	2a1403e3 	mov	w3, w20
    a238:	aa1303e2 	mov	x2, x19
    a23c:	910010c1 	add	x1, x6, #0x4
    a240:	910020c0 	add	x0, x6, #0x8
    a244:	97ffff69 	bl	9fe8 <__mpa_abs_sub>
    a248:	17ffffd6 	b	a1a0 <mpa_add+0xb4>
/home/pedro/devel/optee/optee_os/lib/libmpa/mpa_addsub.c:332
    a24c:	94000148 	bl	a76c <__mpa_abs_greater_than>
    a250:	f94037a6 	ldr	x6, [x29,#104]
    a254:	340000c0 	cbz	w0, a26c <mpa_add+0x180>
/home/pedro/devel/optee/optee_os/lib/libmpa/mpa_addsub.c:336
    a258:	2a1403e5 	mov	w5, w20
    a25c:	aa1303e4 	mov	x4, x19
    a260:	2a1603e3 	mov	w3, w22
    a264:	aa1503e2 	mov	x2, x21
    a268:	17fffff5 	b	a23c <mpa_add+0x150>
/home/pedro/devel/optee/optee_os/lib/libmpa/mpa_addsub.c:341
    a26c:	2a1603e5 	mov	w5, w22
    a270:	aa1503e4 	mov	x4, x21
    a274:	2a1403e3 	mov	w3, w20
    a278:	aa1303e2 	mov	x2, x19
    a27c:	17ffffe8 	b	a21c <mpa_add+0x130>

000000000000a280 <mpa_sub>:
mpa_sub():
/home/pedro/devel/optee/optee_os/lib/libmpa/mpa_addsub.c:360
    a280:	a9b97bfd 	stp	x29, x30, [sp,#-112]!
    a284:	910003fd 	mov	x29, sp
    a288:	a90363f7 	stp	x23, x24, [sp,#48]
    a28c:	aa0203f8 	mov	x24, x2
/home/pedro/devel/optee/optee_os/lib/libmpa/mpa_addsub.c:368
    a290:	b9400422 	ldr	w2, [x1,#4]
/home/pedro/devel/optee/optee_os/lib/libmpa/mpa_addsub.c:360
    a294:	aa0103f7 	mov	x23, x1
    a298:	a90153f3 	stp	x19, x20, [sp,#16]
/home/pedro/devel/optee/optee_os/lib/libmpa/mpa_addsub.c:369
    a29c:	b9400701 	ldr	w1, [x24,#4]
/home/pedro/devel/optee/optee_os/lib/libmpa/mpa_addsub.c:368
    a2a0:	7100005f 	cmp	w2, #0x0
    a2a4:	5a82a454 	cneg	w20, w2, lt
/home/pedro/devel/optee/optee_os/lib/libmpa/mpa_addsub.c:360
    a2a8:	a9046bf9 	stp	x25, x26, [sp,#64]
/home/pedro/devel/optee/optee_os/lib/libmpa/mpa_addsub.c:369
    a2ac:	7100003f 	cmp	w1, #0x0
/home/pedro/devel/optee/optee_os/lib/libmpa/mpa_addsub.c:360
    a2b0:	aa0003f9 	mov	x25, x0
    a2b4:	a9025bf5 	stp	x21, x22, [sp,#32]
/home/pedro/devel/optee/optee_os/lib/libmpa/mpa_addsub.c:371
    a2b8:	12800000 	mov	w0, #0xffffffff            	// #-1
/home/pedro/devel/optee/optee_os/lib/libmpa/mpa_addsub.c:369
    a2bc:	5a81a436 	cneg	w22, w1, lt
/home/pedro/devel/optee/optee_os/lib/libmpa/mpa_addsub.c:371
    a2c0:	6b00005f 	cmp	w2, w0
/home/pedro/devel/optee/optee_os/lib/libmpa/mpa_addsub.c:360
    a2c4:	a90573fb 	stp	x27, x28, [sp,#80]
/home/pedro/devel/optee/optee_os/lib/libmpa/mpa_addsub.c:371
    a2c8:	5a80d41c 	cneg	w28, w0, gt
/home/pedro/devel/optee/optee_os/lib/libmpa/mpa_addsub.c:372
    a2cc:	6b00003f 	cmp	w1, w0
/home/pedro/devel/optee/optee_os/lib/libmpa/mpa_addsub.c:360
    a2d0:	aa0303fa 	mov	x26, x3
/home/pedro/devel/optee/optee_os/lib/libmpa/mpa_addsub.c:372
    a2d4:	5a80d413 	cneg	w19, w0, gt
/home/pedro/devel/optee/optee_os/lib/libmpa/mpa_addsub.c:375
    a2d8:	eb1902ff 	cmp	x23, x25
    a2dc:	1a9f17fb 	cset	w27, eq
    a2e0:	eb19031f 	cmp	x24, x25
    a2e4:	1a9f17e0 	cset	w0, eq
    a2e8:	2a00037b 	orr	w27, w27, w0
/home/pedro/devel/optee/optee_os/lib/libmpa/mpa_addsub.c:376
    a2ec:	3400049b 	cbz	w27, a37c <mpa_sub+0xfc>
/home/pedro/devel/optee/optee_os/lib/libmpa/mpa_addsub.c:377
    a2f0:	aa0303e1 	mov	x1, x3
    a2f4:	9101a3a0 	add	x0, x29, #0x68
    a2f8:	97fffc6b 	bl	94a4 <mpa_alloc_static_temp_var>
/home/pedro/devel/optee/optee_os/lib/libmpa/mpa_addsub.c:385
    a2fc:	6b13039f 	cmp	w28, w19
    a300:	91002315 	add	x21, x24, #0x8
    a304:	910022f3 	add	x19, x23, #0x8
    a308:	54000701 	b.ne	a3e8 <mpa_sub+0x168>
/home/pedro/devel/optee/optee_os/lib/libmpa/mpa_addsub.c:387
    a30c:	aa1803e1 	mov	x1, x24
    a310:	aa1703e0 	mov	x0, x23
/home/pedro/devel/optee/optee_os/lib/libmpa/mpa_addsub.c:386
    a314:	7100079f 	cmp	w28, #0x1
    a318:	540004e1 	b.ne	a3b4 <mpa_sub+0x134>
/home/pedro/devel/optee/optee_os/lib/libmpa/mpa_addsub.c:387
    a31c:	94000114 	bl	a76c <__mpa_abs_greater_than>
    a320:	f94037a6 	ldr	x6, [x29,#104]
    a324:	34000300 	cbz	w0, a384 <mpa_sub+0x104>
/home/pedro/devel/optee/optee_os/lib/libmpa/mpa_addsub.c:390
    a328:	2a1603e5 	mov	w5, w22
    a32c:	aa1503e4 	mov	x4, x21
    a330:	2a1403e3 	mov	w3, w20
    a334:	aa1303e2 	mov	x2, x19
/home/pedro/devel/optee/optee_os/lib/libmpa/mpa_addsub.c:410
    a338:	910010c1 	add	x1, x6, #0x4
    a33c:	910020c0 	add	x0, x6, #0x8
    a340:	97ffff2a 	bl	9fe8 <__mpa_abs_sub>
/home/pedro/devel/optee/optee_os/lib/libmpa/mpa_addsub.c:427
    a344:	f94037a1 	ldr	x1, [x29,#104]
    a348:	aa1903e0 	mov	x0, x25
    a34c:	97fff544 	bl	785c <mpa_copy>
/home/pedro/devel/optee/optee_os/lib/libmpa/mpa_addsub.c:428
    a350:	3400009b 	cbz	w27, a360 <mpa_sub+0xe0>
/home/pedro/devel/optee/optee_os/lib/libmpa/mpa_addsub.c:429
    a354:	aa1a03e1 	mov	x1, x26
    a358:	9101a3a0 	add	x0, x29, #0x68
    a35c:	97fffc56 	bl	94b4 <mpa_free_static_temp_var>
/home/pedro/devel/optee/optee_os/lib/libmpa/mpa_addsub.c:430
    a360:	a94153f3 	ldp	x19, x20, [sp,#16]
    a364:	a9425bf5 	ldp	x21, x22, [sp,#32]
    a368:	a94363f7 	ldp	x23, x24, [sp,#48]
    a36c:	a9446bf9 	ldp	x25, x26, [sp,#64]
    a370:	a94573fb 	ldp	x27, x28, [sp,#80]
    a374:	a8c77bfd 	ldp	x29, x30, [sp],#112
    a378:	d65f03c0 	ret
/home/pedro/devel/optee/optee_os/lib/libmpa/mpa_addsub.c:379
    a37c:	f90037b9 	str	x25, [x29,#104]
    a380:	17ffffdf 	b	a2fc <mpa_sub+0x7c>
/home/pedro/devel/optee/optee_os/lib/libmpa/mpa_addsub.c:394
    a384:	2a1403e5 	mov	w5, w20
    a388:	aa1303e4 	mov	x4, x19
    a38c:	2a1603e3 	mov	w3, w22
    a390:	aa1503e2 	mov	x2, x21
/home/pedro/devel/optee/optee_os/lib/libmpa/mpa_addsub.c:405
    a394:	910010c1 	add	x1, x6, #0x4
    a398:	910020c0 	add	x0, x6, #0x8
    a39c:	97ffff13 	bl	9fe8 <__mpa_abs_sub>
/home/pedro/devel/optee/optee_os/lib/libmpa/mpa_addsub.c:423
    a3a0:	f94037a1 	ldr	x1, [x29,#104]
    a3a4:	b9400420 	ldr	w0, [x1,#4]
    a3a8:	4b0003e0 	neg	w0, w0
    a3ac:	b9000420 	str	w0, [x1,#4]
    a3b0:	17ffffe5 	b	a344 <mpa_sub+0xc4>
/home/pedro/devel/optee/optee_os/lib/libmpa/mpa_addsub.c:401
    a3b4:	940000ee 	bl	a76c <__mpa_abs_greater_than>
    a3b8:	f94037a6 	ldr	x6, [x29,#104]
    a3bc:	340000c0 	cbz	w0, a3d4 <mpa_sub+0x154>
/home/pedro/devel/optee/optee_os/lib/libmpa/mpa_addsub.c:405
    a3c0:	2a1603e5 	mov	w5, w22
    a3c4:	aa1503e4 	mov	x4, x21
    a3c8:	2a1403e3 	mov	w3, w20
    a3cc:	aa1303e2 	mov	x2, x19
    a3d0:	17fffff1 	b	a394 <mpa_sub+0x114>
/home/pedro/devel/optee/optee_os/lib/libmpa/mpa_addsub.c:410
    a3d4:	2a1403e5 	mov	w5, w20
    a3d8:	aa1303e4 	mov	x4, x19
    a3dc:	2a1603e3 	mov	w3, w22
    a3e0:	aa1503e2 	mov	x2, x21
    a3e4:	17ffffd5 	b	a338 <mpa_sub+0xb8>
    a3e8:	f94037a0 	ldr	x0, [x29,#104]
/home/pedro/devel/optee/optee_os/lib/libmpa/mpa_addsub.c:417
    a3ec:	2a1603e5 	mov	w5, w22
    a3f0:	aa1503e4 	mov	x4, x21
    a3f4:	2a1403e3 	mov	w3, w20
    a3f8:	91001001 	add	x1, x0, #0x4
    a3fc:	aa1303e2 	mov	x2, x19
/home/pedro/devel/optee/optee_os/lib/libmpa/mpa_addsub.c:415
    a400:	7100079f 	cmp	w28, #0x1
/home/pedro/devel/optee/optee_os/lib/libmpa/mpa_addsub.c:417
    a404:	91002000 	add	x0, x0, #0x8
/home/pedro/devel/optee/optee_os/lib/libmpa/mpa_addsub.c:415
    a408:	54000061 	b.ne	a414 <mpa_sub+0x194>
/home/pedro/devel/optee/optee_os/lib/libmpa/mpa_addsub.c:417
    a40c:	97fffe87 	bl	9e28 <__mpa_abs_add>
    a410:	17ffffcd 	b	a344 <mpa_sub+0xc4>
/home/pedro/devel/optee/optee_os/lib/libmpa/mpa_addsub.c:421
    a414:	97fffe85 	bl	9e28 <__mpa_abs_add>
    a418:	17ffffe2 	b	a3a0 <mpa_sub+0x120>

000000000000a41c <mpa_neg>:
mpa_neg():
/home/pedro/devel/optee/optee_os/lib/libmpa/mpa_addsub.c:439
    a41c:	a9be7bfd 	stp	x29, x30, [sp,#-32]!
    a420:	910003fd 	mov	x29, sp
    a424:	f9000bf3 	str	x19, [sp,#16]
    a428:	aa0003f3 	mov	x19, x0
/home/pedro/devel/optee/optee_os/lib/libmpa/mpa_addsub.c:440
    a42c:	97fff50c 	bl	785c <mpa_copy>
/home/pedro/devel/optee/optee_os/lib/libmpa/mpa_addsub.c:441
    a430:	b9400660 	ldr	w0, [x19,#4]
    a434:	4b0003e0 	neg	w0, w0
    a438:	b9000660 	str	w0, [x19,#4]
/home/pedro/devel/optee/optee_os/lib/libmpa/mpa_addsub.c:442
    a43c:	f9400bf3 	ldr	x19, [sp,#16]
    a440:	a8c27bfd 	ldp	x29, x30, [sp],#32
    a444:	d65f03c0 	ret

000000000000a448 <mpa_add_word>:
mpa_add_word():
/home/pedro/devel/optee/optee_os/lib/libmpa/mpa_addsub.c:451
    a448:	a9ba7bfd 	stp	x29, x30, [sp,#-96]!
    a44c:	910003fd 	mov	x29, sp
    a450:	a90153f3 	stp	x19, x20, [sp,#16]
    a454:	a9025bf5 	stp	x21, x22, [sp,#32]
    a458:	b9004fa2 	str	w2, [x29,#76]
    a45c:	f9001bf7 	str	x23, [sp,#48]
/home/pedro/devel/optee/optee_os/lib/libmpa/mpa_addsub.c:457
    a460:	350000e2 	cbnz	w2, a47c <mpa_add_word+0x34>
/home/pedro/devel/optee/optee_os/lib/libmpa/mpa_addsub.c:458
    a464:	97fff4fe 	bl	785c <mpa_copy>
/home/pedro/devel/optee/optee_os/lib/libmpa/mpa_addsub.c:501
    a468:	a94153f3 	ldp	x19, x20, [sp,#16]
    a46c:	a9425bf5 	ldp	x21, x22, [sp,#32]
    a470:	f9401bf7 	ldr	x23, [sp,#48]
    a474:	a8c67bfd 	ldp	x29, x30, [sp],#96
    a478:	d65f03c0 	ret
    a47c:	aa0303f6 	mov	x22, x3
/home/pedro/devel/optee/optee_os/lib/libmpa/mpa_addsub.c:462
    a480:	b9400423 	ldr	w3, [x1,#4]
    a484:	aa0003f5 	mov	x21, x0
    a488:	aa0103f4 	mov	x20, x1
    a48c:	35000083 	cbnz	w3, a49c <mpa_add_word+0x54>
/home/pedro/devel/optee/optee_os/lib/libmpa/mpa_addsub.c:463
    a490:	52800020 	mov	w0, #0x1                   	// #1
/home/pedro/devel/optee/optee_os/lib/libmpa/mpa_addsub.c:464
    a494:	29008aa0 	stp	w0, w2, [x21,#4]
/home/pedro/devel/optee/optee_os/lib/libmpa/mpa_addsub.c:465
    a498:	17fffff4 	b	a468 <mpa_add_word+0x20>
/home/pedro/devel/optee/optee_os/lib/libmpa/mpa_addsub.c:468
    a49c:	12800017 	mov	w23, #0xffffffff            	// #-1
    a4a0:	6b17007f 	cmp	w3, w23
    a4a4:	5a97d6f7 	cneg	w23, w23, gt
/home/pedro/devel/optee/optee_os/lib/libmpa/mpa_addsub.c:469
    a4a8:	7100007f 	cmp	w3, #0x0
    a4ac:	5a83a473 	cneg	w19, w3, lt
/home/pedro/devel/optee/optee_os/lib/libmpa/mpa_addsub.c:473
    a4b0:	eb00003f 	cmp	x1, x0
    a4b4:	540002e1 	b.ne	a510 <mpa_add_word+0xc8>
/home/pedro/devel/optee/optee_os/lib/libmpa/mpa_addsub.c:474
    a4b8:	aa1603e1 	mov	x1, x22
    a4bc:	910163a0 	add	x0, x29, #0x58
    a4c0:	97fffbf9 	bl	94a4 <mpa_alloc_static_temp_var>
/home/pedro/devel/optee/optee_os/lib/libmpa/mpa_addsub.c:479
    a4c4:	710006ff 	cmp	w23, #0x1
    a4c8:	f9402fa0 	ldr	x0, [x29,#88]
    a4cc:	54000261 	b.ne	a518 <mpa_add_word+0xd0>
/home/pedro/devel/optee/optee_os/lib/libmpa/mpa_addsub.c:481
    a4d0:	91001001 	add	x1, x0, #0x4
    a4d4:	2a1703e5 	mov	w5, w23
    a4d8:	910133a4 	add	x4, x29, #0x4c
    a4dc:	2a1303e3 	mov	w3, w19
    a4e0:	91002282 	add	x2, x20, #0x8
    a4e4:	91002000 	add	x0, x0, #0x8
    a4e8:	97fffe50 	bl	9e28 <__mpa_abs_add>
/home/pedro/devel/optee/optee_os/lib/libmpa/mpa_addsub.c:498
    a4ec:	f9402fa1 	ldr	x1, [x29,#88]
    a4f0:	aa1503e0 	mov	x0, x21
    a4f4:	97fff4da 	bl	785c <mpa_copy>
/home/pedro/devel/optee/optee_os/lib/libmpa/mpa_addsub.c:499
    a4f8:	eb15029f 	cmp	x20, x21
    a4fc:	54fffb61 	b.ne	a468 <mpa_add_word+0x20>
/home/pedro/devel/optee/optee_os/lib/libmpa/mpa_addsub.c:500
    a500:	aa1603e1 	mov	x1, x22
    a504:	910163a0 	add	x0, x29, #0x58
    a508:	97fffbeb 	bl	94b4 <mpa_free_static_temp_var>
    a50c:	17ffffd7 	b	a468 <mpa_add_word+0x20>
/home/pedro/devel/optee/optee_os/lib/libmpa/mpa_addsub.c:476
    a510:	f9002fa0 	str	x0, [x29,#88]
    a514:	17ffffec 	b	a4c4 <mpa_add_word+0x7c>
/home/pedro/devel/optee/optee_os/lib/libmpa/mpa_addsub.c:484
    a518:	b9400681 	ldr	w1, [x20,#4]
    a51c:	7100003f 	cmp	w1, #0x0
    a520:	5a81a421 	cneg	w1, w1, lt
    a524:	7100043f 	cmp	w1, #0x1
    a528:	540000ac 	b.gt	a53c <mpa_add_word+0xf4>
/home/pedro/devel/optee/optee_os/lib/libmpa/mpa_addsub.c:484 (discriminator 1)
    a52c:	b9400a82 	ldr	w2, [x20,#8]
    a530:	b9404fa1 	ldr	w1, [x29,#76]
    a534:	6b01005f 	cmp	w2, w1
    a538:	540001a9 	b.ls	a56c <mpa_add_word+0x124>
/home/pedro/devel/optee/optee_os/lib/libmpa/mpa_addsub.c:488
    a53c:	91001001 	add	x1, x0, #0x4
    a540:	52800025 	mov	w5, #0x1                   	// #1
    a544:	91002000 	add	x0, x0, #0x8
    a548:	910133a4 	add	x4, x29, #0x4c
    a54c:	2a1303e3 	mov	w3, w19
    a550:	91002282 	add	x2, x20, #0x8
    a554:	97fffea5 	bl	9fe8 <__mpa_abs_sub>
/home/pedro/devel/optee/optee_os/lib/libmpa/mpa_addsub.c:490
    a558:	f9402fa1 	ldr	x1, [x29,#88]
    a55c:	b9400420 	ldr	w0, [x1,#4]
    a560:	4b0003e0 	neg	w0, w0
    a564:	b9000420 	str	w0, [x1,#4]
    a568:	17ffffe1 	b	a4ec <mpa_add_word+0xa4>
/home/pedro/devel/optee/optee_os/lib/libmpa/mpa_addsub.c:493
    a56c:	4b020021 	sub	w1, w1, w2
    a570:	b9000801 	str	w1, [x0,#8]
/home/pedro/devel/optee/optee_os/lib/libmpa/mpa_addsub.c:494
    a574:	7100003f 	cmp	w1, #0x0
    a578:	1a9f07e1 	cset	w1, ne
    a57c:	b9000401 	str	w1, [x0,#4]
    a580:	17ffffdb 	b	a4ec <mpa_add_word+0xa4>

000000000000a584 <mpa_sub_word>:
mpa_sub_word():
/home/pedro/devel/optee/optee_os/lib/libmpa/mpa_addsub.c:510
    a584:	a9ba7bfd 	stp	x29, x30, [sp,#-96]!
    a588:	910003fd 	mov	x29, sp
    a58c:	a90153f3 	stp	x19, x20, [sp,#16]
    a590:	a9025bf5 	stp	x21, x22, [sp,#32]
    a594:	b9004fa2 	str	w2, [x29,#76]
    a598:	f9001bf7 	str	x23, [sp,#48]
/home/pedro/devel/optee/optee_os/lib/libmpa/mpa_addsub.c:516
    a59c:	350000e2 	cbnz	w2, a5b8 <mpa_sub_word+0x34>
/home/pedro/devel/optee/optee_os/lib/libmpa/mpa_addsub.c:517
    a5a0:	97fff4af 	bl	785c <mpa_copy>
/home/pedro/devel/optee/optee_os/lib/libmpa/mpa_addsub.c:562
    a5a4:	a94153f3 	ldp	x19, x20, [sp,#16]
    a5a8:	a9425bf5 	ldp	x21, x22, [sp,#32]
    a5ac:	f9401bf7 	ldr	x23, [sp,#48]
    a5b0:	a8c67bfd 	ldp	x29, x30, [sp],#96
    a5b4:	d65f03c0 	ret
    a5b8:	aa0303f6 	mov	x22, x3
/home/pedro/devel/optee/optee_os/lib/libmpa/mpa_addsub.c:521
    a5bc:	b9400423 	ldr	w3, [x1,#4]
    a5c0:	aa0003f5 	mov	x21, x0
    a5c4:	aa0103f4 	mov	x20, x1
/home/pedro/devel/optee/optee_os/lib/libmpa/mpa_addsub.c:522
    a5c8:	12800000 	mov	w0, #0xffffffff            	// #-1
/home/pedro/devel/optee/optee_os/lib/libmpa/mpa_addsub.c:521
    a5cc:	35000063 	cbnz	w3, a5d8 <mpa_sub_word+0x54>
/home/pedro/devel/optee/optee_os/lib/libmpa/mpa_addsub.c:523
    a5d0:	29008aa0 	stp	w0, w2, [x21,#4]
/home/pedro/devel/optee/optee_os/lib/libmpa/mpa_addsub.c:524
    a5d4:	17fffff4 	b	a5a4 <mpa_sub_word+0x20>
/home/pedro/devel/optee/optee_os/lib/libmpa/mpa_addsub.c:527
    a5d8:	6b00007f 	cmp	w3, w0
    a5dc:	5a80d417 	cneg	w23, w0, gt
/home/pedro/devel/optee/optee_os/lib/libmpa/mpa_addsub.c:528
    a5e0:	7100007f 	cmp	w3, #0x0
    a5e4:	5a83a473 	cneg	w19, w3, lt
/home/pedro/devel/optee/optee_os/lib/libmpa/mpa_addsub.c:532
    a5e8:	eb15003f 	cmp	x1, x21
    a5ec:	54000401 	b.ne	a66c <mpa_sub_word+0xe8>
/home/pedro/devel/optee/optee_os/lib/libmpa/mpa_addsub.c:533
    a5f0:	aa1603e1 	mov	x1, x22
    a5f4:	910163a0 	add	x0, x29, #0x58
    a5f8:	97fffbab 	bl	94a4 <mpa_alloc_static_temp_var>
/home/pedro/devel/optee/optee_os/lib/libmpa/mpa_addsub.c:545
    a5fc:	710006ff 	cmp	w23, #0x1
    a600:	f9402fa0 	ldr	x0, [x29,#88]
    a604:	54000441 	b.ne	a68c <mpa_sub_word+0x108>
/home/pedro/devel/optee/optee_os/lib/libmpa/mpa_addsub.c:546
    a608:	b9400681 	ldr	w1, [x20,#4]
    a60c:	7100003f 	cmp	w1, #0x0
    a610:	5a81a421 	cneg	w1, w1, lt
    a614:	7100043f 	cmp	w1, #0x1
    a618:	540000ac 	b.gt	a62c <mpa_sub_word+0xa8>
/home/pedro/devel/optee/optee_os/lib/libmpa/mpa_addsub.c:546 (discriminator 1)
    a61c:	b9400a82 	ldr	w2, [x20,#8]
    a620:	b9404fa1 	ldr	w1, [x29,#76]
    a624:	6b01005f 	cmp	w2, w1
    a628:	54000269 	b.ls	a674 <mpa_sub_word+0xf0>
/home/pedro/devel/optee/optee_os/lib/libmpa/mpa_addsub.c:547
    a62c:	91001001 	add	x1, x0, #0x4
    a630:	52800025 	mov	w5, #0x1                   	// #1
    a634:	910133a4 	add	x4, x29, #0x4c
    a638:	2a1303e3 	mov	w3, w19
    a63c:	91002282 	add	x2, x20, #0x8
    a640:	91002000 	add	x0, x0, #0x8
    a644:	97fffe69 	bl	9fe8 <__mpa_abs_sub>
/home/pedro/devel/optee/optee_os/lib/libmpa/mpa_addsub.c:559
    a648:	f9402fa1 	ldr	x1, [x29,#88]
    a64c:	aa1503e0 	mov	x0, x21
    a650:	97fff483 	bl	785c <mpa_copy>
/home/pedro/devel/optee/optee_os/lib/libmpa/mpa_addsub.c:560
    a654:	eb15029f 	cmp	x20, x21
    a658:	54fffa61 	b.ne	a5a4 <mpa_sub_word+0x20>
/home/pedro/devel/optee/optee_os/lib/libmpa/mpa_addsub.c:561
    a65c:	aa1603e1 	mov	x1, x22
    a660:	910163a0 	add	x0, x29, #0x58
    a664:	97fffb94 	bl	94b4 <mpa_free_static_temp_var>
    a668:	17ffffcf 	b	a5a4 <mpa_sub_word+0x20>
/home/pedro/devel/optee/optee_os/lib/libmpa/mpa_addsub.c:535
    a66c:	f9002fb5 	str	x21, [x29,#88]
    a670:	17ffffe3 	b	a5fc <mpa_sub_word+0x78>
/home/pedro/devel/optee/optee_os/lib/libmpa/mpa_addsub.c:550
    a674:	4b020021 	sub	w1, w1, w2
    a678:	b9000801 	str	w1, [x0,#8]
/home/pedro/devel/optee/optee_os/lib/libmpa/mpa_addsub.c:551
    a67c:	7100003f 	cmp	w1, #0x0
    a680:	5a9f03e1 	csetm	w1, ne
    a684:	b9000401 	str	w1, [x0,#4]
    a688:	17fffff0 	b	a648 <mpa_sub_word+0xc4>
/home/pedro/devel/optee/optee_os/lib/libmpa/mpa_addsub.c:554
    a68c:	91001001 	add	x1, x0, #0x4
    a690:	52800025 	mov	w5, #0x1                   	// #1
    a694:	91002000 	add	x0, x0, #0x8
    a698:	910133a4 	add	x4, x29, #0x4c
    a69c:	2a1303e3 	mov	w3, w19
    a6a0:	91002282 	add	x2, x20, #0x8
    a6a4:	97fffde1 	bl	9e28 <__mpa_abs_add>
/home/pedro/devel/optee/optee_os/lib/libmpa/mpa_addsub.c:556
    a6a8:	f9402fa1 	ldr	x1, [x29,#88]
    a6ac:	b9400420 	ldr	w0, [x1,#4]
    a6b0:	4b0003e0 	neg	w0, w0
    a6b4:	b9000420 	str	w0, [x1,#4]
    a6b8:	17ffffe4 	b	a648 <mpa_sub_word+0xc4>

000000000000a6bc <__mpa_abs_cmp>:
__mpa_abs_cmp():
/home/pedro/devel/optee/optee_os/lib/libmpa/mpa_cmp.c:44
    a6bc:	aa0003e4 	mov	x4, x0
/home/pedro/devel/optee/optee_os/lib/libmpa/mpa_cmp.c:49
    a6c0:	eb01001f 	cmp	x0, x1
    a6c4:	54000500 	b.eq	a764 <__mpa_abs_cmp+0xa8>
/home/pedro/devel/optee/optee_os/lib/libmpa/mpa_cmp.c:53
    a6c8:	b9400482 	ldr	w2, [x4,#4]
    a6cc:	b9400420 	ldr	w0, [x1,#4]
    a6d0:	7100005f 	cmp	w2, #0x0
    a6d4:	5a82a443 	cneg	w3, w2, lt
    a6d8:	7100001f 	cmp	w0, #0x0
    a6dc:	5a80a405 	cneg	w5, w0, lt
    a6e0:	6b05007f 	cmp	w3, w5
    a6e4:	54000060 	b.eq	a6f0 <__mpa_abs_cmp+0x34>
/home/pedro/devel/optee/optee_os/lib/libmpa/mpa_cmp.c:54
    a6e8:	4b050060 	sub	w0, w3, w5
    a6ec:	d65f03c0 	ret
/home/pedro/devel/optee/optee_os/lib/libmpa/mpa_cmp.c:56 (discriminator 1)
    a6f0:	2a000040 	orr	w0, w2, w0
    a6f4:	340003a0 	cbz	w0, a768 <__mpa_abs_cmp+0xac>
/home/pedro/devel/optee/optee_os/lib/libmpa/mpa_cmp.c:60
    a6f8:	51000462 	sub	w2, w3, #0x1
/home/pedro/devel/optee/optee_os/lib/libmpa/mpa_cmp.c:61
    a6fc:	52800025 	mov	w5, #0x1                   	// #1
    a700:	93407c43 	sxtw	x3, w2
    a704:	91000863 	add	x3, x3, #0x2
    a708:	d37ef463 	lsl	x3, x3, #2
/home/pedro/devel/optee/optee_os/lib/libmpa/mpa_cmp.c:62
    a70c:	2a2203e0 	mvn	w0, w2
    a710:	6a407cbf 	tst	w5, w0, lsr #31
    a714:	540001a1 	b.ne	a748 <__mpa_abs_cmp+0x8c>
/home/pedro/devel/optee/optee_os/lib/libmpa/mpa_cmp.c:50
    a718:	52800000 	mov	w0, #0x0                   	// #0
/home/pedro/devel/optee/optee_os/lib/libmpa/mpa_cmp.c:66
    a71c:	35000265 	cbnz	w5, a768 <__mpa_abs_cmp+0xac>
/home/pedro/devel/optee/optee_os/lib/libmpa/mpa_cmp.c:68
    a720:	11000442 	add	w2, w2, #0x1
/home/pedro/devel/optee/optee_os/lib/libmpa/mpa_cmp.c:69
    a724:	12800000 	mov	w0, #0xffffffff            	// #-1
    a728:	937e7c42 	sbfiz	x2, x2, #2, #32
    a72c:	8b020084 	add	x4, x4, x2
    a730:	8b020022 	add	x2, x1, x2
    a734:	b9400883 	ldr	w3, [x4,#8]
    a738:	b9400841 	ldr	w1, [x2,#8]
    a73c:	6b01007f 	cmp	w3, w1
    a740:	5a809400 	cneg	w0, w0, hi
    a744:	d65f03c0 	ret
/home/pedro/devel/optee/optee_os/lib/libmpa/mpa_cmp.c:63
    a748:	b8636885 	ldr	w5, [x4,x3]
/home/pedro/devel/optee/optee_os/lib/libmpa/mpa_cmp.c:64
    a74c:	51000442 	sub	w2, w2, #0x1
/home/pedro/devel/optee/optee_os/lib/libmpa/mpa_cmp.c:63
    a750:	b8636820 	ldr	w0, [x1,x3]
    a754:	d1001063 	sub	x3, x3, #0x4
    a758:	6b0000bf 	cmp	w5, w0
    a75c:	1a9f17e5 	cset	w5, eq
    a760:	17ffffeb 	b	a70c <__mpa_abs_cmp+0x50>
/home/pedro/devel/optee/optee_os/lib/libmpa/mpa_cmp.c:50
    a764:	52800000 	mov	w0, #0x0                   	// #0
/home/pedro/devel/optee/optee_os/lib/libmpa/mpa_cmp.c:70
    a768:	d65f03c0 	ret

000000000000a76c <__mpa_abs_greater_than>:
__mpa_abs_greater_than():
/home/pedro/devel/optee/optee_os/lib/libmpa/mpa_cmp.c:78
    a76c:	a9bf7bfd 	stp	x29, x30, [sp,#-16]!
    a770:	910003fd 	mov	x29, sp
/home/pedro/devel/optee/optee_os/lib/libmpa/mpa_cmp.c:79
    a774:	97ffffd2 	bl	a6bc <__mpa_abs_cmp>
    a778:	7100001f 	cmp	w0, #0x0
/home/pedro/devel/optee/optee_os/lib/libmpa/mpa_cmp.c:80
    a77c:	1a9fd7e0 	cset	w0, gt
    a780:	a8c17bfd 	ldp	x29, x30, [sp],#16
    a784:	d65f03c0 	ret

000000000000a788 <__mpa_abs_less_than>:
__mpa_abs_less_than():
/home/pedro/devel/optee/optee_os/lib/libmpa/mpa_cmp.c:88
    a788:	a9bf7bfd 	stp	x29, x30, [sp,#-16]!
    a78c:	910003fd 	mov	x29, sp
/home/pedro/devel/optee/optee_os/lib/libmpa/mpa_cmp.c:89
    a790:	97ffffcb 	bl	a6bc <__mpa_abs_cmp>
/home/pedro/devel/optee/optee_os/lib/libmpa/mpa_cmp.c:90
    a794:	531f7c00 	lsr	w0, w0, #31
    a798:	a8c17bfd 	ldp	x29, x30, [sp],#16
    a79c:	d65f03c0 	ret

000000000000a7a0 <mpa_cmp>:
mpa_cmp():
/home/pedro/devel/optee/optee_os/lib/libmpa/mpa_cmp.c:106
    a7a0:	a9be7bfd 	stp	x29, x30, [sp,#-32]!
/home/pedro/devel/optee/optee_os/lib/libmpa/mpa_cmp.c:111
    a7a4:	12800002 	mov	w2, #0xffffffff            	// #-1
/home/pedro/devel/optee/optee_os/lib/libmpa/mpa_cmp.c:106
    a7a8:	910003fd 	mov	x29, sp
/home/pedro/devel/optee/optee_os/lib/libmpa/mpa_cmp.c:111
    a7ac:	b9400404 	ldr	w4, [x0,#4]
/home/pedro/devel/optee/optee_os/lib/libmpa/mpa_cmp.c:112
    a7b0:	b9400423 	ldr	w3, [x1,#4]
/home/pedro/devel/optee/optee_os/lib/libmpa/mpa_cmp.c:111
    a7b4:	6b02009f 	cmp	w4, w2
/home/pedro/devel/optee/optee_os/lib/libmpa/mpa_cmp.c:106
    a7b8:	f9000bf3 	str	x19, [sp,#16]
/home/pedro/devel/optee/optee_os/lib/libmpa/mpa_cmp.c:111
    a7bc:	5a82d453 	cneg	w19, w2, gt
/home/pedro/devel/optee/optee_os/lib/libmpa/mpa_cmp.c:112
    a7c0:	6b02007f 	cmp	w3, w2
    a7c4:	5a82d442 	cneg	w2, w2, gt
    a7c8:	6b02027f 	cmp	w19, w2
    a7cc:	540000e1 	b.ne	a7e8 <mpa_cmp+0x48>
/home/pedro/devel/optee/optee_os/lib/libmpa/mpa_cmp.c:116
    a7d0:	35000144 	cbnz	w4, a7f8 <mpa_cmp+0x58>
/home/pedro/devel/optee/optee_os/lib/libmpa/mpa_cmp.c:117
    a7d4:	52800013 	mov	w19, #0x0                   	// #0
    a7d8:	34000083 	cbz	w3, a7e8 <mpa_cmp+0x48>
/home/pedro/devel/optee/optee_os/lib/libmpa/mpa_cmp.c:117 (discriminator 1)
    a7dc:	3100047f 	cmn	w3, #0x1
    a7e0:	52800026 	mov	w6, #0x1                   	// #1
    a7e4:	5a86d4d3 	cneg	w19, w6, gt
/home/pedro/devel/optee/optee_os/lib/libmpa/mpa_cmp.c:127
    a7e8:	2a1303e0 	mov	w0, w19
    a7ec:	f9400bf3 	ldr	x19, [sp,#16]
    a7f0:	a8c27bfd 	ldp	x29, x30, [sp],#32
    a7f4:	d65f03c0 	ret
/home/pedro/devel/optee/optee_os/lib/libmpa/mpa_cmp.c:123
    a7f8:	97ffffb1 	bl	a6bc <__mpa_abs_cmp>
/home/pedro/devel/optee/optee_os/lib/libmpa/mpa_cmp.c:125
    a7fc:	7100067f 	cmp	w19, #0x1
    a800:	5a800413 	cneg	w19, w0, ne
    a804:	17fffff9 	b	a7e8 <mpa_cmp+0x48>

000000000000a808 <mpa_cmp_short>:
mpa_cmp_short():
/home/pedro/devel/optee/optee_os/lib/libmpa/mpa_cmp.c:145
    a808:	b9400403 	ldr	w3, [x0,#4]
/home/pedro/devel/optee/optee_os/lib/libmpa/mpa_cmp.c:138
    a80c:	aa0003e4 	mov	x4, x0
/home/pedro/devel/optee/optee_os/lib/libmpa/mpa_cmp.c:145
    a810:	37f80343 	tbnz	w3, #31, a878 <mpa_cmp_short+0x70>
/home/pedro/devel/optee/optee_os/lib/libmpa/mpa_cmp.c:146 (discriminator 4)
    a814:	37f802a1 	tbnz	w1, #31, a868 <mpa_cmp_short+0x60>
/home/pedro/devel/optee/optee_os/lib/libmpa/mpa_cmp.c:149 (discriminator 4)
    a818:	350000c3 	cbnz	w3, a830 <mpa_cmp_short+0x28>
/home/pedro/devel/optee/optee_os/lib/libmpa/mpa_cmp.c:150
    a81c:	52800000 	mov	w0, #0x0                   	// #0
    a820:	34000341 	cbz	w1, a888 <mpa_cmp_short+0x80>
/home/pedro/devel/optee/optee_os/lib/libmpa/mpa_cmp.c:146
    a824:	52800022 	mov	w2, #0x1                   	// #1
/home/pedro/devel/optee/optee_os/lib/libmpa/mpa_cmp.c:150 (discriminator 1)
    a828:	4b0203e0 	neg	w0, w2
    a82c:	d65f03c0 	ret
/home/pedro/devel/optee/optee_os/lib/libmpa/mpa_cmp.c:145
    a830:	52800020 	mov	w0, #0x1                   	// #1
/home/pedro/devel/optee/optee_os/lib/libmpa/mpa_cmp.c:146
    a834:	52800022 	mov	w2, #0x1                   	// #1
/home/pedro/devel/optee/optee_os/lib/libmpa/mpa_cmp.c:153
    a838:	7100007f 	cmp	w3, #0x0
    a83c:	5a83a463 	cneg	w3, w3, lt
/home/pedro/devel/optee/optee_os/lib/libmpa/mpa_cmp.c:157
    a840:	7100047f 	cmp	w3, #0x1
    a844:	7a420000 	ccmp	w0, w2, #0x0, eq
    a848:	54000201 	b.ne	a888 <mpa_cmp_short+0x80>
/home/pedro/devel/optee/optee_os/lib/libmpa/mpa_cmp.c:162
    a84c:	7100003f 	cmp	w1, #0x0
/home/pedro/devel/optee/optee_os/lib/libmpa/mpa_cmp.c:164
    a850:	b9400882 	ldr	w2, [x4,#8]
/home/pedro/devel/optee/optee_os/lib/libmpa/mpa_cmp.c:162
    a854:	5a81a421 	cneg	w1, w1, lt
/home/pedro/devel/optee/optee_os/lib/libmpa/mpa_cmp.c:164
    a858:	6b02003f 	cmp	w1, w2
/home/pedro/devel/optee/optee_os/lib/libmpa/mpa_cmp.c:167
    a85c:	5a803400 	cneg	w0, w0, cs
    a860:	1a9f1000 	csel	w0, w0, wzr, ne
    a864:	d65f03c0 	ret
/home/pedro/devel/optee/optee_os/lib/libmpa/mpa_cmp.c:146
    a868:	12800002 	mov	w2, #0xffffffff            	// #-1
/home/pedro/devel/optee/optee_os/lib/libmpa/mpa_cmp.c:145
    a86c:	52800020 	mov	w0, #0x1                   	// #1
/home/pedro/devel/optee/optee_os/lib/libmpa/mpa_cmp.c:149
    a870:	34fffdc3 	cbz	w3, a828 <mpa_cmp_short+0x20>
    a874:	17fffff1 	b	a838 <mpa_cmp_short+0x30>
/home/pedro/devel/optee/optee_os/lib/libmpa/mpa_cmp.c:145
    a878:	12800000 	mov	w0, #0xffffffff            	// #-1
/home/pedro/devel/optee/optee_os/lib/libmpa/mpa_cmp.c:146
    a87c:	2a0003e2 	mov	w2, w0
    a880:	36fffda1 	tbz	w1, #31, a834 <mpa_cmp_short+0x2c>
    a884:	17ffffed 	b	a838 <mpa_cmp_short+0x30>
/home/pedro/devel/optee/optee_os/lib/libmpa/mpa_cmp.c:172
    a888:	d65f03c0 	ret

000000000000a88c <mpa_exp_mod>:
mpa_exp_mod():
/home/pedro/devel/optee/optee_os/lib/libmpa/mpa_expmod.c:52
    a88c:	a9b67bfd 	stp	x29, x30, [sp,#-160]!
    a890:	910003fd 	mov	x29, sp
    a894:	a90573fb 	stp	x27, x28, [sp,#80]
/home/pedro/devel/optee/optee_os/lib/libmpa/mpa_expmod.c:63
    a898:	910203bc 	add	x28, x29, #0x80
/home/pedro/devel/optee/optee_os/lib/libmpa/mpa_expmod.c:52
    a89c:	a90153f3 	stp	x19, x20, [sp,#16]
/home/pedro/devel/optee/optee_os/lib/libmpa/mpa_expmod.c:64
    a8a0:	910223bb 	add	x27, x29, #0x88
/home/pedro/devel/optee/optee_os/lib/libmpa/mpa_expmod.c:52
    a8a4:	aa0703f3 	mov	x19, x7
    a8a8:	aa0403f4 	mov	x20, x4
    a8ac:	a9060ba0 	stp	x0, x2, [x29,#96]
/home/pedro/devel/optee/optee_os/lib/libmpa/mpa_expmod.c:63
    a8b0:	aa1c03e0 	mov	x0, x28
/home/pedro/devel/optee/optee_os/lib/libmpa/mpa_expmod.c:52
    a8b4:	a9025bf5 	stp	x21, x22, [sp,#32]
    a8b8:	2a0603f6 	mov	w22, w6
    a8bc:	aa0303f5 	mov	x21, x3
    a8c0:	a90363f7 	stp	x23, x24, [sp,#48]
    a8c4:	a9046bf9 	stp	x25, x26, [sp,#64]
    a8c8:	aa0503f8 	mov	x24, x5
    a8cc:	aa0103f7 	mov	x23, x1
/home/pedro/devel/optee/optee_os/lib/libmpa/mpa_expmod.c:63
    a8d0:	aa0703e1 	mov	x1, x7
    a8d4:	97fffaf4 	bl	94a4 <mpa_alloc_static_temp_var>
/home/pedro/devel/optee/optee_os/lib/libmpa/mpa_expmod.c:76
    a8d8:	aa1c03fa 	mov	x26, x28
/home/pedro/devel/optee/optee_os/lib/libmpa/mpa_expmod.c:64
    a8dc:	aa1303e1 	mov	x1, x19
    a8e0:	aa1b03e0 	mov	x0, x27
    a8e4:	97fffaf0 	bl	94a4 <mpa_alloc_static_temp_var>
/home/pedro/devel/optee/optee_os/lib/libmpa/mpa_expmod.c:65
    a8e8:	910243a0 	add	x0, x29, #0x90
    a8ec:	aa1303e1 	mov	x1, x19
    a8f0:	f9003fa0 	str	x0, [x29,#120]
    a8f4:	97fffaec 	bl	94a4 <mpa_alloc_static_temp_var>
/home/pedro/devel/optee/optee_os/lib/libmpa/mpa_expmod.c:66
    a8f8:	910263a0 	add	x0, x29, #0x98
    a8fc:	aa1303e1 	mov	x1, x19
    a900:	f9003ba0 	str	x0, [x29,#112]
    a904:	97fffae8 	bl	94a4 <mpa_alloc_static_temp_var>
/home/pedro/devel/optee/optee_os/lib/libmpa/mpa_expmod.c:72
    a908:	f9404ba0 	ldr	x0, [x29,#144]
    a90c:	aa1803e2 	mov	x2, x24
    a910:	2a1603e4 	mov	w4, w22
    a914:	aa1503e3 	mov	x3, x21
    a918:	aa1703e1 	mov	x1, x23
    a91c:	97fff462 	bl	7aa4 <__mpa_montgomery_mul>
/home/pedro/devel/optee/optee_os/lib/libmpa/mpa_expmod.c:74
    a920:	f94043a0 	ldr	x0, [x29,#128]
    a924:	aa1403e1 	mov	x1, x20
/home/pedro/devel/optee/optee_os/lib/libmpa/mpa_expmod.c:77
    a928:	aa1b03f4 	mov	x20, x27
/home/pedro/devel/optee/optee_os/lib/libmpa/mpa_expmod.c:74
    a92c:	97fff3cc 	bl	785c <mpa_copy>
/home/pedro/devel/optee/optee_os/lib/libmpa/mpa_expmod.c:81
    a930:	f94043a0 	ldr	x0, [x29,#128]
    a934:	97fff3b5 	bl	7808 <__mpa_set_unused_digits_to_zero>
/home/pedro/devel/optee/optee_os/lib/libmpa/mpa_expmod.c:82
    a938:	f9404ba0 	ldr	x0, [x29,#144]
    a93c:	97fff3b3 	bl	7808 <__mpa_set_unused_digits_to_zero>
/home/pedro/devel/optee/optee_os/lib/libmpa/mpa_expmod.c:84
    a940:	f94037a0 	ldr	x0, [x29,#104]
    a944:	97fff3e7 	bl	78e0 <mpa_highest_bit_index>
    a948:	2a0003f8 	mov	w24, w0
/home/pedro/devel/optee/optee_os/lib/libmpa/mpa_expmod.c:78
    a94c:	a9475fb9 	ldp	x25, x23, [x29,#112]
/home/pedro/devel/optee/optee_os/lib/libmpa/mpa_expmod.c:84 (discriminator 1)
    a950:	36f803d8 	tbz	w24, #31, a9c8 <mpa_exp_mod+0x13c>
/home/pedro/devel/optee/optee_os/lib/libmpa/mpa_expmod.c:112
    a954:	f0000001 	adrp	x1, d000 <__func__.3637+0xb58>
    a958:	f9400342 	ldr	x2, [x26]
    a95c:	f9400280 	ldr	x0, [x20]
    a960:	2a1603e4 	mov	w4, w22
    a964:	f9413c21 	ldr	x1, [x1,#632]
    a968:	aa1503e3 	mov	x3, x21
    a96c:	97fff44e 	bl	7aa4 <__mpa_montgomery_mul>
/home/pedro/devel/optee/optee_os/lib/libmpa/mpa_expmod.c:115
    a970:	f9400281 	ldr	x1, [x20]
    a974:	f94033a0 	ldr	x0, [x29,#96]
    a978:	97fff3b9 	bl	785c <mpa_copy>
/home/pedro/devel/optee/optee_os/lib/libmpa/mpa_expmod.c:117
    a97c:	aa1303e1 	mov	x1, x19
    a980:	aa1c03e0 	mov	x0, x28
    a984:	97fffacc 	bl	94b4 <mpa_free_static_temp_var>
/home/pedro/devel/optee/optee_os/lib/libmpa/mpa_expmod.c:118
    a988:	aa1303e1 	mov	x1, x19
    a98c:	aa1b03e0 	mov	x0, x27
    a990:	97fffac9 	bl	94b4 <mpa_free_static_temp_var>
/home/pedro/devel/optee/optee_os/lib/libmpa/mpa_expmod.c:119
    a994:	f9403fa0 	ldr	x0, [x29,#120]
    a998:	aa1303e1 	mov	x1, x19
    a99c:	97fffac6 	bl	94b4 <mpa_free_static_temp_var>
/home/pedro/devel/optee/optee_os/lib/libmpa/mpa_expmod.c:120
    a9a0:	f9403ba0 	ldr	x0, [x29,#112]
    a9a4:	aa1303e1 	mov	x1, x19
    a9a8:	97fffac3 	bl	94b4 <mpa_free_static_temp_var>
/home/pedro/devel/optee/optee_os/lib/libmpa/mpa_expmod.c:121
    a9ac:	a94153f3 	ldp	x19, x20, [sp,#16]
    a9b0:	a9425bf5 	ldp	x21, x22, [sp,#32]
    a9b4:	a94363f7 	ldp	x23, x24, [sp,#48]
    a9b8:	a9446bf9 	ldp	x25, x26, [sp,#64]
    a9bc:	a94573fb 	ldp	x27, x28, [sp,#80]
    a9c0:	a8ca7bfd 	ldp	x29, x30, [sp],#160
    a9c4:	d65f03c0 	ret
/home/pedro/devel/optee/optee_os/lib/libmpa/mpa_expmod.c:85
    a9c8:	f94037a0 	ldr	x0, [x29,#104]
    a9cc:	2a1803e1 	mov	w1, w24
    a9d0:	97fff3d5 	bl	7924 <mpa_get_bit>
/home/pedro/devel/optee/optee_os/lib/libmpa/mpa_expmod.c:87
    a9d4:	2a1603e4 	mov	w4, w22
    a9d8:	aa1503e3 	mov	x3, x21
    a9dc:	f94002e2 	ldr	x2, [x23]
    a9e0:	f9400341 	ldr	x1, [x26]
/home/pedro/devel/optee/optee_os/lib/libmpa/mpa_expmod.c:85
    a9e4:	35000220 	cbnz	w0, aa28 <mpa_exp_mod+0x19c>
/home/pedro/devel/optee/optee_os/lib/libmpa/mpa_expmod.c:87
    a9e8:	f9400320 	ldr	x0, [x25]
    a9ec:	97fff42e 	bl	7aa4 <__mpa_montgomery_mul>
/home/pedro/devel/optee/optee_os/lib/libmpa/mpa_expmod.c:91
    a9f0:	f9400342 	ldr	x2, [x26]
    a9f4:	2a1603e4 	mov	w4, w22
    a9f8:	f9400280 	ldr	x0, [x20]
    a9fc:	aa1503e3 	mov	x3, x21
    aa00:	aa0203e1 	mov	x1, x2
/home/pedro/devel/optee/optee_os/lib/libmpa/mpa_expmod.c:99
    aa04:	97fff428 	bl	7aa4 <__mpa_montgomery_mul>
/home/pedro/devel/optee/optee_os/lib/libmpa/mpa_expmod.c:84
    aa08:	51000718 	sub	w24, w24, #0x1
    aa0c:	aa1703e0 	mov	x0, x23
    aa10:	aa1903f7 	mov	x23, x25
    aa14:	aa0003f9 	mov	x25, x0
    aa18:	aa1a03e0 	mov	x0, x26
    aa1c:	aa1403fa 	mov	x26, x20
    aa20:	aa0003f4 	mov	x20, x0
    aa24:	17ffffcb 	b	a950 <mpa_exp_mod+0xc4>
/home/pedro/devel/optee/optee_os/lib/libmpa/mpa_expmod.c:95
    aa28:	f9400280 	ldr	x0, [x20]
    aa2c:	97fff41e 	bl	7aa4 <__mpa_montgomery_mul>
/home/pedro/devel/optee/optee_os/lib/libmpa/mpa_expmod.c:99
    aa30:	f94002e2 	ldr	x2, [x23]
    aa34:	2a1603e4 	mov	w4, w22
    aa38:	aa1503e3 	mov	x3, x21
    aa3c:	f9400320 	ldr	x0, [x25]
    aa40:	aa0203e1 	mov	x1, x2
    aa44:	17fffff0 	b	aa04 <mpa_exp_mod+0x178>

000000000000aa48 <mpa_init_static>:
mpa_init_static():
/home/pedro/devel/optee/optee_os/lib/libmpa/mpa_init.c:36
    aa48:	531e7421 	lsl	w1, w1, #2
    aa4c:	51002021 	sub	w1, w1, #0x8
    aa50:	d3427c21 	ubfx	x1, x1, #2, #30
/home/pedro/devel/optee/optee_os/lib/libmpa/mpa_init.c:37
    aa54:	29007c01 	stp	w1, wzr, [x0]
/home/pedro/devel/optee/optee_os/lib/libmpa/mpa_init.c:38
    aa58:	b4000041 	cbz	x1, aa60 <mpa_init_static+0x18>
/home/pedro/devel/optee/optee_os/lib/libmpa/mpa_init.c:39
    aa5c:	b900081f 	str	wzr, [x0,#8]
    aa60:	d65f03c0 	ret

000000000000aa64 <mpa_init_static_fmm_context>:
mpa_init_static_fmm_context():
/home/pedro/devel/optee/optee_os/lib/libmpa/mpa_init.c:48
    aa64:	a9bd7bfd 	stp	x29, x30, [sp,#-48]!
    aa68:	910003fd 	mov	x29, sp
    aa6c:	a90153f3 	stp	x19, x20, [sp,#16]
/home/pedro/devel/optee/optee_os/lib/libmpa/mpa_init.c:52
    aa70:	531e7433 	lsl	w19, w1, #2
    aa74:	51006273 	sub	w19, w19, #0x18
/home/pedro/devel/optee/optee_os/lib/libmpa/mpa_init.c:55
    aa78:	91005014 	add	x20, x0, #0x14
/home/pedro/devel/optee/optee_os/lib/libmpa/mpa_init.c:48
    aa7c:	f90013f5 	str	x21, [sp,#32]
/home/pedro/devel/optee/optee_os/lib/libmpa/mpa_init.c:55
    aa80:	52800001 	mov	w1, #0x0                   	// #0
/home/pedro/devel/optee/optee_os/lib/libmpa/mpa_init.c:52
    aa84:	d3427e73 	ubfx	x19, x19, #2, #30
/home/pedro/devel/optee/optee_os/lib/libmpa/mpa_init.c:48
    aa88:	aa0003f5 	mov	x21, x0
/home/pedro/devel/optee/optee_os/lib/libmpa/mpa_init.c:55
    aa8c:	d37ef662 	lsl	x2, x19, #2
    aa90:	aa1403e0 	mov	x0, x20
/home/pedro/devel/optee/optee_os/lib/libmpa/mpa_init.c:56
    aa94:	53017e73 	lsr	w19, w19, #1
/home/pedro/devel/optee/optee_os/lib/libmpa/mpa_init.c:55
    aa98:	97ffef7e 	bl	6890 <memset>
/home/pedro/devel/optee/optee_os/lib/libmpa/mpa_init.c:63
    aa9c:	51000a61 	sub	w1, w19, #0x2
/home/pedro/devel/optee/optee_os/lib/libmpa/mpa_init.c:66
    aaa0:	d37e7273 	ubfiz	x19, x19, #2, #29
    aaa4:	8b130280 	add	x0, x20, x19
/home/pedro/devel/optee/optee_os/lib/libmpa/mpa_init.c:62
    aaa8:	290206bf 	stp	wzr, w1, [x21,#16]
/home/pedro/devel/optee/optee_os/lib/libmpa/mpa_init.c:66
    aaac:	a90002b4 	stp	x20, x0, [x21]
/home/pedro/devel/optee/optee_os/lib/libmpa/mpa_init.c:64
    aab0:	b9001abf 	str	wzr, [x21,#24]
/home/pedro/devel/optee/optee_os/lib/libmpa/mpa_init.c:67
    aab4:	b8336a81 	str	w1, [x20,x19]
/home/pedro/devel/optee/optee_os/lib/libmpa/mpa_init.c:70
    aab8:	f94013f5 	ldr	x21, [sp,#32]
    aabc:	a94153f3 	ldp	x19, x20, [sp,#16]
/home/pedro/devel/optee/optee_os/lib/libmpa/mpa_init.c:69
    aac0:	b900041f 	str	wzr, [x0,#4]
/home/pedro/devel/optee/optee_os/lib/libmpa/mpa_init.c:70
    aac4:	a8c37bfd 	ldp	x29, x30, [sp],#48
    aac8:	d65f03c0 	ret

000000000000aacc <__mpa_word_to_hexstr>:
__mpa_word_to_hexstr():
/home/pedro/devel/optee/optee_os/lib/libmpa/mpa_io.c:130
    aacc:	d28000e4 	mov	x4, #0x7                   	// #7
/home/pedro/devel/optee/optee_os/lib/libmpa/mpa_io.c:134 (discriminator 3)
    aad0:	531e7483 	lsl	w3, w4, #2
    aad4:	1ac32423 	lsr	w3, w1, w3
    aad8:	12000c63 	and	w3, w3, #0xf
__mpa_nibble_to_char():
/home/pedro/devel/optee/optee_os/lib/libmpa/mpa_io.c:119 (discriminator 3)
    aadc:	7100247f 	cmp	w3, #0x9
    aae0:	540000e8 	b.hi	aafc <__mpa_word_to_hexstr+0x30>
/home/pedro/devel/optee/optee_os/lib/libmpa/mpa_io.c:120
    aae4:	1100c063 	add	w3, w3, #0x30
__mpa_word_to_hexstr():
/home/pedro/devel/optee/optee_os/lib/libmpa/mpa_io.c:133
    aae8:	38246803 	strb	w3, [x0,x4]
    aaec:	d1000484 	sub	x4, x4, #0x1
/home/pedro/devel/optee/optee_os/lib/libmpa/mpa_io.c:132
    aaf0:	b100049f 	cmn	x4, #0x1
    aaf4:	54fffee1 	b.ne	aad0 <__mpa_word_to_hexstr+0x4>
/home/pedro/devel/optee/optee_os/lib/libmpa/mpa_io.c:136
    aaf8:	d65f03c0 	ret
__mpa_nibble_to_char():
/home/pedro/devel/optee/optee_os/lib/libmpa/mpa_io.c:121
    aafc:	1100dc65 	add	w5, w3, #0x37
    ab00:	7100005f 	cmp	w2, #0x0
    ab04:	11015c63 	add	w3, w3, #0x57
    ab08:	1a851063 	csel	w3, w3, w5, ne
    ab0c:	17fffff7 	b	aae8 <__mpa_word_to_hexstr+0x1c>

000000000000ab10 <__mpa_mpanum_to_hexstr>:
__mpa_mpanum_to_hexstr():
/home/pedro/devel/optee/optee_os/lib/libmpa/mpa_io.c:152
    ab10:	b9400447 	ldr	w7, [x2,#4]
/home/pedro/devel/optee/optee_os/lib/libmpa/mpa_io.c:153
    ab14:	710000ff 	cmp	w7, #0x0
    ab18:	540000c1 	b.ne	ab30 <__mpa_mpanum_to_hexstr+0x20>
/home/pedro/devel/optee/optee_os/lib/libmpa/mpa_io.c:154
    ab1c:	52800601 	mov	w1, #0x30                  	// #48
/home/pedro/devel/optee/optee_os/lib/libmpa/mpa_io.c:155
    ab20:	3900041f 	strb	wzr, [x0,#1]
/home/pedro/devel/optee/optee_os/lib/libmpa/mpa_io.c:154
    ab24:	39000001 	strb	w1, [x0]
/home/pedro/devel/optee/optee_os/lib/libmpa/mpa_io.c:156
    ab28:	52800020 	mov	w0, #0x1                   	// #1
    ab2c:	d65f03c0 	ret
/home/pedro/devel/optee/optee_os/lib/libmpa/mpa_io.c:144
    ab30:	a9bb7bfd 	stp	x29, x30, [sp,#-80]!
    ab34:	910003fd 	mov	x29, sp
    ab38:	a9025bf5 	stp	x21, x22, [sp,#32]
/home/pedro/devel/optee/optee_os/lib/libmpa/mpa_io.c:152
    ab3c:	5a87a4f6 	cneg	w22, w7, lt
    ab40:	aa0003f5 	mov	x21, x0
/home/pedro/devel/optee/optee_os/lib/libmpa/mpa_io.c:158
    ab44:	510006c0 	sub	w0, w22, #0x1
/home/pedro/devel/optee/optee_os/lib/libmpa/mpa_io.c:164
    ab48:	8b20c840 	add	x0, x2, w0, sxtw #2
/home/pedro/devel/optee/optee_os/lib/libmpa/mpa_io.c:144
    ab4c:	a90363f7 	stp	x23, x24, [sp,#48]
    ab50:	aa0203f8 	mov	x24, x2
    ab54:	2a0103f7 	mov	w23, w1
/home/pedro/devel/optee/optee_os/lib/libmpa/mpa_io.c:164
    ab58:	2a0103e2 	mov	w2, w1
/home/pedro/devel/optee/optee_os/lib/libmpa/mpa_io.c:144
    ab5c:	a90153f3 	stp	x19, x20, [sp,#16]
/home/pedro/devel/optee/optee_os/lib/libmpa/mpa_io.c:164
    ab60:	b9400801 	ldr	w1, [x0,#8]
    ab64:	910123b4 	add	x20, x29, #0x48
    ab68:	aa1403e0 	mov	x0, x20
    ab6c:	97ffffd8 	bl	aacc <__mpa_word_to_hexstr>
/home/pedro/devel/optee/optee_os/lib/libmpa/mpa_io.c:168
    ab70:	d28000e6 	mov	x6, #0x7                   	// #7
    ab74:	93407cc0 	sxtw	x0, w6
    ab78:	b10004df 	cmn	x6, #0x1
    ab7c:	54000181 	b.ne	abac <__mpa_mpanum_to_hexstr+0x9c>
    ab80:	aa1503f3 	mov	x19, x21
/home/pedro/devel/optee/optee_os/lib/libmpa/mpa_io.c:175
    ab84:	51000ac7 	sub	w7, w22, #0x2
    ab88:	93407cf6 	sxtw	x22, w7
/home/pedro/devel/optee/optee_os/lib/libmpa/mpa_io.c:176
    ab8c:	36f802f6 	tbz	w22, #31, abe8 <__mpa_mpanum_to_hexstr+0xd8>
/home/pedro/devel/optee/optee_os/lib/libmpa/mpa_io.c:184
    ab90:	3900027f 	strb	wzr, [x19]
/home/pedro/devel/optee/optee_os/lib/libmpa/mpa_io.c:183
    ab94:	4b150260 	sub	w0, w19, w21
/home/pedro/devel/optee/optee_os/lib/libmpa/mpa_io.c:186
    ab98:	a94153f3 	ldp	x19, x20, [sp,#16]
    ab9c:	a9425bf5 	ldp	x21, x22, [sp,#32]
    aba0:	a94363f7 	ldp	x23, x24, [sp,#48]
    aba4:	a8c57bfd 	ldp	x29, x30, [sp],#80
    aba8:	d65f03c0 	ret
/home/pedro/devel/optee/optee_os/lib/libmpa/mpa_io.c:169
    abac:	38666a82 	ldrb	w2, [x20,x6]
    abb0:	d10004c1 	sub	x1, x6, #0x1
    abb4:	7100c05f 	cmp	w2, #0x30
    abb8:	540000c0 	b.eq	abd0 <__mpa_mpanum_to_hexstr+0xc0>
    abbc:	aa1503e1 	mov	x1, x21
/home/pedro/devel/optee/optee_os/lib/libmpa/mpa_io.c:171
    abc0:	36f800c0 	tbz	w0, #31, abd8 <__mpa_mpanum_to_hexstr+0xc8>
    abc4:	110004c6 	add	w6, w6, #0x1
    abc8:	8b0602b3 	add	x19, x21, x6
    abcc:	17ffffee 	b	ab84 <__mpa_mpanum_to_hexstr+0x74>
    abd0:	aa0103e6 	mov	x6, x1
    abd4:	17ffffe8 	b	ab74 <__mpa_mpanum_to_hexstr+0x64>
/home/pedro/devel/optee/optee_os/lib/libmpa/mpa_io.c:172
    abd8:	38606a82 	ldrb	w2, [x20,x0]
    abdc:	d1000400 	sub	x0, x0, #0x1
    abe0:	38001422 	strb	w2, [x1],#1
    abe4:	17fffff7 	b	abc0 <__mpa_mpanum_to_hexstr+0xb0>
/home/pedro/devel/optee/optee_os/lib/libmpa/mpa_io.c:177
    abe8:	8b160b00 	add	x0, x24, x22, lsl #2
    abec:	2a1703e2 	mov	w2, w23
    abf0:	b9400801 	ldr	w1, [x0,#8]
    abf4:	aa1403e0 	mov	x0, x20
    abf8:	97ffffb5 	bl	aacc <__mpa_word_to_hexstr>
    abfc:	d28000e0 	mov	x0, #0x7                   	// #7
/home/pedro/devel/optee/optee_os/lib/libmpa/mpa_io.c:180
    ac00:	cb000261 	sub	x1, x19, x0
    ac04:	38606a82 	ldrb	w2, [x20,x0]
    ac08:	d1000400 	sub	x0, x0, #0x1
/home/pedro/devel/optee/optee_os/lib/libmpa/mpa_io.c:179
    ac0c:	b100041f 	cmn	x0, #0x1
/home/pedro/devel/optee/optee_os/lib/libmpa/mpa_io.c:180
    ac10:	39001c22 	strb	w2, [x1,#7]
/home/pedro/devel/optee/optee_os/lib/libmpa/mpa_io.c:179
    ac14:	54ffff61 	b.ne	ac00 <__mpa_mpanum_to_hexstr+0xf0>
    ac18:	91002273 	add	x19, x19, #0x8
    ac1c:	d10006d6 	sub	x22, x22, #0x1
    ac20:	17ffffdb 	b	ab8c <__mpa_mpanum_to_hexstr+0x7c>

000000000000ac24 <__mpa_isspace>:
__mpa_isspace():
/home/pedro/devel/optee/optee_os/lib/libmpa/mpa_io.c:50
    ac24:	12001c02 	and	w2, w0, #0xff
/home/pedro/devel/optee/optee_os/lib/libmpa/mpa_io.c:51
    ac28:	71017c5f 	cmp	w2, #0x5f
    ac2c:	1a9f17e1 	cset	w1, eq
/home/pedro/devel/optee/optee_os/lib/libmpa/mpa_io.c:53
    ac30:	7100805f 	cmp	w2, #0x20
    ac34:	1a9f17e0 	cset	w0, eq
/home/pedro/devel/optee/optee_os/lib/libmpa/mpa_io.c:51
    ac38:	2a000020 	orr	w0, w1, w0
/home/pedro/devel/optee/optee_os/lib/libmpa/mpa_io.c:55
    ac3c:	35000100 	cbnz	w0, ac5c <__mpa_isspace+0x38>
    ac40:	51002440 	sub	w0, w2, #0x9
    ac44:	12001c00 	and	w0, w0, #0xff
    ac48:	7100041f 	cmp	w0, #0x1
    ac4c:	1a9f87e1 	cset	w1, ls
    ac50:	7100345f 	cmp	w2, #0xd
    ac54:	1a9f17e0 	cset	w0, eq
    ac58:	2a000020 	orr	w0, w1, w0
/home/pedro/devel/optee/optee_os/lib/libmpa/mpa_io.c:57 (discriminator 5)
    ac5c:	d65f03c0 	ret

000000000000ac60 <mpa_get_str_size>:
mpa_get_str_size():
/home/pedro/devel/optee/optee_os/lib/libmpa/mpa_io.c:238
    ac60:	52820040 	mov	w0, #0x1002                	// #4098
    ac64:	d65f03c0 	ret

000000000000ac68 <mpa_set_str>:
mpa_set_str():
/home/pedro/devel/optee/optee_os/lib/libmpa/mpa_io.c:262
    ac68:	a9bc7bfd 	stp	x29, x30, [sp,#-64]!
    ac6c:	910003fd 	mov	x29, sp
    ac70:	a90153f3 	stp	x19, x20, [sp,#16]
    ac74:	aa0003f4 	mov	x20, x0
    ac78:	a90363f7 	stp	x23, x24, [sp,#48]
    ac7c:	aa0103f8 	mov	x24, x1
    ac80:	a9025bf5 	stp	x21, x22, [sp,#32]
/home/pedro/devel/optee/optee_os/lib/libmpa/mpa_io.c:281
    ac84:	39400020 	ldrb	w0, [x1]
    ac88:	35000080 	cbnz	w0, ac98 <mpa_set_str+0x30>
/home/pedro/devel/optee/optee_os/lib/libmpa/mpa_io.c:282
    ac8c:	52800013 	mov	w19, #0x0                   	// #0
    ac90:	14000013 	b	acdc <mpa_set_str+0x74>
    ac94:	aa1703f8 	mov	x24, x23
/home/pedro/devel/optee/optee_os/lib/libmpa/mpa_io.c:286 (discriminator 1)
    ac98:	aa1803f7 	mov	x23, x24
    ac9c:	384016f5 	ldrb	w21, [x23],#1
/home/pedro/devel/optee/optee_os/lib/libmpa/mpa_io.c:287 (discriminator 1)
    aca0:	2a1503e0 	mov	w0, w21
    aca4:	97ffffe0 	bl	ac24 <__mpa_isspace>
    aca8:	2a0003f3 	mov	w19, w0
    acac:	35ffff40 	cbnz	w0, ac94 <mpa_set_str+0x2c>
/home/pedro/devel/optee/optee_os/lib/libmpa/mpa_io.c:286
    acb0:	2a1503f6 	mov	w22, w21
/home/pedro/devel/optee/optee_os/lib/libmpa/mpa_io.c:290
    acb4:	52800015 	mov	w21, #0x0                   	// #0
/home/pedro/devel/optee/optee_os/lib/libmpa/mpa_io.c:291
    acb8:	7100b6df 	cmp	w22, #0x2d
    acbc:	54000081 	b.ne	accc <mpa_set_str+0x64>
/home/pedro/devel/optee/optee_os/lib/libmpa/mpa_io.c:293
    acc0:	394002f6 	ldrb	w22, [x23]
    acc4:	91000b17 	add	x23, x24, #0x2
/home/pedro/devel/optee/optee_os/lib/libmpa/mpa_io.c:292
    acc8:	52800035 	mov	w21, #0x1                   	// #1
/home/pedro/devel/optee/optee_os/lib/libmpa/mpa_io.c:295
    accc:	35000156 	cbnz	w22, acf4 <mpa_set_str+0x8c>
/home/pedro/devel/optee/optee_os/lib/libmpa/mpa_io.c:296
    acd0:	52800001 	mov	w1, #0x0                   	// #0
    acd4:	aa1403e0 	mov	x0, x20
    acd8:	97fff540 	bl	81d8 <mpa_set_word>
/home/pedro/devel/optee/optee_os/lib/libmpa/mpa_io.c:383
    acdc:	2a1303e0 	mov	w0, w19
    ace0:	a94153f3 	ldp	x19, x20, [sp,#16]
    ace4:	a9425bf5 	ldp	x21, x22, [sp,#32]
    ace8:	a94363f7 	ldp	x23, x24, [sp,#48]
    acec:	a8c47bfd 	ldp	x29, x30, [sp],#64
    acf0:	d65f03c0 	ret
/home/pedro/devel/optee/optee_os/lib/libmpa/mpa_io.c:301
    acf4:	7100c2df 	cmp	w22, #0x30
    acf8:	540000e1 	b.ne	ad14 <mpa_set_str+0xac>
/home/pedro/devel/optee/optee_os/lib/libmpa/mpa_io.c:302
    acfc:	394002e3 	ldrb	w3, [x23]
/home/pedro/devel/optee/optee_os/lib/libmpa/mpa_io.c:303
    ad00:	121a7860 	and	w0, w3, #0xffffffdf
    ad04:	7101601f 	cmp	w0, #0x58
    ad08:	54000540 	b.eq	adb0 <mpa_set_str+0x148>
/home/pedro/devel/optee/optee_os/lib/libmpa/mpa_io.c:302
    ad0c:	910006f7 	add	x23, x23, #0x1
    ad10:	2a0303f6 	mov	w22, w3
/home/pedro/devel/optee/optee_os/lib/libmpa/mpa_io.c:308
    ad14:	7100c2df 	cmp	w22, #0x30
    ad18:	54000520 	b.eq	adbc <mpa_set_str+0x154>
/home/pedro/devel/optee/optee_os/lib/libmpa/mpa_io.c:308 (discriminator 1)
    ad1c:	2a1603e0 	mov	w0, w22
    ad20:	97ffffc1 	bl	ac24 <__mpa_isspace>
    ad24:	350004c0 	cbnz	w0, adbc <mpa_set_str+0x154>
    ad28:	aa1703e5 	mov	x5, x23
/home/pedro/devel/optee/optee_os/lib/libmpa/mpa_io.c:312
    ad2c:	34fffd36 	cbz	w22, acd0 <mpa_set_str+0x68>
/home/pedro/devel/optee/optee_os/lib/libmpa/mpa_io.c:319
    ad30:	394000a0 	ldrb	w0, [x5]
    ad34:	35000480 	cbnz	w0, adc4 <mpa_set_str+0x15c>
/home/pedro/devel/optee/optee_os/lib/libmpa/mpa_io.c:323
    ad38:	cb1700a5 	sub	x5, x5, x23
/home/pedro/devel/optee/optee_os/lib/libmpa/mpa_io.c:324
    ad3c:	52820046 	mov	w6, #0x1002                	// #4098
/home/pedro/devel/optee/optee_os/lib/libmpa/mpa_io.c:323
    ad40:	110004a5 	add	w5, w5, #0x1
/home/pedro/devel/optee/optee_os/lib/libmpa/mpa_io.c:324
    ad44:	6b0600bf 	cmp	w5, w6
    ad48:	5400042c 	b.gt	adcc <mpa_set_str+0x164>
/home/pedro/devel/optee/optee_os/lib/libmpa/mpa_io.c:334
    ad4c:	b0000065 	adrp	x5, 17000 <mempool_u32+0xc58>
    ad50:	913d40b8 	add	x24, x5, #0xf50
/home/pedro/devel/optee/optee_os/lib/libmpa/mpa_io.c:324
    ad54:	52800013 	mov	w19, #0x0                   	// #0
__mpa_is_char_in_base():
/home/pedro/devel/optee/optee_os/lib/libmpa/mpa_io.c:67
    ad58:	2a1603e0 	mov	w0, w22
    ad5c:	97ffffb2 	bl	ac24 <__mpa_isspace>
    ad60:	350005c0 	cbnz	w0, ae18 <mpa_set_str+0x1b0>
/home/pedro/devel/optee/optee_os/lib/libmpa/mpa_io.c:75
    ad64:	121a7ac1 	and	w1, w22, #0xffffffdf
/home/pedro/devel/optee/optee_os/lib/libmpa/mpa_io.c:74
    ad68:	5100c2c0 	sub	w0, w22, #0x30
/home/pedro/devel/optee/optee_os/lib/libmpa/mpa_io.c:75
    ad6c:	51010421 	sub	w1, w1, #0x41
    ad70:	7100143f 	cmp	w1, #0x5
    ad74:	7a498800 	ccmp	w0, #0x9, #0x0, hi
    ad78:	540003e9 	b.ls	adf4 <mpa_set_str+0x18c>
mpa_set_str():
/home/pedro/devel/optee/optee_os/lib/libmpa/mpa_io.c:338
    ad7c:	34000393 	cbz	w19, adec <mpa_set_str+0x184>
__mpa_digitstr_to_binary_wsize_base_16():
/home/pedro/devel/optee/optee_os/lib/libmpa/mpa_io.c:108
    ad80:	11001e65 	add	w5, w19, #0x7
mpa_set_str():
/home/pedro/devel/optee/optee_os/lib/libmpa/mpa_io.c:343
    ad84:	b9400286 	ldr	w6, [x20]
__mpa_digitstr_to_binary_wsize_base_16():
/home/pedro/devel/optee/optee_os/lib/libmpa/mpa_io.c:108
    ad88:	13037ca0 	asr	w0, w5, #3
mpa_set_str():
/home/pedro/devel/optee/optee_os/lib/libmpa/mpa_io.c:342
    ad8c:	6b06001f 	cmp	w0, w6
    ad90:	54000529 	b.ls	ae34 <mpa_set_str+0x1cc>
/home/pedro/devel/optee/optee_os/lib/libmpa/mpa_io.c:344
    ad94:	d0000004 	adrp	x4, c000 <PRIME_TABLE+0x8a0>
    ad98:	2a0003e5 	mov	w5, w0
    ad9c:	913f3484 	add	x4, x4, #0xfcd
    ada0:	52800023 	mov	w3, #0x1                   	// #1
    ada4:	52800022 	mov	w2, #0x1                   	// #1
    ada8:	52802b41 	mov	w1, #0x15a                 	// #346
    adac:	1400000d 	b	ade0 <mpa_set_str+0x178>
/home/pedro/devel/optee/optee_os/lib/libmpa/mpa_io.c:304
    adb0:	394006f6 	ldrb	w22, [x23,#1]
    adb4:	91000af7 	add	x23, x23, #0x2
    adb8:	17ffffd7 	b	ad14 <mpa_set_str+0xac>
/home/pedro/devel/optee/optee_os/lib/libmpa/mpa_io.c:309
    adbc:	384016f6 	ldrb	w22, [x23],#1
    adc0:	17ffffd5 	b	ad14 <mpa_set_str+0xac>
/home/pedro/devel/optee/optee_os/lib/libmpa/mpa_io.c:320
    adc4:	910004a5 	add	x5, x5, #0x1
    adc8:	17ffffda 	b	ad30 <mpa_set_str+0xc8>
/home/pedro/devel/optee/optee_os/lib/libmpa/mpa_io.c:325
    adcc:	d0000004 	adrp	x4, c000 <PRIME_TABLE+0x8a0>
    add0:	913ebc84 	add	x4, x4, #0xfaf
    add4:	52800023 	mov	w3, #0x1                   	// #1
    add8:	52800022 	mov	w2, #0x1                   	// #1
    addc:	528028a1 	mov	w1, #0x145                 	// #325
/home/pedro/devel/optee/optee_os/lib/libmpa/mpa_io.c:344
    ade0:	d0000000 	adrp	x0, c000 <PRIME_TABLE+0x8a0>
    ade4:	91126000 	add	x0, x0, #0x498
    ade8:	97fff1f1 	bl	75ac <trace_printf>
/home/pedro/devel/optee/optee_os/lib/libmpa/mpa_io.c:347
    adec:	12800013 	mov	w19, #0xffffffff            	// #-1
/home/pedro/devel/optee/optee_os/lib/libmpa/mpa_io.c:348
    adf0:	17ffffbb 	b	acdc <mpa_set_str+0x74>
/home/pedro/devel/optee/optee_os/lib/libmpa/mpa_io.c:334
    adf4:	11000661 	add	w1, w19, #0x1
__mpa_digit_value():
/home/pedro/devel/optee/optee_os/lib/libmpa/mpa_io.c:89
    adf8:	7100241f 	cmp	w0, #0x9
    adfc:	540000a9 	b.ls	ae10 <mpa_set_str+0x1a8>
/home/pedro/devel/optee/optee_os/lib/libmpa/mpa_io.c:91
    ae00:	510106c0 	sub	w0, w22, #0x41
    ae04:	7100141f 	cmp	w0, #0x5
    ae08:	540000c8 	b.hi	ae20 <mpa_set_str+0x1b8>
/home/pedro/devel/optee/optee_os/lib/libmpa/mpa_io.c:92
    ae0c:	5100dec0 	sub	w0, w22, #0x37
mpa_set_str():
/home/pedro/devel/optee/optee_os/lib/libmpa/mpa_io.c:334
    ae10:	3833cb00 	strb	w0, [x24,w19,sxtw]
    ae14:	2a0103f3 	mov	w19, w1
/home/pedro/devel/optee/optee_os/lib/libmpa/mpa_io.c:335
    ae18:	384016f6 	ldrb	w22, [x23],#1
    ae1c:	17ffffcf 	b	ad58 <mpa_set_str+0xf0>
__mpa_digit_value():
/home/pedro/devel/optee/optee_os/lib/libmpa/mpa_io.c:93
    ae20:	510186c0 	sub	w0, w22, #0x61
/home/pedro/devel/optee/optee_os/lib/libmpa/mpa_io.c:94
    ae24:	51015ec3 	sub	w3, w22, #0x57
    ae28:	7100141f 	cmp	w0, #0x5
    ae2c:	1a9f9060 	csel	w0, w3, wzr, ls
    ae30:	17fffff8 	b	ae10 <mpa_set_str+0x1a8>
mpa_set_str():
/home/pedro/devel/optee/optee_os/lib/libmpa/mpa_io.c:353
    ae34:	aa1403e0 	mov	x0, x20
    ae38:	52800001 	mov	w1, #0x0                   	// #0
    ae3c:	97fff4e7 	bl	81d8 <mpa_set_word>
/home/pedro/devel/optee/optee_os/lib/libmpa/mpa_io.c:352
    ae40:	91002296 	add	x22, x20, #0x8
/home/pedro/devel/optee/optee_os/lib/libmpa/mpa_io.c:357
    ae44:	52800020 	mov	w0, #0x1                   	// #1
/home/pedro/devel/optee/optee_os/lib/libmpa/mpa_io.c:358
    ae48:	51000666 	sub	w6, w19, #0x1
    ae4c:	b0000064 	adrp	x4, 17000 <mempool_u32+0xc58>
/home/pedro/devel/optee/optee_os/lib/libmpa/mpa_io.c:355
    ae50:	2900fe80 	stp	w0, wzr, [x20,#4]
    ae54:	93407cc3 	sxtw	x3, w6
/home/pedro/devel/optee/optee_os/lib/libmpa/mpa_io.c:356
    ae58:	52800080 	mov	w0, #0x4                   	// #4
/home/pedro/devel/optee/optee_os/lib/libmpa/mpa_io.c:360
    ae5c:	913d4087 	add	x7, x4, #0xf50
/home/pedro/devel/optee/optee_os/lib/libmpa/mpa_io.c:361
    ae60:	2a0003e8 	mov	w8, w0
/home/pedro/devel/optee/optee_os/lib/libmpa/mpa_io.c:359
    ae64:	7100047f 	cmp	w3, #0x1
    ae68:	b94002c2 	ldr	w2, [x22]
    ae6c:	5400024c 	b.gt	aeb4 <mpa_set_str+0x24c>
/home/pedro/devel/optee/optee_os/lib/libmpa/mpa_io.c:375
    ae70:	397d4081 	ldrb	w1, [x4,#3920]
/home/pedro/devel/optee/optee_os/lib/libmpa/mpa_io.c:371
    ae74:	360000a6 	tbz	w6, #0, ae88 <mpa_set_str+0x220>
/home/pedro/devel/optee/optee_os/lib/libmpa/mpa_io.c:372
    ae78:	913d4083 	add	x3, x4, #0xf50
    ae7c:	397d4081 	ldrb	w1, [x4,#3920]
    ae80:	39400463 	ldrb	w3, [x3,#1]
    ae84:	4a011061 	eor	w1, w3, w1, lsl #4
/home/pedro/devel/optee/optee_os/lib/libmpa/mpa_io.c:373
    ae88:	52800083 	mov	w3, #0x4                   	// #4
    ae8c:	4b000060 	sub	w0, w3, w0
    ae90:	531d7000 	lsl	w0, w0, #3
/home/pedro/devel/optee/optee_os/lib/libmpa/mpa_io.c:372
    ae94:	1ac02020 	lsl	w0, w1, w0
    ae98:	4a000040 	eor	w0, w2, w0
    ae9c:	b90002c0 	str	w0, [x22]
/home/pedro/devel/optee/optee_os/lib/libmpa/mpa_io.c:378
    aea0:	34fff1f5 	cbz	w21, acdc <mpa_set_str+0x74>
/home/pedro/devel/optee/optee_os/lib/libmpa/mpa_io.c:379
    aea4:	b9400680 	ldr	w0, [x20,#4]
    aea8:	4b0003e0 	neg	w0, w0
    aeac:	b9000680 	str	w0, [x20,#4]
    aeb0:	17ffff8b 	b	acdc <mpa_set_str+0x74>
/home/pedro/devel/optee/optee_os/lib/libmpa/mpa_io.c:360
    aeb4:	8b0300e1 	add	x1, x7, x3
    aeb8:	38676865 	ldrb	w5, [x3,x7]
    aebc:	385ff021 	ldurb	w1, [x1,#-1]
    aec0:	4a0110a1 	eor	w1, w5, w1, lsl #4
/home/pedro/devel/optee/optee_os/lib/libmpa/mpa_io.c:361
    aec4:	4b000105 	sub	w5, w8, w0
    aec8:	531d70a5 	lsl	w5, w5, #3
/home/pedro/devel/optee/optee_os/lib/libmpa/mpa_io.c:364
    aecc:	71000400 	subs	w0, w0, #0x1
/home/pedro/devel/optee/optee_os/lib/libmpa/mpa_io.c:360
    aed0:	1ac52021 	lsl	w1, w1, w5
    aed4:	4a010041 	eor	w1, w2, w1
    aed8:	b90002c1 	str	w1, [x22]
/home/pedro/devel/optee/optee_os/lib/libmpa/mpa_io.c:364
    aedc:	540000e1 	b.ne	aef8 <mpa_set_str+0x290>
/home/pedro/devel/optee/optee_os/lib/libmpa/mpa_io.c:366
    aee0:	b90006df 	str	wzr, [x22,#4]
/home/pedro/devel/optee/optee_os/lib/libmpa/mpa_io.c:365
    aee4:	910012d6 	add	x22, x22, #0x4
/home/pedro/devel/optee/optee_os/lib/libmpa/mpa_io.c:368
    aee8:	b9400680 	ldr	w0, [x20,#4]
    aeec:	11000400 	add	w0, w0, #0x1
    aef0:	b9000680 	str	w0, [x20,#4]
/home/pedro/devel/optee/optee_os/lib/libmpa/mpa_io.c:367
    aef4:	52800080 	mov	w0, #0x4                   	// #4
    aef8:	d1000863 	sub	x3, x3, #0x2
    aefc:	17ffffda 	b	ae64 <mpa_set_str+0x1fc>

000000000000af00 <mpa_get_str>:
mpa_get_str():
/home/pedro/devel/optee/optee_os/lib/libmpa/mpa_io.c:399
    af00:	a9be7bfd 	stp	x29, x30, [sp,#-32]!
    af04:	910003fd 	mov	x29, sp
    af08:	f9000bf3 	str	x19, [sp,#16]
/home/pedro/devel/optee/optee_os/lib/libmpa/mpa_io.c:402
    af0c:	b5000160 	cbnz	x0, af38 <mpa_get_str+0x38>
/home/pedro/devel/optee/optee_os/lib/libmpa/mpa_io.c:402 (discriminator 1)
    af10:	d0000003 	adrp	x3, c000 <PRIME_TABLE+0x8a0>
    af14:	91126063 	add	x3, x3, #0x498
    af18:	91004063 	add	x3, x3, #0x10
    af1c:	d0000001 	adrp	x1, c000 <PRIME_TABLE+0x8a0>
    af20:	f0000000 	adrp	x0, d000 <__func__.3637+0xb58>
    af24:	913fd821 	add	x1, x1, #0xff6
    af28:	91002800 	add	x0, x0, #0xa
    af2c:	52803242 	mov	w2, #0x192                 	// #402
    af30:	97ffe7cd 	bl	4e64 <_assert_log>
    af34:	97ffe7dd 	bl	4ea8 <_assert_break>
/home/pedro/devel/optee/optee_os/lib/libmpa/mpa_io.c:405
    af38:	b9400443 	ldr	w3, [x2,#4]
    af3c:	aa0003f3 	mov	x19, x0
    af40:	36f80063 	tbz	w3, #31, af4c <mpa_get_str+0x4c>
/home/pedro/devel/optee/optee_os/lib/libmpa/mpa_io.c:406
    af44:	528005a3 	mov	w3, #0x2d                  	// #45
    af48:	38001403 	strb	w3, [x0],#1
/home/pedro/devel/optee/optee_os/lib/libmpa/mpa_io.c:409
    af4c:	7100403f 	cmp	w1, #0x10
    af50:	540000a0 	b.eq	af64 <mpa_get_str+0x64>
    af54:	7100443f 	cmp	w1, #0x11
    af58:	54000120 	b.eq	af7c <mpa_get_str+0x7c>
/home/pedro/devel/optee/optee_os/lib/libmpa/mpa_io.c:417
    af5c:	d2800013 	mov	x19, #0x0                   	// #0
    af60:	14000003 	b	af6c <mpa_get_str+0x6c>
/home/pedro/devel/optee/optee_os/lib/libmpa/mpa_io.c:411
    af64:	52800001 	mov	w1, #0x0                   	// #0
/home/pedro/devel/optee/optee_os/lib/libmpa/mpa_io.c:414
    af68:	97fffeea 	bl	ab10 <__mpa_mpanum_to_hexstr>
/home/pedro/devel/optee/optee_os/lib/libmpa/mpa_io.c:421
    af6c:	aa1303e0 	mov	x0, x19
    af70:	f9400bf3 	ldr	x19, [sp,#16]
    af74:	a8c27bfd 	ldp	x29, x30, [sp],#32
    af78:	d65f03c0 	ret
/home/pedro/devel/optee/optee_os/lib/libmpa/mpa_io.c:414
    af7c:	52800021 	mov	w1, #0x1                   	// #1
    af80:	17fffffa 	b	af68 <mpa_get_str+0x68>

000000000000af84 <mpa_set_oct_str>:
mpa_set_oct_str():
/home/pedro/devel/optee/optee_os/lib/libmpa/mpa_io.c:438
    af84:	a9bc7bfd 	stp	x29, x30, [sp,#-64]!
    af88:	910003fd 	mov	x29, sp
    af8c:	a90153f3 	stp	x19, x20, [sp,#16]
    af90:	aa0003f4 	mov	x20, x0
    af94:	a9025bf5 	stp	x21, x22, [sp,#32]
/home/pedro/devel/optee/optee_os/lib/libmpa/mpa_io.c:440
    af98:	2a0203f3 	mov	w19, w2
/home/pedro/devel/optee/optee_os/lib/libmpa/mpa_io.c:438
    af9c:	f9001bf7 	str	x23, [sp,#48]
    afa0:	aa0103f5 	mov	x21, x1
    afa4:	12001c77 	and	w23, w3, #0xff
/home/pedro/devel/optee/optee_os/lib/libmpa/mpa_io.c:444
    afa8:	7100027f 	cmp	w19, #0x0
    afac:	5400016c 	b.gt	afd8 <mpa_set_oct_str+0x54>
/home/pedro/devel/optee/optee_os/lib/libmpa/mpa_io.c:451
    afb0:	540001e1 	b.ne	afec <mpa_set_oct_str+0x68>
/home/pedro/devel/optee/optee_os/lib/libmpa/mpa_io.c:452
    afb4:	52800001 	mov	w1, #0x0                   	// #0
    afb8:	aa1403e0 	mov	x0, x20
    afbc:	97fff487 	bl	81d8 <mpa_set_word>
/home/pedro/devel/optee/optee_os/lib/libmpa/mpa_io.c:481
    afc0:	2a1303e0 	mov	w0, w19
    afc4:	f9401bf7 	ldr	x23, [sp,#48]
    afc8:	a94153f3 	ldp	x19, x20, [sp,#16]
    afcc:	a9425bf5 	ldp	x21, x22, [sp,#32]
    afd0:	a8c47bfd 	ldp	x29, x30, [sp],#64
    afd4:	d65f03c0 	ret
/home/pedro/devel/optee/optee_os/lib/libmpa/mpa_io.c:445
    afd8:	394002a0 	ldrb	w0, [x21]
    afdc:	35000080 	cbnz	w0, afec <mpa_set_oct_str+0x68>
/home/pedro/devel/optee/optee_os/lib/libmpa/mpa_io.c:447
    afe0:	51000673 	sub	w19, w19, #0x1
/home/pedro/devel/optee/optee_os/lib/libmpa/mpa_io.c:448
    afe4:	910006b5 	add	x21, x21, #0x1
    afe8:	17fffff0 	b	afa8 <mpa_set_oct_str+0x24>
/home/pedro/devel/optee/optee_os/lib/libmpa/mpa_io.c:461
    afec:	b9400280 	ldr	w0, [x20]
    aff0:	51000661 	sub	w1, w19, #0x1
    aff4:	d37e7400 	ubfiz	x0, x0, #2, #30
    aff8:	eb21c01f 	cmp	x0, w1, sxtw
    affc:	54000483 	b.cc	b08c <mpa_set_oct_str+0x108>
/home/pedro/devel/optee/optee_os/lib/libmpa/mpa_io.c:465
    b000:	52800001 	mov	w1, #0x0                   	// #0
    b004:	aa1403e0 	mov	x0, x20
/home/pedro/devel/optee/optee_os/lib/libmpa/mpa_io.c:464
    b008:	91002296 	add	x22, x20, #0x8
/home/pedro/devel/optee/optee_os/lib/libmpa/mpa_io.c:465
    b00c:	97fff473 	bl	81d8 <mpa_set_word>
/home/pedro/devel/optee/optee_os/lib/libmpa/mpa_io.c:469
    b010:	52800083 	mov	w3, #0x4                   	// #4
    b014:	12bc0005 	mov	w5, #0x1fffffff            	// #536870911
/home/pedro/devel/optee/optee_os/lib/libmpa/mpa_io.c:467
    b018:	b900069f 	str	wzr, [x20,#4]
/home/pedro/devel/optee/optee_os/lib/libmpa/mpa_io.c:468
    b01c:	7100027f 	cmp	w19, #0x0
    b020:	540000ec 	b.gt	b03c <mpa_set_oct_str+0xb8>
/home/pedro/devel/optee/optee_os/lib/libmpa/mpa_io.c:480
    b024:	52800013 	mov	w19, #0x0                   	// #0
/home/pedro/devel/optee/optee_os/lib/libmpa/mpa_io.c:477
    b028:	34fffcd7 	cbz	w23, afc0 <mpa_set_oct_str+0x3c>
/home/pedro/devel/optee/optee_os/lib/libmpa/mpa_io.c:478
    b02c:	b9400680 	ldr	w0, [x20,#4]
    b030:	4b0003e0 	neg	w0, w0
    b034:	b9000680 	str	w0, [x20,#4]
    b038:	17ffffe2 	b	afc0 <mpa_set_oct_str+0x3c>
/home/pedro/devel/optee/optee_os/lib/libmpa/mpa_io.c:469
    b03c:	7100127f 	cmp	w19, #0x4
    b040:	110004a1 	add	w1, w5, #0x1
    b044:	1a83d260 	csel	w0, w19, w3, le
    b048:	531d7021 	lsl	w1, w1, #3
/home/pedro/devel/optee/optee_os/lib/libmpa/mpa_io.c:471
    b04c:	4b000273 	sub	w19, w19, w0
    b050:	51000400 	sub	w0, w0, #0x1
set_word():
/home/pedro/devel/optee/optee_os/lib/libmpa/mpa_io.c:432
    b054:	8b33c2a6 	add	x6, x21, w19, sxtw
/home/pedro/devel/optee/optee_os/lib/libmpa/mpa_io.c:430
    b058:	52800002 	mov	w2, #0x0                   	// #0
/home/pedro/devel/optee/optee_os/lib/libmpa/mpa_io.c:432
    b05c:	386068c4 	ldrb	w4, [x6,x0]
    b060:	d1000400 	sub	x0, x0, #0x1
/home/pedro/devel/optee/optee_os/lib/libmpa/mpa_io.c:431
    b064:	3100041f 	cmn	w0, #0x1
/home/pedro/devel/optee/optee_os/lib/libmpa/mpa_io.c:432
    b068:	1ac12084 	lsl	w4, w4, w1
    b06c:	11002021 	add	w1, w1, #0x8
    b070:	2a040042 	orr	w2, w2, w4
/home/pedro/devel/optee/optee_os/lib/libmpa/mpa_io.c:431
    b074:	54ffff41 	b.ne	b05c <mpa_set_oct_str+0xd8>
mpa_set_oct_str():
/home/pedro/devel/optee/optee_os/lib/libmpa/mpa_io.c:472
    b078:	b80046c2 	str	w2, [x22],#4
/home/pedro/devel/optee/optee_os/lib/libmpa/mpa_io.c:474
    b07c:	b9400680 	ldr	w0, [x20,#4]
    b080:	11000400 	add	w0, w0, #0x1
    b084:	b9000680 	str	w0, [x20,#4]
    b088:	17ffffe5 	b	b01c <mpa_set_oct_str+0x98>
/home/pedro/devel/optee/optee_os/lib/libmpa/mpa_io.c:462
    b08c:	12800013 	mov	w19, #0xffffffff            	// #-1
    b090:	17ffffcc 	b	afc0 <mpa_set_oct_str+0x3c>

000000000000b094 <mpa_get_oct_str>:
mpa_get_oct_str():
/home/pedro/devel/optee/optee_os/lib/libmpa/mpa_io.c:494
    b094:	a9bb7bfd 	stp	x29, x30, [sp,#-80]!
    b098:	52800024 	mov	w4, #0x1                   	// #1
    b09c:	910003fd 	mov	x29, sp
    b0a0:	a90153f3 	stp	x19, x20, [sp,#16]
__mpa_size_in_base_255():
/home/pedro/devel/optee/optee_os/lib/libmpa/mpa_io.c:220
    b0a4:	b9400443 	ldr	w3, [x2,#4]
mpa_get_oct_str():
/home/pedro/devel/optee/optee_os/lib/libmpa/mpa_io.c:494
    b0a8:	a9025bf5 	stp	x21, x22, [sp,#32]
    b0ac:	f9001bf7 	str	x23, [sp,#48]
__mpa_size_in_base_255():
/home/pedro/devel/optee/optee_os/lib/libmpa/mpa_io.c:220
    b0b0:	7100007f 	cmp	w3, #0x0
    b0b4:	540001e0 	b.eq	b0f0 <mpa_get_oct_str+0x5c>
/home/pedro/devel/optee/optee_os/lib/libmpa/mpa_io.c:224
    b0b8:	5a83a464 	cneg	w4, w3, lt
    b0bc:	51000485 	sub	w5, w4, #0x1
/home/pedro/devel/optee/optee_os/lib/libmpa/mpa_io.c:223
    b0c0:	8b25c845 	add	x5, x2, w5, sxtw #2
    b0c4:	b94008a7 	ldr	w7, [x5,#8]
__mpa_count_leading_zero_bits():
/home/pedro/devel/optee/optee_os/lib/libmpa/mpa_io.c:199
    b0c8:	52800405 	mov	w5, #0x20                  	// #32
/home/pedro/devel/optee/optee_os/lib/libmpa/mpa_io.c:198
    b0cc:	340000a7 	cbz	w7, b0e0 <mpa_get_oct_str+0x4c>
    b0d0:	52800005 	mov	w5, #0x0                   	// #0
    b0d4:	52b00006 	mov	w6, #0x80000000            	// #-2147483648
/home/pedro/devel/optee/optee_os/lib/libmpa/mpa_io.c:202
    b0d8:	6a0600ff 	tst	w7, w6
    b0dc:	54000180 	b.eq	b10c <mpa_get_oct_str+0x78>
__mpa_size_in_base_255():
/home/pedro/devel/optee/optee_os/lib/libmpa/mpa_io.c:225
    b0e0:	531b6893 	lsl	w19, w4, #5
/home/pedro/devel/optee/optee_os/lib/libmpa/mpa_io.c:227
    b0e4:	11001e73 	add	w19, w19, #0x7
    b0e8:	4b050273 	sub	w19, w19, w5
    b0ec:	53037e64 	lsr	w4, w19, #3
mpa_get_oct_str():
/home/pedro/devel/optee/optee_os/lib/libmpa/mpa_io.c:501
    b0f0:	f9400025 	ldr	x5, [x1]
/home/pedro/devel/optee/optee_os/lib/libmpa/mpa_io.c:495
    b0f4:	2a0403f3 	mov	w19, w4
/home/pedro/devel/optee/optee_os/lib/libmpa/mpa_io.c:501
    b0f8:	eb05027f 	cmp	x19, x5
    b0fc:	540000e9 	b.ls	b118 <mpa_get_oct_str+0x84>
/home/pedro/devel/optee/optee_os/lib/libmpa/mpa_io.c:502
    b100:	f9000033 	str	x19, [x1]
/home/pedro/devel/optee/optee_os/lib/libmpa/mpa_io.c:527
    b104:	12800000 	mov	w0, #0xffffffff            	// #-1
    b108:	1400000e 	b	b140 <mpa_get_oct_str+0xac>
__mpa_count_leading_zero_bits():
/home/pedro/devel/optee/optee_os/lib/libmpa/mpa_io.c:203
    b10c:	110004a5 	add	w5, w5, #0x1
/home/pedro/devel/optee/optee_os/lib/libmpa/mpa_io.c:204
    b110:	53017cc6 	lsr	w6, w6, #1
    b114:	17fffff1 	b	b0d8 <mpa_get_oct_str+0x44>
    b118:	aa0203f7 	mov	x23, x2
    b11c:	aa0103f6 	mov	x22, x1
    b120:	aa0003e4 	mov	x4, x0
mpa_get_oct_str():
/home/pedro/devel/optee/optee_os/lib/libmpa/mpa_io.c:507
    b124:	7100007f 	cmp	w3, #0x0
    b128:	54000161 	b.ne	b154 <mpa_get_oct_str+0xc0>
/home/pedro/devel/optee/optee_os/lib/libmpa/mpa_io.c:508
    b12c:	aa0503e2 	mov	x2, x5
    b130:	52800001 	mov	w1, #0x0                   	// #0
    b134:	97ffedd7 	bl	6890 <memset>
/home/pedro/devel/optee/optee_os/lib/libmpa/mpa_io.c:536
    b138:	52800000 	mov	w0, #0x0                   	// #0
/home/pedro/devel/optee/optee_os/lib/libmpa/mpa_io.c:535
    b13c:	f90002d3 	str	x19, [x22]
/home/pedro/devel/optee/optee_os/lib/libmpa/mpa_io.c:537
    b140:	a94153f3 	ldp	x19, x20, [sp,#16]
    b144:	a9425bf5 	ldp	x21, x22, [sp,#32]
    b148:	f9401bf7 	ldr	x23, [sp,#48]
    b14c:	a8c57bfd 	ldp	x29, x30, [sp],#80
    b150:	d65f03c0 	ret
/home/pedro/devel/optee/optee_os/lib/libmpa/mpa_io.c:506
    b154:	5a83a474 	cneg	w20, w3, lt
/home/pedro/devel/optee/optee_os/lib/libmpa/mpa_io.c:511
    b158:	51000680 	sub	w0, w20, #0x1
/home/pedro/devel/optee/optee_os/lib/libmpa/mpa_io.c:514
    b15c:	8b20c840 	add	x0, x2, w0, sxtw #2
    b160:	b9400801 	ldr	w1, [x0,#8]
get_word():
/home/pedro/devel/optee/optee_os/lib/libmpa/mpa_io.c:488
    b164:	39012fa1 	strb	w1, [x29,#75]
/home/pedro/devel/optee/optee_os/lib/libmpa/mpa_io.c:489
    b168:	53087c20 	lsr	w0, w1, #8
    b16c:	53187c23 	lsr	w3, w1, #24
/home/pedro/devel/optee/optee_os/lib/libmpa/mpa_io.c:488
    b170:	39012ba0 	strb	w0, [x29,#74]
/home/pedro/devel/optee/optee_os/lib/libmpa/mpa_io.c:489
    b174:	53107c20 	lsr	w0, w1, #16
/home/pedro/devel/optee/optee_os/lib/libmpa/mpa_io.c:488
    b178:	910143a1 	add	x1, x29, #0x50
    b17c:	390127a0 	strb	w0, [x29,#73]
    b180:	d2800000 	mov	x0, #0x0                   	// #0
    b184:	381f8c23 	strb	w3, [x1,#-8]!
mpa_get_oct_str():
/home/pedro/devel/optee/optee_os/lib/libmpa/mpa_io.c:517
    b188:	38616802 	ldrb	w2, [x0,x1]
    b18c:	34000342 	cbz	w2, b1f4 <mpa_get_oct_str+0x160>
/home/pedro/devel/optee/optee_os/lib/libmpa/mpa_io.c:518
    b190:	52800095 	mov	w21, #0x4                   	// #4
    b194:	4b0002b5 	sub	w21, w21, w0
    b198:	93407eb5 	sxtw	x21, w21
    b19c:	8b20c021 	add	x1, x1, w0, sxtw
    b1a0:	aa1503e2 	mov	x2, x21
    b1a4:	aa0403e0 	mov	x0, x4
    b1a8:	97ffed9f 	bl	6824 <memcpy>
    b1ac:	aa0003e4 	mov	x4, x0
/home/pedro/devel/optee/optee_os/lib/libmpa/mpa_io.c:523
    b1b0:	51000a83 	sub	w3, w20, #0x2
    b1b4:	93407c63 	sxtw	x3, w3
/home/pedro/devel/optee/optee_os/lib/libmpa/mpa_io.c:525
    b1b8:	37fffc03 	tbnz	w3, #31, b138 <mpa_get_oct_str+0xa4>
/home/pedro/devel/optee/optee_os/lib/libmpa/mpa_io.c:526
    b1bc:	eb1302bf 	cmp	x21, x19
    b1c0:	54fffa28 	b.hi	b104 <mpa_get_oct_str+0x70>
/home/pedro/devel/optee/optee_os/lib/libmpa/mpa_io.c:528
    b1c4:	8b030ae0 	add	x0, x23, x3, lsl #2
get_word():
/home/pedro/devel/optee/optee_os/lib/libmpa/mpa_io.c:488
    b1c8:	8b150082 	add	x2, x4, x21
mpa_get_oct_str():
/home/pedro/devel/optee/optee_os/lib/libmpa/mpa_io.c:528
    b1cc:	b9400801 	ldr	w1, [x0,#8]
    b1d0:	d2800060 	mov	x0, #0x3                   	// #3
get_word():
/home/pedro/devel/optee/optee_os/lib/libmpa/mpa_io.c:488
    b1d4:	38206841 	strb	w1, [x2,x0]
    b1d8:	d1000400 	sub	x0, x0, #0x1
/home/pedro/devel/optee/optee_os/lib/libmpa/mpa_io.c:489
    b1dc:	53087c21 	lsr	w1, w1, #8
/home/pedro/devel/optee/optee_os/lib/libmpa/mpa_io.c:487
    b1e0:	b100041f 	cmn	x0, #0x1
    b1e4:	54ffff81 	b.ne	b1d4 <mpa_get_oct_str+0x140>
mpa_get_oct_str():
/home/pedro/devel/optee/optee_os/lib/libmpa/mpa_io.c:530
    b1e8:	910012b5 	add	x21, x21, #0x4
    b1ec:	d1000463 	sub	x3, x3, #0x1
    b1f0:	17fffff2 	b	b1b8 <mpa_get_oct_str+0x124>
    b1f4:	91000400 	add	x0, x0, #0x1
/home/pedro/devel/optee/optee_os/lib/libmpa/mpa_io.c:516 (discriminator 2)
    b1f8:	f100101f 	cmp	x0, #0x4
    b1fc:	54fffc61 	b.ne	b188 <mpa_get_oct_str+0xf4>
/home/pedro/devel/optee/optee_os/lib/libmpa/mpa_io.c:497
    b200:	d2800015 	mov	x21, #0x0                   	// #0
    b204:	17ffffeb 	b	b1b0 <mpa_get_oct_str+0x11c>

000000000000b208 <mpa_mod>:
mpa_mod():
/home/pedro/devel/optee/optee_os/lib/libmpa/mpa_modulus.c:43
    b208:	aa0303e4 	mov	x4, x3
    b20c:	aa0203e3 	mov	x3, x2
    b210:	aa0103e2 	mov	x2, x1
    b214:	aa0003e1 	mov	x1, x0
    b218:	d2800000 	mov	x0, #0x0                   	// #0
    b21c:	17fff602 	b	8a24 <mpa_div>

000000000000b220 <mpa_add_mod>:
mpa_add_mod():
/home/pedro/devel/optee/optee_os/lib/libmpa/mpa_modulus.c:54
    b220:	a9bb7bfd 	stp	x29, x30, [sp,#-80]!
    b224:	910003fd 	mov	x29, sp
    b228:	a90153f3 	stp	x19, x20, [sp,#16]
/home/pedro/devel/optee/optee_os/lib/libmpa/mpa_modulus.c:57
    b22c:	910123b3 	add	x19, x29, #0x48
/home/pedro/devel/optee/optee_os/lib/libmpa/mpa_modulus.c:54
    b230:	aa0403f4 	mov	x20, x4
    b234:	a9025bf5 	stp	x21, x22, [sp,#32]
    b238:	a90363f7 	stp	x23, x24, [sp,#48]
    b23c:	aa0303f6 	mov	x22, x3
    b240:	aa0003f5 	mov	x21, x0
    b244:	aa0103f7 	mov	x23, x1
    b248:	aa0203f8 	mov	x24, x2
/home/pedro/devel/optee/optee_os/lib/libmpa/mpa_modulus.c:57
    b24c:	aa0403e1 	mov	x1, x4
    b250:	aa1303e0 	mov	x0, x19
    b254:	97fff894 	bl	94a4 <mpa_alloc_static_temp_var>
/home/pedro/devel/optee/optee_os/lib/libmpa/mpa_modulus.c:59
    b258:	f94027a0 	ldr	x0, [x29,#72]
    b25c:	aa1403e3 	mov	x3, x20
    b260:	aa1803e2 	mov	x2, x24
    b264:	aa1703e1 	mov	x1, x23
    b268:	97fffba1 	bl	a0ec <mpa_add>
/home/pedro/devel/optee/optee_os/lib/libmpa/mpa_modulus.c:60
    b26c:	f94027a2 	ldr	x2, [x29,#72]
    b270:	aa1403e4 	mov	x4, x20
    b274:	aa1603e3 	mov	x3, x22
    b278:	aa1503e1 	mov	x1, x21
    b27c:	d2800000 	mov	x0, #0x0                   	// #0
    b280:	97fff5e9 	bl	8a24 <mpa_div>
/home/pedro/devel/optee/optee_os/lib/libmpa/mpa_modulus.c:62
    b284:	aa1403e1 	mov	x1, x20
    b288:	aa1303e0 	mov	x0, x19
    b28c:	97fff88a 	bl	94b4 <mpa_free_static_temp_var>
/home/pedro/devel/optee/optee_os/lib/libmpa/mpa_modulus.c:63
    b290:	a94153f3 	ldp	x19, x20, [sp,#16]
    b294:	a9425bf5 	ldp	x21, x22, [sp,#32]
    b298:	a94363f7 	ldp	x23, x24, [sp,#48]
    b29c:	a8c57bfd 	ldp	x29, x30, [sp],#80
    b2a0:	d65f03c0 	ret

000000000000b2a4 <mpa_sub_mod>:
mpa_sub_mod():
/home/pedro/devel/optee/optee_os/lib/libmpa/mpa_modulus.c:73
    b2a4:	a9bb7bfd 	stp	x29, x30, [sp,#-80]!
    b2a8:	910003fd 	mov	x29, sp
    b2ac:	a90153f3 	stp	x19, x20, [sp,#16]
/home/pedro/devel/optee/optee_os/lib/libmpa/mpa_modulus.c:76
    b2b0:	910123b3 	add	x19, x29, #0x48
/home/pedro/devel/optee/optee_os/lib/libmpa/mpa_modulus.c:73
    b2b4:	aa0403f4 	mov	x20, x4
    b2b8:	a9025bf5 	stp	x21, x22, [sp,#32]
    b2bc:	a90363f7 	stp	x23, x24, [sp,#48]
    b2c0:	aa0303f6 	mov	x22, x3
    b2c4:	aa0003f5 	mov	x21, x0
    b2c8:	aa0103f7 	mov	x23, x1
    b2cc:	aa0203f8 	mov	x24, x2
/home/pedro/devel/optee/optee_os/lib/libmpa/mpa_modulus.c:76
    b2d0:	aa0403e1 	mov	x1, x4
    b2d4:	aa1303e0 	mov	x0, x19
    b2d8:	97fff873 	bl	94a4 <mpa_alloc_static_temp_var>
/home/pedro/devel/optee/optee_os/lib/libmpa/mpa_modulus.c:78
    b2dc:	f94027a0 	ldr	x0, [x29,#72]
    b2e0:	aa1403e3 	mov	x3, x20
    b2e4:	aa1803e2 	mov	x2, x24
    b2e8:	aa1703e1 	mov	x1, x23
    b2ec:	97fffbe5 	bl	a280 <mpa_sub>
/home/pedro/devel/optee/optee_os/lib/libmpa/mpa_modulus.c:79
    b2f0:	f94027a2 	ldr	x2, [x29,#72]
    b2f4:	aa1403e4 	mov	x4, x20
    b2f8:	aa1603e3 	mov	x3, x22
    b2fc:	aa1503e1 	mov	x1, x21
    b300:	d2800000 	mov	x0, #0x0                   	// #0
    b304:	97fff5c8 	bl	8a24 <mpa_div>
/home/pedro/devel/optee/optee_os/lib/libmpa/mpa_modulus.c:81
    b308:	aa1403e1 	mov	x1, x20
    b30c:	aa1303e0 	mov	x0, x19
    b310:	97fff869 	bl	94b4 <mpa_free_static_temp_var>
/home/pedro/devel/optee/optee_os/lib/libmpa/mpa_modulus.c:82
    b314:	a94153f3 	ldp	x19, x20, [sp,#16]
    b318:	a9425bf5 	ldp	x21, x22, [sp,#32]
    b31c:	a94363f7 	ldp	x23, x24, [sp,#48]
    b320:	a8c57bfd 	ldp	x29, x30, [sp],#80
    b324:	d65f03c0 	ret

000000000000b328 <mpa_mul_mod>:
mpa_mul_mod():
/home/pedro/devel/optee/optee_os/lib/libmpa/mpa_modulus.c:92
    b328:	a9bb7bfd 	stp	x29, x30, [sp,#-80]!
    b32c:	910003fd 	mov	x29, sp
    b330:	a90153f3 	stp	x19, x20, [sp,#16]
/home/pedro/devel/optee/optee_os/lib/libmpa/mpa_modulus.c:95
    b334:	910123b3 	add	x19, x29, #0x48
/home/pedro/devel/optee/optee_os/lib/libmpa/mpa_modulus.c:92
    b338:	aa0403f4 	mov	x20, x4
    b33c:	a9025bf5 	stp	x21, x22, [sp,#32]
    b340:	a90363f7 	stp	x23, x24, [sp,#48]
    b344:	aa0303f6 	mov	x22, x3
    b348:	aa0003f5 	mov	x21, x0
    b34c:	aa0103f7 	mov	x23, x1
    b350:	aa0203f8 	mov	x24, x2
/home/pedro/devel/optee/optee_os/lib/libmpa/mpa_modulus.c:95
    b354:	aa0403e1 	mov	x1, x4
    b358:	aa1303e0 	mov	x0, x19
    b35c:	97fff852 	bl	94a4 <mpa_alloc_static_temp_var>
/home/pedro/devel/optee/optee_os/lib/libmpa/mpa_modulus.c:97
    b360:	f94027a0 	ldr	x0, [x29,#72]
    b364:	aa1403e3 	mov	x3, x20
    b368:	aa1803e2 	mov	x2, x24
    b36c:	aa1703e1 	mov	x1, x23
    b370:	97fff8d5 	bl	96c4 <mpa_mul>
/home/pedro/devel/optee/optee_os/lib/libmpa/mpa_modulus.c:98
    b374:	f94027a2 	ldr	x2, [x29,#72]
    b378:	aa1403e4 	mov	x4, x20
    b37c:	aa1603e3 	mov	x3, x22
    b380:	aa1503e1 	mov	x1, x21
    b384:	d2800000 	mov	x0, #0x0                   	// #0
    b388:	97fff5a7 	bl	8a24 <mpa_div>
/home/pedro/devel/optee/optee_os/lib/libmpa/mpa_modulus.c:100
    b38c:	aa1403e1 	mov	x1, x20
    b390:	aa1303e0 	mov	x0, x19
    b394:	97fff848 	bl	94b4 <mpa_free_static_temp_var>
/home/pedro/devel/optee/optee_os/lib/libmpa/mpa_modulus.c:101
    b398:	a94153f3 	ldp	x19, x20, [sp,#16]
    b39c:	a9425bf5 	ldp	x21, x22, [sp,#32]
    b3a0:	a94363f7 	ldp	x23, x24, [sp,#48]
    b3a4:	a8c57bfd 	ldp	x29, x30, [sp],#80
    b3a8:	d65f03c0 	ret

000000000000b3ac <mpa_inv_mod>:
mpa_inv_mod():
/home/pedro/devel/optee/optee_os/lib/libmpa/mpa_modulus.c:110
    b3ac:	a9bb7bfd 	stp	x29, x30, [sp,#-80]!
    b3b0:	910003fd 	mov	x29, sp
    b3b4:	a9025bf5 	stp	x21, x22, [sp,#32]
    b3b8:	aa0103f6 	mov	x22, x1
    b3bc:	a90153f3 	stp	x19, x20, [sp,#16]
/home/pedro/devel/optee/optee_os/lib/libmpa/mpa_modulus.c:116
    b3c0:	52800021 	mov	w1, #0x1                   	// #1
/home/pedro/devel/optee/optee_os/lib/libmpa/mpa_modulus.c:110
    b3c4:	a90363f7 	stp	x23, x24, [sp,#48]
    b3c8:	aa0003f3 	mov	x19, x0
    b3cc:	aa0203f7 	mov	x23, x2
    b3d0:	aa0303f4 	mov	x20, x3
/home/pedro/devel/optee/optee_os/lib/libmpa/mpa_modulus.c:116
    b3d4:	aa1603e0 	mov	x0, x22
    b3d8:	97fffd0c 	bl	a808 <mpa_cmp_short>
    b3dc:	35000160 	cbnz	w0, b408 <mpa_inv_mod+0x5c>
/home/pedro/devel/optee/optee_os/lib/libmpa/mpa_modulus.c:118
    b3e0:	52800015 	mov	w21, #0x0                   	// #0
/home/pedro/devel/optee/optee_os/lib/libmpa/mpa_modulus.c:117
    b3e4:	52800021 	mov	w1, #0x1                   	// #1
    b3e8:	aa1303e0 	mov	x0, x19
    b3ec:	97fff353 	bl	8138 <mpa_set_S32>
/home/pedro/devel/optee/optee_os/lib/libmpa/mpa_modulus.c:145
    b3f0:	2a1503e0 	mov	w0, w21
    b3f4:	a94153f3 	ldp	x19, x20, [sp,#16]
    b3f8:	a9425bf5 	ldp	x21, x22, [sp,#32]
    b3fc:	a94363f7 	ldp	x23, x24, [sp,#48]
    b400:	a8c57bfd 	ldp	x29, x30, [sp],#80
    b404:	d65f03c0 	ret
/home/pedro/devel/optee/optee_os/lib/libmpa/mpa_modulus.c:122
    b408:	eb1302df 	cmp	x22, x19
    b40c:	54000421 	b.ne	b490 <mpa_inv_mod+0xe4>
/home/pedro/devel/optee/optee_os/lib/libmpa/mpa_modulus.c:123
    b410:	aa1403e1 	mov	x1, x20
    b414:	910123a0 	add	x0, x29, #0x48
    b418:	97fff823 	bl	94a4 <mpa_alloc_static_temp_var>
/home/pedro/devel/optee/optee_os/lib/libmpa/mpa_modulus.c:127
    b41c:	910103b8 	add	x24, x29, #0x40
    b420:	aa1403e1 	mov	x1, x20
    b424:	aa1803e0 	mov	x0, x24
    b428:	97fff81f 	bl	94a4 <mpa_alloc_static_temp_var>
/home/pedro/devel/optee/optee_os/lib/libmpa/mpa_modulus.c:129
    b42c:	a94407a0 	ldp	x0, x1, [x29,#64]
    b430:	aa1403e5 	mov	x5, x20
    b434:	aa1703e4 	mov	x4, x23
    b438:	aa1603e3 	mov	x3, x22
    b43c:	d2800002 	mov	x2, #0x0                   	// #0
    b440:	97fff758 	bl	91a0 <mpa_extended_gcd>
/home/pedro/devel/optee/optee_os/lib/libmpa/mpa_modulus.c:130
    b444:	f94023a0 	ldr	x0, [x29,#64]
    b448:	52800021 	mov	w1, #0x1                   	// #1
    b44c:	97fffcef 	bl	a808 <mpa_cmp_short>
    b450:	2a0003f5 	mov	w21, w0
/home/pedro/devel/optee/optee_os/lib/libmpa/mpa_modulus.c:132
    b454:	eb1302df 	cmp	x22, x19
    b458:	54000101 	b.ne	b478 <mpa_inv_mod+0xcc>
/home/pedro/devel/optee/optee_os/lib/libmpa/mpa_modulus.c:133
    b45c:	910143b6 	add	x22, x29, #0x50
    b460:	aa1303e0 	mov	x0, x19
    b464:	f85f8ec1 	ldr	x1, [x22,#-8]!
    b468:	97fff0fd 	bl	785c <mpa_copy>
/home/pedro/devel/optee/optee_os/lib/libmpa/mpa_modulus.c:134
    b46c:	aa1403e1 	mov	x1, x20
    b470:	aa1603e0 	mov	x0, x22
    b474:	97fff810 	bl	94b4 <mpa_free_static_temp_var>
/home/pedro/devel/optee/optee_os/lib/libmpa/mpa_modulus.c:137
    b478:	aa1403e1 	mov	x1, x20
    b47c:	aa1803e0 	mov	x0, x24
    b480:	97fff80d 	bl	94b4 <mpa_free_static_temp_var>
/home/pedro/devel/optee/optee_os/lib/libmpa/mpa_modulus.c:138
    b484:	34000155 	cbz	w21, b4ac <mpa_inv_mod+0x100>
/home/pedro/devel/optee/optee_os/lib/libmpa/mpa_modulus.c:143
    b488:	12800015 	mov	w21, #0xffffffff            	// #-1
    b48c:	17ffffd9 	b	b3f0 <mpa_inv_mod+0x44>
/home/pedro/devel/optee/optee_os/lib/libmpa/mpa_modulus.c:125
    b490:	f90027b3 	str	x19, [x29,#72]
    b494:	17ffffe2 	b	b41c <mpa_inv_mod+0x70>
/home/pedro/devel/optee/optee_os/lib/libmpa/mpa_modulus.c:140
    b498:	aa1403e3 	mov	x3, x20
    b49c:	aa1703e2 	mov	x2, x23
    b4a0:	aa1303e1 	mov	x1, x19
    b4a4:	aa1303e0 	mov	x0, x19
    b4a8:	97fffb11 	bl	a0ec <mpa_add>
/home/pedro/devel/optee/optee_os/lib/libmpa/mpa_modulus.c:139
    b4ac:	52800001 	mov	w1, #0x0                   	// #0
    b4b0:	aa1303e0 	mov	x0, x19
    b4b4:	97fffcd5 	bl	a808 <mpa_cmp_short>
    b4b8:	37ffff00 	tbnz	w0, #31, b498 <mpa_inv_mod+0xec>
    b4bc:	17ffffcd 	b	b3f0 <mpa_inv_mod+0x44>
