
4b1459ae-feb4-49a9-a47a-e65b6b4d1f49.elf:     file format elf64-littleaarch64
4b1459ae-feb4-49a9-a47a-e65b6b4d1f49.elf
architecture: aarch64, flags 0x00000150:
HAS_SYMS, DYNAMIC, D_PAGED
start address 0x0000000000000020

Program Header:
    LOAD off    0x0000000000010000 vaddr 0x0000000000000000 paddr 0x0000000000000000 align 2**16
         filesz 0x000000000000b900 memsz 0x000000000000b900 flags r-x
    LOAD off    0x000000000001b900 vaddr 0x000000000000b900 paddr 0x000000000000b900 align 2**16
         filesz 0x0000000000002410 memsz 0x0000000000002410 flags r--
    LOAD off    0x000000000001e000 vaddr 0x000000000000e000 paddr 0x000000000000e000 align 2**16
         filesz 0x000000000000033c memsz 0x000000000000af58 flags rw-
 DYNAMIC off    0x000000000001d9a8 vaddr 0x000000000000d9a8 paddr 0x000000000000d9a8 align 2**3
         filesz 0x0000000000000100 memsz 0x0000000000000100 flags rw-

Dynamic Section:
  HASH                 0x000000000000dcc0
  STRTAB               0x000000000000dc10
  SYMTAB               0x000000000000daa8
  STRSZ                0x00000000000000af
  SYMENT               0x0000000000000018
  DEBUG                0x0000000000000000
  RELA                 0x000000000000d5c8
  RELASZ               0x0000000000000360
  RELAENT              0x0000000000000018
  FLAGS_1              0x0000000008000000
  RELACOUNT            0x0000000000000018
private flags = 0:

Sections:
Idx Name          Size      VMA               LMA               File off  Algn
  0 .ta_head      00000020  0000000000000000  0000000000000000  00010000  2**3
                  CONTENTS, ALLOC, LOAD, DATA
  1 .text         0000b8e0  0000000000000020  0000000000000020  00010020  2**2
                  CONTENTS, ALLOC, LOAD, READONLY, CODE
  2 .rodata       00001cc6  000000000000b900  000000000000b900  0001b900  2**3
                  CONTENTS, ALLOC, LOAD, READONLY, DATA
  3 .dynsym       00000168  000000000000daa8  000000000000daa8  0001daa8  2**3
                  CONTENTS, ALLOC, LOAD, READONLY, DATA
  4 .rela.dyn     00000240  000000000000d5c8  000000000000d5c8  0001d5c8  2**3
                  CONTENTS, ALLOC, LOAD, READONLY, DATA
  5 .got          00000080  000000000000d808  000000000000d808  0001d808  2**3
                  CONTENTS, ALLOC, LOAD, DATA
  6 .rela.got     00000120  000000000000d888  000000000000d888  0001d888  2**3
                  CONTENTS, ALLOC, LOAD, READONLY, DATA
  7 .dynamic      00000100  000000000000d9a8  000000000000d9a8  0001d9a8  2**3
                  CONTENTS, ALLOC, LOAD, DATA
  8 .dynstr       000000af  000000000000dc10  000000000000dc10  0001dc10  2**0
                  CONTENTS, ALLOC, LOAD, READONLY, DATA
  9 .hash         00000050  000000000000dcc0  000000000000dcc0  0001dcc0  2**3
                  CONTENTS, ALLOC, LOAD, READONLY, DATA
 10 .data         0000033c  000000000000e000  000000000000e000  0001e000  2**3
                  CONTENTS, ALLOC, LOAD, DATA
 11 .bss          0000ac18  000000000000e340  000000000000e340  0001e33c  2**3
                  ALLOC
 12 .debug_info   0001603b  0000000000000000  0000000000000000  0001e33c  2**0
                  CONTENTS, READONLY, DEBUGGING
 13 .debug_abbrev 000047da  0000000000000000  0000000000000000  00034377  2**0
                  CONTENTS, READONLY, DEBUGGING
 14 .debug_loc    0001dd52  0000000000000000  0000000000000000  00038b51  2**0
                  CONTENTS, READONLY, DEBUGGING
 15 .debug_aranges 00000c40  0000000000000000  0000000000000000  000568b0  2**4
                  CONTENTS, READONLY, DEBUGGING
 16 .debug_macro  000053b1  0000000000000000  0000000000000000  000574f0  2**0
                  CONTENTS, READONLY, DEBUGGING
 17 .debug_line   000070e9  0000000000000000  0000000000000000  0005c8a1  2**0
                  CONTENTS, READONLY, DEBUGGING
 18 .debug_str    00010e9d  0000000000000000  0000000000000000  0006398a  2**0
                  CONTENTS, READONLY, DEBUGGING
 19 .comment      0000002d  0000000000000000  0000000000000000  00074827  2**0
                  CONTENTS, READONLY
 20 .debug_frame  000032e8  0000000000000000  0000000000000000  00074858  2**3
                  CONTENTS, READONLY, DEBUGGING
 21 .debug_ranges 00001250  0000000000000000  0000000000000000  00077b40  2**4
                  CONTENTS, READONLY, DEBUGGING
SYMBOL TABLE:
0000000000000000 l    d  .ta_head	0000000000000000 .ta_head
0000000000000020 l    d  .text	0000000000000000 .text
000000000000b900 l    d  .rodata	0000000000000000 .rodata
000000000000d5c8 l    d  .rela.dyn	0000000000000000 .rela.dyn
000000000000d808 l    d  .got	0000000000000000 .got
000000000000d888 l    d  .rela.got	0000000000000000 .rela.got
000000000000d9a8 l    d  .dynamic	0000000000000000 .dynamic
000000000000daa8 l    d  .dynsym	0000000000000000 .dynsym
000000000000dc10 l    d  .dynstr	0000000000000000 .dynstr
000000000000dcc0 l    d  .hash	0000000000000000 .hash
000000000000e000 l    d  .data	0000000000000000 .data
000000000000e340 l    d  .bss	0000000000000000 .bss
0000000000000000 l    d  .debug_info	0000000000000000 .debug_info
0000000000000000 l    d  .debug_abbrev	0000000000000000 .debug_abbrev
0000000000000000 l    d  .debug_loc	0000000000000000 .debug_loc
0000000000000000 l    d  .debug_aranges	0000000000000000 .debug_aranges
0000000000000000 l    d  .debug_macro	0000000000000000 .debug_macro
0000000000000000 l    d  .debug_line	0000000000000000 .debug_line
0000000000000000 l    d  .debug_str	0000000000000000 .debug_str
0000000000000000 l    d  .comment	0000000000000000 .comment
0000000000000000 l    d  .debug_frame	0000000000000000 .debug_frame
0000000000000000 l    d  .debug_ranges	0000000000000000 .debug_ranges
0000000000000000 l    df *ABS*	0000000000000000 user_ta_header.c
000000000000b9e8 l     O .rodata	0000000000000004 __compound_literal.5
000000000000b9ec l     O .rodata	0000000000000004 __compound_literal.4
000000000000b9f0 l     O .rodata	0000000000000004 __compound_literal.3
000000000000b9f4 l     O .rodata	0000000000000001 __compound_literal.2
000000000000b9f5 l     O .rodata	0000000000000001 __compound_literal.1
000000000000b9f6 l     O .rodata	0000000000000001 __compound_literal.0
0000000000000000 l    df *ABS*	0000000000000000 dbstore_ta.c
00000000000006f0 l     F .text	00000000000003ec init
000000000000b900 l     O .rodata	000000000000001a __func__.3848
000000000000b920 l     O .rodata	0000000000000019 __func__.3865
000000000000b940 l     O .rodata	0000000000000010 __func__.3882
000000000000b950 l     O .rodata	0000000000000005 __func__.3938
000000000000b958 l     O .rodata	0000000000000010 __func__.3899
000000000000b968 l     O .rodata	0000000000000014 __func__.3903
000000000000b980 l     O .rodata	0000000000000015 __func__.3907
000000000000b998 l     O .rodata	0000000000000019 __func__.3914
000000000000b9b8 l     O .rodata	000000000000001a __func__.3918
000000000000b9d8 l     O .rodata	0000000000000004 __func__.3964
0000000000000000 l    df *ABS*	0000000000000000 tee_api.c
0000000000016340 l     O .bss	0000000000000008 tee_api_instance_data
0000000000000000 l    df *ABS*	0000000000000000 tee_api_objects.c
0000000000000000 l    df *ABS*	0000000000000000 tee_api_operations.c
000000000000449c l     F .text	000000000000021c tee_buffer_update
0000000000000000 l    df *ABS*	0000000000000000 tee_api_panic.c
0000000000000000 l    df *ABS*	0000000000000000 user_ta_entry.c
00000000000046c0 l     F .text	0000000000000028 ta_header_get_session
00000000000046e8 l     F .text	0000000000000088 ta_header_remove_session
0000000000018f52 l     O .bss	0000000000000001 init_done
000000000000e2f8 l     O .data	0000000000000010 ta_sessions
0000000000000000 l    df *ABS*	0000000000000000 utee_syscalls_a64.o
0000000000000000 l    df *ABS*	0000000000000000 gprof_a64.o
0000000000000000 l    df *ABS*	0000000000000000 tee_user_mem.c
0000000000004cdc l     F .text	0000000000000058 print_buf
0000000000004d34 l     F .text	0000000000000104 check_elem
000000000000ba08 l     O .rodata	000000000000000b __func__.3881
000000000000ba18 l     O .rodata	000000000000000f __func__.3876
000000000000ba28 l     O .rodata	0000000000000013 __func__.3901
000000000000ba40 l     O .rodata	0000000000000012 __func__.3918
000000000000ba58 l     O .rodata	0000000000000018 __func__.3926
000000000000ba70 l     O .rodata	0000000000000010 __func__.3886
000000000000ba80 l     O .rodata	0000000000000014 __func__.3931
0000000000016390 l     O .bss	0000000000000008 heap_level
0000000000016398 l     O .bss	0000000000000010 global_stats
0000000000000000 l    df *ABS*	0000000000000000 assert.c
0000000000000000 l    df *ABS*	0000000000000000 tee_api_arith.c
0000000000005990 l     F .text	0000000000000028 TEE_BigInt_Panic
00000000000163a8 l     O .bss	0000000000001b40 mempool_u32
0000000000000000 l    df *ABS*	0000000000000000 utee_misc.c
0000000000000000 l    df *ABS*	0000000000000000 trace_ext.c
0000000000000000 l    df *ABS*	0000000000000000 bget_malloc.c
0000000000005b4c l     F .text	000000000000004c raw_malloc_return_hook
0000000000005b98 l     F .text	0000000000000110 create_free_block
000000000000ba98 l     O .rodata	0000000000000012 __func__.3429
000000000000bab0 l     O .rodata	0000000000000005 __func__.3297
000000000000bab8 l     O .rodata	0000000000000006 __func__.3311
000000000000bac0 l     O .rodata	0000000000000005 __func__.3326
000000000000bac8 l     O .rodata	0000000000000006 __func__.3319
000000000000bad0 l     O .rodata	0000000000000006 __func__.3334
000000000000bad8 l     O .rodata	0000000000000007 __func__.3343
000000000000bae0 l     O .rodata	000000000000000d __func__.3462
000000000000baf0 l     O .rodata	000000000000000c __func__.3438
000000000000bb00 l     O .rodata	000000000000000b __func__.3448
000000000000bb10 l     O .rodata	0000000000000010 __func__.3514
000000000000bb20 l     O .rodata	000000000000000e __func__.3468
000000000000bb30 l     O .rodata	0000000000000013 __func__.3382
0000000000017ee8 l     O .bss	0000000000000008 totalloc
0000000000017ef0 l     O .bss	0000000000000038 mstats
0000000000017f28 l     O .bss	0000000000000008 numget
0000000000017f30 l     O .bss	0000000000000008 numrel
0000000000017f38 l     O .bss	0000000000000008 malloc_pool_len
0000000000017f40 l     O .bss	0000000000000008 malloc_pool
000000000000e318 l     O .data	0000000000000020 freelist
0000000000000000 l    df *ABS*	0000000000000000 snprintf.c
0000000000000000 l    df *ABS*	0000000000000000 memcmp.c
0000000000000000 l    df *ABS*	0000000000000000 memcpy.c
0000000000000000 l    df *ABS*	0000000000000000 memmove.c
0000000000000000 l    df *ABS*	0000000000000000 memset.c
0000000000000000 l    df *ABS*	0000000000000000 strlen.c
0000000000000000 l    df *ABS*	0000000000000000 snprintk.c
000000000000bb48 l     O .rodata	0000000000000011 HEXDIGITS
000000000000bb60 l     O .rodata	0000000000000011 hexdigits
0000000000000000 l    df *ABS*	0000000000000000 buf_compare_ct.c
0000000000000000 l    df *ABS*	0000000000000000 trace.c
000000000000bb78 l     O .rodata	0000000000000005 lvl_strs.3168
0000000000000000 l    df *ABS*	0000000000000000 memchr.c
0000000000000000 l    df *ABS*	0000000000000000 mpa_misc.c
0000000000000000 l    df *ABS*	0000000000000000 mpa_montgomery.c
0000000000000000 l    df *ABS*	0000000000000000 mpa_primetest.c
000000000000c7e8 l     O .rodata	0000000000000010 const_miller_rabin_proof_limit
000000000000c7f8 l     O .rodata	000000000000001c proof_a.3549
000000000000c818 l     O .rodata	000000000000000c const_two
000000000000c828 l     O .rodata	00000000000000b8 const_small_prime_factors
0000000000000000 l    df *ABS*	0000000000000000 mpa_conv.c
0000000000000000 l    df *ABS*	0000000000000000 mpa_div.c
0000000000000000 l    df *ABS*	0000000000000000 mpa_gcd.c
0000000000008f54 l     F .text	0000000000000080 __mpa_divby2
0000000000008fd4 l     F .text	000000000000016c __mpa_gcd.part.0
0000000000009140 l     F .text	0000000000000380 __mpa_egcd
0000000000000000 l    df *ABS*	0000000000000000 mpa_mem_static.c
0000000000000000 l    df *ABS*	0000000000000000 mpa_mul.c
0000000000000000 l    df *ABS*	0000000000000000 mpa_random.c
0000000000017f48 l     O .bss	0000000000000008 get_rng_array
0000000000000000 l    df *ABS*	0000000000000000 mpa_shift.c
0000000000000000 l    df *ABS*	0000000000000000 mpa_addsub.c
0000000000000000 l    df *ABS*	0000000000000000 mpa_cmp.c
0000000000000000 l    df *ABS*	0000000000000000 mpa_expmod.c
0000000000000000 l    df *ABS*	0000000000000000 mpa_init.c
0000000000000000 l    df *ABS*	0000000000000000 mpa_io.c
000000000000af0c l     F .text	0000000000000044 __mpa_word_to_hexstr
000000000000af50 l     F .text	0000000000000114 __mpa_mpanum_to_hexstr
000000000000b064 l     F .text	000000000000003c __mpa_isspace
000000000000c8e8 l     O .rodata	000000000000000c __func__.3623
000000000000c8f8 l     O .rodata	000000000000000c __func__.3637
0000000000017f50 l     O .bss	0000000000001002 buf.3609
0000000000000000 l    df *ABS*	0000000000000000 mpa_modulus.c
0000000000000000 l    df *ABS*	0000000000000000 
000000000000d9a8 l     O *ABS*	0000000000000000 _DYNAMIC
000000000000d820 l     O *ABS*	0000000000000000 _GLOBAL_OFFSET_TABLE_
0000000000004cb4 g     F .text	000000000000000c utee_se_channel_transmit
0000000000005b10 g     F .text	000000000000003c putchar
000000000000ae88 g     F .text	000000000000001c mpa_init_static
0000000000001a10 g     F .text	00000000000000c0 TEE_PopulateTransientObject
0000000000007c9c g     F .text	0000000000000054 mpa_copy
00000000000058d0 g     F .text	000000000000001c TEE_BigIntConvertToFMM
00000000000057b0 g     F .text	000000000000000c TEE_BigIntSquareMod
0000000000005430 g     F .text	0000000000000004 TEE_BigIntShiftRight
00000000000085a4 g     F .text	0000000000000074 mpa_get_S32
0000000000007d20 g     F .text	0000000000000044 mpa_highest_bit_index
0000000000004b7c g     F .text	000000000000000c utee_storage_obj_create
0000000000004c90 g     F .text	000000000000000c utee_se_session_close
0000000000004984 g     F .text	000000000000000c utee_return
00000000000030bc g     F .text	0000000000000070 TEE_DigestUpdate
0000000000004c30 g     F .text	000000000000000c utee_se_service_get_readers
00000000000015d4 g     F .text	0000000000000008 TEE_Realloc
0000000000008694 g     F .text	0000000000000148 __mpa_div_q_r_internal_word
00000000000050c8 g     F .text	00000000000000bc tee_user_mem_realloc
0000000000002e0c g     F .text	0000000000000190 TEE_SetOperationKey2
000000000000a6c0 g     F .text	000000000000019c mpa_sub
0000000000005a04 g     F .text	00000000000000cc printf
0000000000004f84 g     F .text	0000000000000144 tee_user_mem_free
0000000000004990 g     F .text	000000000000000c utee_log
000000000000c8e0 g     O .rodata	0000000000000004 NR_STORED_PRIMES
0000000000001ad0 g     F .text	0000000000000054 TEE_InitRefAttribute
0000000000001304 g     F .text	00000000000000b4 TEE_InvokeTACommand
0000000000007da8 g     F .text	000000000000001c mpa_can_hold
0000000000009978 g     F .text	0000000000000098 __mpa_abs_mul_word
0000000000003b00 g     F .text	00000000000001a8 TEE_AEEncryptFinal
000000000000e108 g     O .data	0000000000000004 public_key
0000000000008144 g     F .text	0000000000000088 mpa_montgomery_mul
00000000000078b0 g     F .text	0000000000000054 vsnprintk
0000000000007dc4 g     F .text	000000000000000c mpa_parity
0000000000006c84 g     F .text	000000000000004c memmove
000000000000a248 g     F .text	0000000000000020 __mpa_full_adder_ackum
0000000000006b64 g     F .text	0000000000000078 snprintf
000000000000542c g     F .text	0000000000000004 TEE_BigIntCmpS32
0000000000001b24 g     F .text	0000000000000050 TEE_InitValueAttribute
0000000000005468 g     F .text	000000000000000c TEE_BigIntAdd
00000000000049b4 g     F .text	000000000000000c utee_get_property_name_to_index
0000000000000064 g     F .text	000000000000029c decrypt_using_private_key
000000000000b9f8 g     O .rodata	0000000000000008 ta_heap_size
000000000000c8e4 g     O .rodata	0000000000000004 MAX_TABULATED_PRIME
00000000000019bc g     F .text	0000000000000054 TEE_ResetTransientObject
00000000000059c0 g     F .text	0000000000000004 utee_malloc
0000000000004a38 g     F .text	000000000000000c utee_cryp_state_alloc
0000000000004b40 g     F .text	000000000000000c utee_authenc_enc_final
0000000000009958 g     F .text	0000000000000020 __mpa_mul_add_word_cum
00000000000031f0 g     F .text	00000000000000a4 TEE_CipherInit
0000000000005480 g     F .text	0000000000000004 TEE_BigIntNeg
0000000000008e64 g     F .text	00000000000000f0 mpa_div
0000000000000020 g       .text	0000000000000000 __text_start
0000000000001fe0 g     F .text	0000000000000050 TEE_StartPersistentObjectEnumerator
000000000000bb80 g     O .rodata	000000000000000c const_one
0000000000006af8 g     F .text	000000000000006c malloc_buffer_overlaps_heap
000000000000abc8 g     F .text	0000000000000018 __mpa_abs_less_than
0000000000005640 g     F .text	00000000000000a8 TEE_BigIntSubMod
0000000000003858 g     F .text	00000000000000c4 TEE_AEInit
0000000000009cb8 g     F .text	0000000000000114 mpa_get_random
00000000000059d0 g     F .text	0000000000000004 get_rng_array
00000000000079ec g     F .text	000000000000022c trace_printf
0000000000004c18 g     F .text	000000000000000c utee_se_service_open
0000000000006c64 g     F .text	0000000000000020 memcpy
0000000000004a50 g     F .text	000000000000000c utee_cryp_state_free
0000000000007c6c g     F .text	0000000000000030 mpa_wipe
00000000000058ec g     F .text	0000000000000094 TEE_BigIntConvertFromFMM
00000000000046b8 g     F .text	0000000000000008 TEE_Panic
0000000000004ca8 g     F .text	000000000000000c utee_se_channel_get_select_resp
0000000000002f9c g     F .text	0000000000000120 TEE_CopyOperation
0000000000005ad0 g     F .text	0000000000000040 puts
0000000000005980 g     F .text	0000000000000010 TEE_BigIntComputeFMM
0000000000008618 g     F .text	0000000000000014 mpa_set_word
00000000000063f0 g     F .text	0000000000000038 malloc_get_stats
0000000000009f34 g     F .text	0000000000000190 mpa_shift_left
0000000000004a98 g     F .text	000000000000000c utee_cipher_final
0000000000009b04 g     F .text	00000000000000e4 mpa_mul
00000000000015a4 g     F .text	0000000000000028 TEE_GetREETime
0000000000001f34 g     F .text	000000000000005c TEE_AllocatePersistentObjectEnumerator
000000000000e218 g     O .data	00000000000000d8 ta_props
0000000000003e40 g     F .text	0000000000000144 TEE_AsymmetricEncrypt
0000000000006428 g     F .text	0000000000000038 malloc
0000000000004ad4 g     F .text	000000000000000c utee_cryp_obj_close
0000000000004c54 g     F .text	000000000000000c utee_se_reader_open_session
0000000000006bdc g     F .text	0000000000000054 vsnprintf
0000000000001c74 g     F .text	0000000000000084 TEE_GenerateKey
000000000000e338 g     O .data	0000000000000004 trace_level
00000000000059b8 g     F .text	0000000000000008 utee_get_ta_exec_id
0000000000005428 g     F .text	0000000000000004 TEE_BigIntCmp
00000000000059c4 g     F .text	0000000000000004 utee_realloc
000000000000b9e0 g     O .rodata	0000000000000008 ta_num_props
00000000000061b8 g     F .text	000000000000009c bgetr
0000000000004b34 g     F .text	000000000000000c utee_authenc_update_payload
0000000000003294 g     F .text	000000000000015c TEE_CipherUpdate
00000000000053c4 g     F .text	0000000000000040 TEE_BigIntConvertToOctetString
0000000000002b5c g     F .text	0000000000000148 TEE_GetOperationInfoMultiple
0000000000004ccc g     F .text	000000000000000c utee_cache_operation
0000000000004b1c g     F .text	000000000000000c utee_authenc_init
0000000000005434 g     F .text	000000000000001c TEE_BigIntGetBit
000000000000ba00 g     O .rodata	0000000000000003 trace_ext_prefix
000000000000a268 g     F .text	00000000000000f4 __mpa_abs_add
0000000000005e84 g     F .text	0000000000000088 bgetz
000000000000145c g     F .text	000000000000000c TEE_GetInstanceData
00000000000014a8 g     F .text	000000000000003c TEE_Wait
0000000000004be8 g     F .text	000000000000000c utee_storage_obj_write
00000000000098f4 g     F .text	000000000000004c mpa_free_static_temp_var
000000000000e110 g     O .data	0000000000000101 private_key_dbstore
00000000000081cc g     F .text	00000000000003ac mpa_is_prob_prime
0000000000004cc0 g     F .text	000000000000000c utee_se_channel_close
0000000000009be8 g     F .text	00000000000000c4 mpa_mul_word
00000000000015e8 g     F .text	0000000000000008 TEE_CacheFlush
0000000000000d64 g     F .text	0000000000000024 TA_DestroyEntryPoint
00000000000052a4 g     F .text	0000000000000044 _assert_log
0000000000005388 g     F .text	0000000000000014 TEE_BigIntFMMContextSizeInU32
0000000000003798 g     F .text	00000000000000c0 TEE_MACCompareFinal
0000000000001ec8 g     F .text	000000000000006c TEE_RenamePersistentObject
000000000000312c g     F .text	00000000000000c4 TEE_DigestDoFinal
00000000000087dc g     F .text	0000000000000688 __mpa_div_q_r
00000000000052fc g     F .text	000000000000002c _TEE_MathAPI_Init
0000000000004bd0 g     F .text	000000000000000c utee_storage_next_enum
000000000000e340 g     O .bss	0000000000008000 ta_heap
00000000000057bc g     F .text	000000000000006c TEE_BigIntInvMod
0000000000000df4 g     F .text	0000000000000024 TA_CloseSessionEntryPoint
0000000000003f84 g     F .text	0000000000000148 TEE_AsymmetricDecrypt
0000000000001cf8 g     F .text	0000000000000098 TEE_OpenPersistentObject
000000000000499c g     F .text	000000000000000c __utee_panic
0000000000004a44 g     F .text	000000000000000c utee_cryp_state_copy
0000000000000e18 g     F .text	0000000000000348 TA_InvokeCommandEntryPoint
000000000000b3c4 g     F .text	0000000000000110 mpa_set_oct_str
0000000000004c84 g     F .text	000000000000000c utee_se_session_open_channel
0000000000009e38 g     F .text	0000000000000098 __mpa_shift_words_left
0000000000004ac8 g     F .text	000000000000000c utee_cryp_obj_alloc
0000000000004a2c g     F .text	000000000000000c utee_set_ta_time
0000000000004abc g     F .text	000000000000000c utee_cryp_obj_get_attr
0000000000001c20 g     F .text	0000000000000054 TEE_CopyObjectAttributes
0000000000007e54 g     F .text	0000000000000090 __mpa_montgomery_sub_ack
000000000000646c g     F .text	000000000000004c calloc
00000000000015cc g     F .text	0000000000000008 TEE_Malloc
0000000000004a08 g     F .text	000000000000000c utee_mask_cancellation
0000000000004ae0 g     F .text	000000000000000c utee_cryp_obj_reset
000000000000143c g     F .text	0000000000000014 TEE_CheckMemoryAccessRights
0000000000018f58 g       .bss	0000000000000000 __gprof_buf_end
000000000000a85c g     F .text	000000000000002c mpa_neg
000000000000bbb0 g     O .rodata	0000000000000c38 PRIME_TABLE
00000000000020b4 g     F .text	0000000000000068 TEE_ReadObjectData
0000000000001760 g     F .text	00000000000000ac TEE_GetObjectBufferAttribute
0000000000000d88 g     F .text	000000000000006c TA_OpenSessionEntryPoint
00000000000094c0 g     F .text	0000000000000120 mpa_gcd
0000000000007cf0 g     F .text	0000000000000030 mpa_abs
0000000000004bc4 g     F .text	000000000000000c utee_storage_start_enum
00000000000022ac g     F .text	0000000000000044 TEE_FreeOperation
000000000000b0a8 g     F .text	0000000000000298 mpa_set_str
0000000000004b94 g     F .text	000000000000000c utee_storage_obj_rename
0000000000016348 g     O .bss	0000000000000004 ta_param_types
00000000000015f8 g     F .text	000000000000004c __utee_from_attr
00000000000058ac g     F .text	0000000000000024 TEE_BigIntIsProbablePrime
00000000000098e4 g     F .text	0000000000000010 mpa_alloc_static_temp_var
0000000000001e58 g     F .text	0000000000000044 TEE_CloseAndDeletePersistentObject1
0000000000009cac g     F .text	000000000000000c mpa_set_random_generator
00000000000049a8 g     F .text	000000000000000c utee_get_property
0000000000003ca8 g     F .text	0000000000000198 TEE_AEDecryptFinal
0000000000005328 g     F .text	0000000000000004 TEE_BigIntInit
0000000000001468 g     F .text	0000000000000008 TEE_MemMove
000000000000539c g     F .text	0000000000000028 TEE_BigIntConvertFromOctetString
000000000000e2f0 g     O .data	0000000000000008 _ref__utee_mcount
0000000000003598 g     F .text	00000000000000a4 TEE_MACInit
00000000000040cc g     F .text	000000000000013c TEE_AsymmetricSignDigest
0000000000007c1c g     F .text	000000000000002c memchr
00000000000013e4 g     F .text	000000000000002c TEE_UnmaskCancellation
0000000000001644 g     F .text	0000000000000048 TEE_GetObjectInfo
000000000000b768 g     F .text	0000000000000084 mpa_mul_mod
0000000000004b88 g     F .text	000000000000000c utee_storage_obj_del
00000000000039b0 g     F .text	0000000000000150 TEE_AEUpdate
0000000000004c00 g     F .text	000000000000000c utee_storage_obj_seek
0000000000001968 g     F .text	0000000000000054 TEE_FreeTransientObject
0000000000008008 g     F .text	000000000000013c mpa_compute_fmm_context
0000000000004a68 g     F .text	000000000000000c utee_hash_update
00000000000097cc g     F .text	0000000000000018 mpa_init_scratch_mem_sync
0000000000004cd8  w    F .text	0000000000000004 __utee_mcount
0000000000002b14 g     F .text	0000000000000048 TEE_GetOperationInfo
0000000000005504 g     F .text	0000000000000094 TEE_BigIntMod
0000000000004c9c g     F .text	000000000000000c utee_se_channel_select_next
00000000000049cc g     F .text	000000000000000c utee_close_ta_session
00000000000054a0 g     F .text	0000000000000064 TEE_BigIntDiv
00000000000063d8 g     F .text	0000000000000018 malloc_reset_stats
0000000000004a8c g     F .text	000000000000000c utee_cipher_update
00000000000016cc g     F .text	0000000000000044 TEE_RestrictObjectUsage1
0000000000004c78 g     F .text	000000000000000c utee_se_session_get_atr
00000000000064b8 g     F .text	0000000000000038 realloc
000000000000a35c g     F .text	00000000000000cc __mpa_abs_add_ackum
0000000000004b64 g     F .text	000000000000000c utee_asymm_verify
0000000000005484 g     F .text	000000000000000c TEE_BigIntMul
0000000000002ca4 g     F .text	0000000000000078 TEE_ResetOperation
000000000000862c g     F .text	0000000000000018 mpa_get_word
0000000000001478 g     F .text	0000000000000008 TEE_MemFill
0000000000006c30 g     F .text	0000000000000034 memcmp
0000000000006880 g     F .text	00000000000000f8 malloc_add_pool
000000000000363c g     F .text	00000000000000a0 TEE_MACUpdate
00000000000079dc g     F .text	0000000000000010 trace_get_level
0000000000004b10 g     F .text	000000000000000c utee_cryp_random_number_generate
0000000000001710 g     F .text	0000000000000050 TEE_RestrictObjectUsage
0000000000005378 g     F .text	0000000000000010 TEE_BigIntFMMSizeInU32
000000000000532c g     F .text	0000000000000014 TEE_BigIntInitFMM
0000000000004b58 g     F .text	000000000000000c utee_asymm_operate
00000000000018dc g     F .text	0000000000000028 TEE_CloseObject
0000000000004770 g     F .text	0000000000000208 __utee_entry
000000000000b900 g       .text	0000000000000000 __text_end
0000000000005828 g     F .text	0000000000000078 TEE_BigIntRelativePrime
0000000000009dcc g     F .text	000000000000006c mpa_get_random_digits
0000000000006254 g     F .text	00000000000000dc bpool
0000000000008578 g     F .text	000000000000002c mpa_set_S32
000000000000aea4 g     F .text	0000000000000068 mpa_init_static_fmm_context
00000000000013b8 g     F .text	000000000000002c TEE_GetCancellationFlag
0000000000004c24 g     F .text	000000000000000c utee_se_service_close
0000000000004e38 g     F .text	000000000000014c tee_user_mem_alloc
000000000000e308 g     O .data	0000000000000010 user_mem_head
0000000000001564 g     F .text	0000000000000040 TEE_SetTAPersistentTime
0000000000000adc g     F .text	0000000000000250 decrypt_aes_ctr
000000000000a888 g     F .text	000000000000013c mpa_add_word
0000000000004c3c g     F .text	000000000000000c utee_se_reader_get_prop
0000000000006cd0 g     F .text	000000000000001c memset
00000000000014e4 g     F .text	0000000000000080 TEE_GetTAPersistentTime
0000000000007c18 g     F .text	0000000000000004 dhex_dump
0000000000001d90 g     F .text	00000000000000c8 TEE_CreatePersistentObject
0000000000001410 g     F .text	000000000000002c TEE_MaskCancellation
000000000000a224 g     F .text	0000000000000024 __mpa_full_sub
000000000000391c g     F .text	0000000000000094 TEE_AEUpdateAAD
0000000000004bdc g     F .text	000000000000000c utee_storage_obj_read
0000000000000300 g     F .text	00000000000001f4 encrypt_using_public_key
0000000000002180 g     F .text	000000000000005c TEE_TruncateObjectData
00000000000059c8 g     F .text	0000000000000004 utee_calloc
0000000000004aec g     F .text	000000000000000c utee_cryp_obj_populate
000000000000abe0 g     F .text	0000000000000068 mpa_cmp
000000000000b7ec g     F .text	0000000000000114 mpa_inv_mod
000000000000a9c4 g     F .text	0000000000000138 mpa_sub_word
0000000000009940 g     F .text	0000000000000018 __mpa_mul_add_word
000000000000a52c g     F .text	0000000000000194 mpa_add
000000000000accc g     F .text	00000000000001bc mpa_exp_mod
000000000000168c g     F .text	0000000000000040 TEE_GetObjectInfo1
0000000000009ed0 g     F .text	0000000000000064 __mpa_shift_words_right
00000000000079b8 g     F .text	0000000000000024 trace_set_level
000000000000e000 g     O .data	0000000000000101 modulus_dbstore
0000000000004c6c g     F .text	000000000000000c utee_se_session_is_closed
0000000000004aa4 g     F .text	000000000000000c utee_cryp_obj_get_info
000000000000180c g     F .text	00000000000000d0 TEE_GetObjectValueAttribute
0000000000002d1c g     F .text	00000000000000f0 TEE_SetOperationKey
0000000000004ba0 g     F .text	000000000000000c utee_storage_alloc_enum
0000000000004bb8 g     F .text	000000000000000c utee_storage_reset_enum
0000000000004bf4 g     F .text	000000000000000c utee_storage_obj_trunc
000000000000b648 g     F .text	0000000000000018 mpa_mod
000000000000abac g     F .text	000000000000001c __mpa_abs_greater_than
0000000000005408 g     F .text	0000000000000020 TEE_BigIntConvertToS32
0000000000005474 g     F .text	000000000000000c TEE_BigIntSub
00000000000049e4 g     F .text	000000000000000c utee_get_cancellation_flag
0000000000000020 g     F .text	0000000000000044 transform_challenge
0000000000004a5c g     F .text	000000000000000c utee_hash_init
0000000000001160 g     F .text	0000000000000008 tahead_get_trace_level
0000000000001168 g     F .text	0000000000000078 __utee_from_param
00000000000021dc g     F .text	00000000000000d0 TEE_SeekObjectData
000000000000bb90 g     O .rodata	0000000000000010 Const_1_LShift_Base
00000000000011e0 g     F .text	000000000000006c __utee_to_param
00000000000064f0 g     F .text	0000000000000390 memalign
00000000000033f0 g     F .text	00000000000001a8 TEE_CipherDoFinal
0000000000005404 g     F .text	0000000000000004 TEE_BigIntConvertFromS32
000000000000b6e4 g     F .text	0000000000000084 mpa_sub_mod
0000000000004ab0 g     F .text	000000000000000c utee_cryp_obj_restrict_usage
0000000000006978 g     F .text	0000000000000180 malloc_buffer_is_within_alloced
0000000000004af8 g     F .text	000000000000000c utee_cryp_obj_copy
000000000000a0c4 g     F .text	0000000000000144 mpa_shift_right
0000000000005340 g     F .text	0000000000000038 TEE_BigIntInitFMMContext
0000000000004b04 g     F .text	000000000000000c utee_cryp_derive_key
0000000000007ee4 g     F .text	0000000000000124 __mpa_montgomery_mul
000000000000b4d4 g     F .text	0000000000000174 mpa_get_oct_str
000000000000ac48 g     F .text	0000000000000084 mpa_cmp_short
0000000000004b4c g     F .text	000000000000000c utee_authenc_dec_final
000000000000211c g     F .text	0000000000000064 TEE_WriteObjectData
0000000000001fb8 g     F .text	0000000000000028 TEE_ResetPersistentObjectEnumerator
000000000000aafc g     F .text	00000000000000b0 __mpa_abs_cmp
0000000000005490 g     F .text	0000000000000010 TEE_BigIntSquare
0000000000000d2c g     F .text	0000000000000038 TA_CreateEntryPoint
0000000000007904 g     F .text	0000000000000074 snprintk
0000000000005450 g     F .text	0000000000000018 TEE_BigIntGetBitCount
00000000000056e8 g     F .text	00000000000000c8 TEE_BigIntMulMod
0000000000004334 g     F .text	0000000000000144 TEE_DeriveKey
0000000000016350 g     O .bss	0000000000000040 ta_params
0000000000009a10 g     F .text	00000000000000f4 __mpa_abs_mul
0000000000005ca8 g     F .text	00000000000001dc bget
0000000000001904 g     F .text	0000000000000064 TEE_AllocateTransientObject
00000000000015dc g     F .text	0000000000000004 TEE_Free
0000000000004c48 g     F .text	000000000000000c utee_se_reader_get_name
00000000000015f0 g     F .text	0000000000000008 TEE_CacheInvalidate
0000000000004a80 g     F .text	000000000000000c utee_cipher_init
00000000000052e8 g     F .text	0000000000000014 _assert_break
0000000000005598 g     F .text	00000000000000a8 TEE_BigIntAddMod
0000000000004bac g     F .text	000000000000000c utee_storage_free_enum
0000000000004b28 g     F .text	000000000000000c utee_authenc_update_aad
0000000000007d64 g     F .text	0000000000000044 mpa_get_bit
00000000000022f0 g     F .text	0000000000000824 TEE_AllocateOperation
00000000000097e4 g     F .text	0000000000000018 mpa_init_scratch_mem
0000000000004478 g     F .text	0000000000000024 TEE_GenerateRandom
0000000000001470 g     F .text	0000000000000008 TEE_MemCompare
0000000000006d08 g     F .text	0000000000000ba8 __vsnprintf
0000000000001f90 g     F .text	0000000000000028 TEE_FreePersistentObjectEnumerator
0000000000004978 g     F .text	000000000000000c utee_panic
000000000000124c g     F .text	0000000000000090 TEE_OpenTASession
00000000000004f4 g     F .text	00000000000001fc encrypt_aes_ctr
00000000000059d4 g     F .text	0000000000000028 trace_ext_puts
000000000000522c g     F .text	0000000000000078 tee_user_mem_garbage
00000000000059fc g     F .text	0000000000000008 trace_ext_get_thread_id
0000000000001e9c g     F .text	000000000000002c TEE_CloseAndDeletePersistentObject
00000000000015e0 g     F .text	0000000000000008 TEE_CacheClean
00000000000049c0 g     F .text	000000000000000c utee_open_ta_session
0000000000007978 g     F .text	0000000000000040 buf_compare_ct
0000000000008644 g     F .text	0000000000000050 __mpa_div_dword
0000000000007c48 g     F .text	0000000000000024 __mpa_set_unused_digits_to_zero
000000000000bba0 g     O .rodata	000000000000000c const_largest_deci_base
000000000000b0a0 g     F .text	0000000000000008 mpa_get_str_size
0000000000005190 g     F .text	000000000000009c tee_user_mem_check_heap
0000000000001b74 g     F .text	00000000000000ac TEE_CopyObjectAttributes1
0000000000004a74 g     F .text	000000000000000c utee_hash_final
0000000000006cec g     F .text	000000000000001c strlen
00000000000058a0 g     F .text	000000000000000c TEE_BigIntComputeExtendedGcd
00000000000095e0 g     F .text	00000000000001ec mpa_extended_gcd
000000000000b660 g     F .text	0000000000000084 mpa_add_mod
0000000000004b70 g     F .text	000000000000000c utee_storage_obj_open
00000000000049d8 g     F .text	000000000000000c utee_invoke_ta_command
000000000000b340 g     F .text	0000000000000084 mpa_get_str
0000000000004a14 g     F .text	000000000000000c utee_wait
00000000000059cc g     F .text	0000000000000004 utee_free
0000000000005184 g     F .text	000000000000000c tee_user_mem_mark_heap
0000000000001480 g     F .text	0000000000000028 TEE_GetSystemTime
0000000000000000 g     O .ta_head	0000000000000020 ta_head
0000000000005f0c g     F .text	00000000000002ac brel
00000000000097fc g     F .text	00000000000000e8 mpa_alloc_static_temp_var_size
0000000000004a20 g     F .text	000000000000000c utee_get_time
0000000000007ddc g     F .text	0000000000000078 __mpa_montgomery_mul_add
0000000000001450 g     F .text	000000000000000c TEE_SetInstanceData
00000000000049fc g     F .text	000000000000000c utee_unmask_cancellation
00000000000049f0 g     F .text	000000000000000c utee_check_access_rights
0000000000004c60 g     F .text	000000000000000c utee_se_reader_close_sessions
0000000000002030 g     F .text	0000000000000084 TEE_GetNextPersistentObject
0000000000004c0c g     F .text	000000000000000c utee_cryp_obj_generate_key
0000000000007dd0 g     F .text	000000000000000c mpa_constant_one
00000000000012dc g     F .text	0000000000000028 TEE_CloseTASession
0000000000004208 g     F .text	000000000000012c TEE_AsymmetricVerifyDigest
000000000000a208 g     F .text	000000000000001c __mpa_full_adder
000000000000a428 g     F .text	0000000000000104 __mpa_abs_sub
0000000000018f58 g       .bss	0000000000000000 __gprof_buf_start
0000000000006460 g     F .text	000000000000000c free
0000000000006330 g     F .text	00000000000000a8 bstats
00000000000036dc g     F .text	00000000000000bc TEE_MACComputeFinal



Disassembly of section .text:

0000000000000020 <transform_challenge>:
transform_challenge():
/home/pedro/devel/optee/optee_examples/HCEMobile/ta/dbstore_ta.c:80
      20:	a9be7bfd 	stp	x29, x30, [sp,#-32]!
      24:	910003fd 	mov	x29, sp
      28:	a90153f3 	stp	x19, x20, [sp,#16]
      2c:	aa0003f4 	mov	x20, x0
/home/pedro/devel/optee/optee_examples/HCEMobile/ta/dbstore_ta.c:83
      30:	d2800013 	mov	x19, #0x0                   	// #0
      34:	aa1403e0 	mov	x0, x20
      38:	94001b2d 	bl	6cec <strlen>
      3c:	6b13001f 	cmp	w0, w19
      40:	5400008c 	b.gt	50 <transform_challenge+0x30>
/home/pedro/devel/optee/optee_examples/HCEMobile/ta/dbstore_ta.c:87
      44:	a94153f3 	ldp	x19, x20, [sp,#16]
      48:	a8c27bfd 	ldp	x29, x30, [sp],#32
      4c:	d65f03c0 	ret
/home/pedro/devel/optee/optee_examples/HCEMobile/ta/dbstore_ta.c:84
      50:	38736a80 	ldrb	w0, [x20,x19]
      54:	11000800 	add	w0, w0, #0x2
      58:	38336a80 	strb	w0, [x20,x19]
      5c:	91000a73 	add	x19, x19, #0x2
      60:	17fffff5 	b	34 <transform_challenge+0x14>

0000000000000064 <decrypt_using_private_key>:
decrypt_using_private_key():
/home/pedro/devel/optee/optee_examples/HCEMobile/ta/dbstore_ta.c:89
      64:	a9b37bfd 	stp	x29, x30, [sp,#-208]!
      68:	910003fd 	mov	x29, sp
      6c:	f90023f9 	str	x25, [sp,#64]
      70:	aa0003f9 	mov	x25, x0
/home/pedro/devel/optee/optee_examples/HCEMobile/ta/dbstore_ta.c:100
      74:	52804000 	mov	w0, #0x200                 	// #512
/home/pedro/devel/optee/optee_examples/HCEMobile/ta/dbstore_ta.c:89
      78:	a90363f7 	stp	x23, x24, [sp,#48]
/home/pedro/devel/optee/optee_examples/HCEMobile/ta/dbstore_ta.c:100
      7c:	b90057a0 	str	w0, [x29,#84]
/home/pedro/devel/optee/optee_examples/HCEMobile/ta/dbstore_ta.c:104
      80:	52802600 	mov	w0, #0x130                 	// #304
      84:	72ba0000 	movk	w0, #0xd000, lsl #16
/home/pedro/devel/optee/optee_examples/HCEMobile/ta/dbstore_ta.c:89
      88:	2a0103f8 	mov	w24, w1
/home/pedro/devel/optee/optee_examples/HCEMobile/ta/dbstore_ta.c:109
      8c:	52804601 	mov	w1, #0x230                 	// #560
/home/pedro/devel/optee/optee_examples/HCEMobile/ta/dbstore_ta.c:104
      90:	b9008ba0 	str	w0, [x29,#136]
/home/pedro/devel/optee/optee_examples/HCEMobile/ta/dbstore_ta.c:109
      94:	72ba0001 	movk	w1, #0xd000, lsl #16
/home/pedro/devel/optee/optee_examples/HCEMobile/ta/dbstore_ta.c:105
      98:	d0000060 	adrp	x0, e000 <modulus_dbstore>
      9c:	91000000 	add	x0, x0, #0x0
/home/pedro/devel/optee/optee_examples/HCEMobile/ta/dbstore_ta.c:109
      a0:	b900a3a1 	str	w1, [x29,#160]
/home/pedro/devel/optee/optee_examples/HCEMobile/ta/dbstore_ta.c:110
      a4:	91042001 	add	x1, x0, #0x108
/home/pedro/devel/optee/optee_examples/HCEMobile/ta/dbstore_ta.c:105
      a8:	f9004ba0 	str	x0, [x29,#144]
/home/pedro/devel/optee/optee_examples/HCEMobile/ta/dbstore_ta.c:110
      ac:	f90057a1 	str	x1, [x29,#168]
/home/pedro/devel/optee/optee_examples/HCEMobile/ta/dbstore_ta.c:115
      b0:	91044000 	add	x0, x0, #0x110
/home/pedro/devel/optee/optee_examples/HCEMobile/ta/dbstore_ta.c:114
      b4:	52806601 	mov	w1, #0x330                 	// #816
/home/pedro/devel/optee/optee_examples/HCEMobile/ta/dbstore_ta.c:115
      b8:	f90063a0 	str	x0, [x29,#192]
/home/pedro/devel/optee/optee_examples/HCEMobile/ta/dbstore_ta.c:114
      bc:	72b80001 	movk	w1, #0xc000, lsl #16
/home/pedro/devel/optee/optee_examples/HCEMobile/ta/dbstore_ta.c:119
      c0:	52800600 	mov	w0, #0x30                  	// #48
/home/pedro/devel/optee/optee_examples/HCEMobile/ta/dbstore_ta.c:89
      c4:	a90153f3 	stp	x19, x20, [sp,#16]
      c8:	aa0203f7 	mov	x23, x2
      cc:	a9025bf5 	stp	x21, x22, [sp,#32]
/home/pedro/devel/optee/optee_examples/HCEMobile/ta/dbstore_ta.c:106
      d0:	52802013 	mov	w19, #0x100                 	// #256
/home/pedro/devel/optee/optee_examples/HCEMobile/ta/dbstore_ta.c:111
      d4:	52800074 	mov	w20, #0x3                   	// #3
/home/pedro/devel/optee/optee_examples/HCEMobile/ta/dbstore_ta.c:114
      d8:	b900bba1 	str	w1, [x29,#184]
/home/pedro/devel/optee/optee_examples/HCEMobile/ta/dbstore_ta.c:89
      dc:	aa0303f6 	mov	x22, x3
/home/pedro/devel/optee/optee_examples/HCEMobile/ta/dbstore_ta.c:119
      e0:	910163a2 	add	x2, x29, #0x58
/home/pedro/devel/optee/optee_examples/HCEMobile/ta/dbstore_ta.c:95
      e4:	a905ffbf 	stp	xzr, xzr, [x29,#88]
/home/pedro/devel/optee/optee_examples/HCEMobile/ta/dbstore_ta.c:119
      e8:	52810001 	mov	w1, #0x800                 	// #2048
/home/pedro/devel/optee/optee_examples/HCEMobile/ta/dbstore_ta.c:106
      ec:	b9009bb3 	str	w19, [x29,#152]
/home/pedro/devel/optee/optee_examples/HCEMobile/ta/dbstore_ta.c:119
      f0:	72b42000 	movk	w0, #0xa100, lsl #16
/home/pedro/devel/optee/optee_examples/HCEMobile/ta/dbstore_ta.c:111
      f4:	b900b3b4 	str	w20, [x29,#176]
/home/pedro/devel/optee/optee_examples/HCEMobile/ta/dbstore_ta.c:116
      f8:	b900cbb3 	str	w19, [x29,#200]
/home/pedro/devel/optee/optee_examples/HCEMobile/ta/dbstore_ta.c:119
      fc:	94000602 	bl	1904 <TEE_AllocateTransientObject>
/home/pedro/devel/optee/optee_examples/HCEMobile/ta/dbstore_ta.c:120
     100:	34000160 	cbz	w0, 12c <decrypt_using_private_key+0xc8>
/home/pedro/devel/optee/optee_examples/HCEMobile/ta/dbstore_ta.c:121
     104:	90000064 	adrp	x4, c000 <PRIME_TABLE+0x450>
     108:	91244c84 	add	x4, x4, #0x913
     10c:	52800023 	mov	w3, #0x1                   	// #1
     110:	52800042 	mov	w2, #0x2                   	// #2
     114:	52800f21 	mov	w1, #0x79                  	// #121
/home/pedro/devel/optee/optee_examples/HCEMobile/ta/dbstore_ta.c:128
     118:	f0000040 	adrp	x0, b000 <__mpa_mpanum_to_hexstr+0xb0>
     11c:	91240000 	add	x0, x0, #0x900
     120:	94001e33 	bl	79ec <trace_printf>
/home/pedro/devel/optee/optee_examples/HCEMobile/ta/dbstore_ta.c:163
     124:	129fff20 	mov	w0, #0xffff0006            	// #-65530
     128:	14000034 	b	1f8 <decrypt_using_private_key+0x194>
/home/pedro/devel/optee/optee_examples/HCEMobile/ta/dbstore_ta.c:126
     12c:	f9402fa0 	ldr	x0, [x29,#88]
     130:	2a1403e2 	mov	w2, w20
     134:	910223a1 	add	x1, x29, #0x88
     138:	94000636 	bl	1a10 <TEE_PopulateTransientObject>
/home/pedro/devel/optee/optee_examples/HCEMobile/ta/dbstore_ta.c:127
     13c:	340000e0 	cbz	w0, 158 <decrypt_using_private_key+0xf4>
/home/pedro/devel/optee/optee_examples/HCEMobile/ta/dbstore_ta.c:128
     140:	90000064 	adrp	x4, c000 <PRIME_TABLE+0x450>
     144:	52800023 	mov	w3, #0x1                   	// #1
     148:	9124cc84 	add	x4, x4, #0x933
     14c:	52800042 	mov	w2, #0x2                   	// #2
     150:	52801001 	mov	w1, #0x80                  	// #128
     154:	17fffff1 	b	118 <decrypt_using_private_key+0xb4>
/home/pedro/devel/optee/optee_examples/HCEMobile/ta/dbstore_ta.c:132
     158:	52800001 	mov	w1, #0x0                   	// #0
     15c:	2a1303e0 	mov	w0, w19
     160:	9400051b 	bl	15cc <TEE_Malloc>
     164:	aa0003f4 	mov	x20, x0
/home/pedro/devel/optee/optee_examples/HCEMobile/ta/dbstore_ta.c:133
     168:	b94057a0 	ldr	w0, [x29,#84]
     16c:	52800001 	mov	w1, #0x0                   	// #0
     170:	94000517 	bl	15cc <TEE_Malloc>
     174:	aa0003f5 	mov	x21, x0
/home/pedro/devel/optee/optee_examples/HCEMobile/ta/dbstore_ta.c:134
     178:	f100029f 	cmp	x20, #0x0
     17c:	fa401804 	ccmp	x0, #0x0, #0x4, ne
     180:	540000e1 	b.ne	19c <decrypt_using_private_key+0x138>
/home/pedro/devel/optee/optee_examples/HCEMobile/ta/dbstore_ta.c:135
     184:	90000064 	adrp	x4, c000 <PRIME_TABLE+0x450>
     188:	52800023 	mov	w3, #0x1                   	// #1
     18c:	91254c84 	add	x4, x4, #0x953
     190:	52800042 	mov	w2, #0x2                   	// #2
     194:	528010e1 	mov	w1, #0x87                  	// #135
     198:	17ffffe0 	b	118 <decrypt_using_private_key+0xb4>
/home/pedro/devel/optee/optee_examples/HCEMobile/ta/dbstore_ta.c:138
     19c:	2a1803e2 	mov	w2, w24
     1a0:	aa1903e1 	mov	x1, x25
     1a4:	aa1403e0 	mov	x0, x20
     1a8:	940004b0 	bl	1468 <TEE_MemMove>
/home/pedro/devel/optee/optee_examples/HCEMobile/ta/dbstore_ta.c:142
     1ac:	f9402fa0 	ldr	x0, [x29,#88]
     1b0:	9101a3a1 	add	x1, x29, #0x68
     1b4:	94000524 	bl	1644 <TEE_GetObjectInfo>
/home/pedro/devel/optee/optee_examples/HCEMobile/ta/dbstore_ta.c:145
     1b8:	52802601 	mov	w1, #0x130                 	// #304
     1bc:	52810003 	mov	w3, #0x800                 	// #2048
     1c0:	52800022 	mov	w2, #0x1                   	// #1
     1c4:	72ac0001 	movk	w1, #0x6000, lsl #16
     1c8:	910183a0 	add	x0, x29, #0x60
     1cc:	94000849 	bl	22f0 <TEE_AllocateOperation>
/home/pedro/devel/optee/optee_examples/HCEMobile/ta/dbstore_ta.c:146
     1d0:	34000200 	cbz	w0, 210 <decrypt_using_private_key+0x1ac>
/home/pedro/devel/optee/optee_examples/HCEMobile/ta/dbstore_ta.c:147
     1d4:	90000064 	adrp	x4, c000 <PRIME_TABLE+0x450>
     1d8:	f0000040 	adrp	x0, b000 <__mpa_mpanum_to_hexstr+0xb0>
     1dc:	9125cc84 	add	x4, x4, #0x973
     1e0:	52800023 	mov	w3, #0x1                   	// #1
     1e4:	52800042 	mov	w2, #0x2                   	// #2
     1e8:	52801261 	mov	w1, #0x93                  	// #147
     1ec:	91240000 	add	x0, x0, #0x900
     1f0:	94001dff 	bl	79ec <trace_printf>
/home/pedro/devel/optee/optee_examples/HCEMobile/ta/dbstore_ta.c:156
     1f4:	12800000 	mov	w0, #0xffffffff            	// #-1
/home/pedro/devel/optee/optee_examples/HCEMobile/ta/dbstore_ta.c:182
     1f8:	a94153f3 	ldp	x19, x20, [sp,#16]
     1fc:	a9425bf5 	ldp	x21, x22, [sp,#32]
     200:	a94363f7 	ldp	x23, x24, [sp,#48]
     204:	f94023f9 	ldr	x25, [sp,#64]
     208:	a8cd7bfd 	ldp	x29, x30, [sp],#208
     20c:	d65f03c0 	ret
/home/pedro/devel/optee/optee_examples/HCEMobile/ta/dbstore_ta.c:152
     210:	a94583a1 	ldp	x1, x0, [x29,#88]
     214:	94000ac2 	bl	2d1c <TEE_SetOperationKey>
/home/pedro/devel/optee/optee_examples/HCEMobile/ta/dbstore_ta.c:153
     218:	34000180 	cbz	w0, 248 <decrypt_using_private_key+0x1e4>
/home/pedro/devel/optee/optee_examples/HCEMobile/ta/dbstore_ta.c:154
     21c:	52800023 	mov	w3, #0x1                   	// #1
     220:	52800042 	mov	w2, #0x2                   	// #2
     224:	52801341 	mov	w1, #0x9a                  	// #154
     228:	90000064 	adrp	x4, c000 <PRIME_TABLE+0x450>
     22c:	f0000040 	adrp	x0, b000 <__mpa_mpanum_to_hexstr+0xb0>
     230:	91262c84 	add	x4, x4, #0x98b
     234:	91240000 	add	x0, x0, #0x900
     238:	94001ded 	bl	79ec <trace_printf>
/home/pedro/devel/optee/optee_examples/HCEMobile/ta/dbstore_ta.c:155
     23c:	f94033a0 	ldr	x0, [x29,#96]
     240:	9400081b 	bl	22ac <TEE_FreeOperation>
     244:	17ffffec 	b	1f4 <decrypt_using_private_key+0x190>
/home/pedro/devel/optee/optee_examples/HCEMobile/ta/dbstore_ta.c:159
     248:	f94033a0 	ldr	x0, [x29,#96]
     24c:	910153a6 	add	x6, x29, #0x54
     250:	aa1503e5 	mov	x5, x21
     254:	2a1803e4 	mov	w4, w24
     258:	aa1403e3 	mov	x3, x20
     25c:	52800002 	mov	w2, #0x0                   	// #0
     260:	d2800001 	mov	x1, #0x0                   	// #0
     264:	94000f48 	bl	3f84 <TEE_AsymmetricDecrypt>
     268:	2a0003f3 	mov	w19, w0
/home/pedro/devel/optee/optee_examples/HCEMobile/ta/dbstore_ta.c:160
     26c:	129ffde0 	mov	w0, #0xffff0010            	// #-65520
     270:	6b00027f 	cmp	w19, w0
     274:	54000181 	b.ne	2a4 <decrypt_using_private_key+0x240>
/home/pedro/devel/optee/optee_examples/HCEMobile/ta/dbstore_ta.c:161
     278:	90000064 	adrp	x4, c000 <PRIME_TABLE+0x450>
     27c:	91268884 	add	x4, x4, #0x9a2
     280:	52800023 	mov	w3, #0x1                   	// #1
     284:	52800042 	mov	w2, #0x2                   	// #2
     288:	52801421 	mov	w1, #0xa1                  	// #161
     28c:	f0000040 	adrp	x0, b000 <__mpa_mpanum_to_hexstr+0xb0>
     290:	91240000 	add	x0, x0, #0x900
     294:	94001dd6 	bl	79ec <trace_printf>
/home/pedro/devel/optee/optee_examples/HCEMobile/ta/dbstore_ta.c:162
     298:	f94033a0 	ldr	x0, [x29,#96]
     29c:	94000804 	bl	22ac <TEE_FreeOperation>
     2a0:	17ffffa1 	b	124 <decrypt_using_private_key+0xc0>
/home/pedro/devel/optee/optee_examples/HCEMobile/ta/dbstore_ta.c:165
     2a4:	129fff20 	mov	w0, #0xffff0006            	// #-65530
     2a8:	6b00027f 	cmp	w19, w0
     2ac:	540000e1 	b.ne	2c8 <decrypt_using_private_key+0x264>
/home/pedro/devel/optee/optee_examples/HCEMobile/ta/dbstore_ta.c:166
     2b0:	90000064 	adrp	x4, c000 <PRIME_TABLE+0x450>
     2b4:	52800023 	mov	w3, #0x1                   	// #1
     2b8:	91273084 	add	x4, x4, #0x9cc
     2bc:	52800042 	mov	w2, #0x2                   	// #2
     2c0:	528014c1 	mov	w1, #0xa6                  	// #166
     2c4:	17fffff2 	b	28c <decrypt_using_private_key+0x228>
/home/pedro/devel/optee/optee_examples/HCEMobile/ta/dbstore_ta.c:172
     2c8:	b94057b3 	ldr	w19, [x29,#84]
     2cc:	aa1503e1 	mov	x1, x21
     2d0:	aa1703e0 	mov	x0, x23
     2d4:	2a1303e2 	mov	w2, w19
     2d8:	94001a63 	bl	6c64 <memcpy>
/home/pedro/devel/optee/optee_examples/HCEMobile/ta/dbstore_ta.c:176
     2dc:	f94033a0 	ldr	x0, [x29,#96]
/home/pedro/devel/optee/optee_examples/HCEMobile/ta/dbstore_ta.c:173
     2e0:	b90002d3 	str	w19, [x22]
/home/pedro/devel/optee/optee_examples/HCEMobile/ta/dbstore_ta.c:176
     2e4:	940007f2 	bl	22ac <TEE_FreeOperation>
/home/pedro/devel/optee/optee_examples/HCEMobile/ta/dbstore_ta.c:177
     2e8:	f9402fa0 	ldr	x0, [x29,#88]
     2ec:	9400059f 	bl	1968 <TEE_FreeTransientObject>
/home/pedro/devel/optee/optee_examples/HCEMobile/ta/dbstore_ta.c:178
     2f0:	aa1403e0 	mov	x0, x20
     2f4:	940004ba 	bl	15dc <TEE_Free>
/home/pedro/devel/optee/optee_examples/HCEMobile/ta/dbstore_ta.c:181
     2f8:	52800000 	mov	w0, #0x0                   	// #0
     2fc:	17ffffbf 	b	1f8 <decrypt_using_private_key+0x194>

0000000000000300 <encrypt_using_public_key>:
encrypt_using_public_key():
/home/pedro/devel/optee/optee_examples/HCEMobile/ta/dbstore_ta.c:184
     300:	a9b57bfd 	stp	x29, x30, [sp,#-176]!
     304:	910003fd 	mov	x29, sp
     308:	a90363f7 	stp	x23, x24, [sp,#48]
     30c:	aa0103f8 	mov	x24, x1
/home/pedro/devel/optee/optee_examples/HCEMobile/ta/dbstore_ta.c:197
     310:	52802601 	mov	w1, #0x130                 	// #304
/home/pedro/devel/optee/optee_examples/HCEMobile/ta/dbstore_ta.c:184
     314:	a9025bf5 	stp	x21, x22, [sp,#32]
/home/pedro/devel/optee/optee_examples/HCEMobile/ta/dbstore_ta.c:198
     318:	f90047a0 	str	x0, [x29,#136]
/home/pedro/devel/optee/optee_examples/HCEMobile/ta/dbstore_ta.c:199
     31c:	52802000 	mov	w0, #0x100                 	// #256
     320:	b90093a0 	str	w0, [x29,#144]
/home/pedro/devel/optee/optee_examples/HCEMobile/ta/dbstore_ta.c:201
     324:	52804600 	mov	w0, #0x230                 	// #560
     328:	72ba0000 	movk	w0, #0xd000, lsl #16
     32c:	b9009ba0 	str	w0, [x29,#152]
/home/pedro/devel/optee/optee_examples/HCEMobile/ta/dbstore_ta.c:202
     330:	d0000060 	adrp	x0, e000 <modulus_dbstore>
     334:	91000000 	add	x0, x0, #0x0
     338:	91042000 	add	x0, x0, #0x108
     33c:	f90053a0 	str	x0, [x29,#160]
/home/pedro/devel/optee/optee_examples/HCEMobile/ta/dbstore_ta.c:203
     340:	52800060 	mov	w0, #0x3                   	// #3
/home/pedro/devel/optee/optee_examples/HCEMobile/ta/dbstore_ta.c:197
     344:	72ba0001 	movk	w1, #0xd000, lsl #16
/home/pedro/devel/optee/optee_examples/HCEMobile/ta/dbstore_ta.c:203
     348:	b900aba0 	str	w0, [x29,#168]
/home/pedro/devel/optee/optee_examples/HCEMobile/ta/dbstore_ta.c:206
     34c:	52800600 	mov	w0, #0x30                  	// #48
/home/pedro/devel/optee/optee_examples/HCEMobile/ta/dbstore_ta.c:184
     350:	a90153f3 	stp	x19, x20, [sp,#16]
     354:	2a0203f7 	mov	w23, w2
/home/pedro/devel/optee/optee_examples/HCEMobile/ta/dbstore_ta.c:190
     358:	52804013 	mov	w19, #0x200                 	// #512
/home/pedro/devel/optee/optee_examples/HCEMobile/ta/dbstore_ta.c:197
     35c:	b90083a1 	str	w1, [x29,#128]
/home/pedro/devel/optee/optee_examples/HCEMobile/ta/dbstore_ta.c:184
     360:	aa0303f6 	mov	x22, x3
     364:	aa0403f5 	mov	x21, x4
/home/pedro/devel/optee/optee_examples/HCEMobile/ta/dbstore_ta.c:206
     368:	910143a2 	add	x2, x29, #0x50
/home/pedro/devel/optee/optee_examples/HCEMobile/ta/dbstore_ta.c:190
     36c:	b9004fb3 	str	w19, [x29,#76]
/home/pedro/devel/optee/optee_examples/HCEMobile/ta/dbstore_ta.c:193
     370:	a9057fbf 	stp	xzr, xzr, [x29,#80]
/home/pedro/devel/optee/optee_examples/HCEMobile/ta/dbstore_ta.c:206
     374:	52810001 	mov	w1, #0x800                 	// #2048
     378:	72b40000 	movk	w0, #0xa000, lsl #16
     37c:	94000562 	bl	1904 <TEE_AllocateTransientObject>
/home/pedro/devel/optee/optee_examples/HCEMobile/ta/dbstore_ta.c:207
     380:	34000060 	cbz	w0, 38c <encrypt_using_public_key+0x8c>
/home/pedro/devel/optee/optee_examples/HCEMobile/ta/dbstore_ta.c:246
     384:	129fff21 	mov	w1, #0xffff0006            	// #-65530
     388:	14000026 	b	420 <encrypt_using_public_key+0x120>
/home/pedro/devel/optee/optee_examples/HCEMobile/ta/dbstore_ta.c:212
     38c:	f9402ba0 	ldr	x0, [x29,#80]
     390:	52800042 	mov	w2, #0x2                   	// #2
     394:	910203a1 	add	x1, x29, #0x80
     398:	9400059e 	bl	1a10 <TEE_PopulateTransientObject>
/home/pedro/devel/optee/optee_examples/HCEMobile/ta/dbstore_ta.c:213
     39c:	35ffff40 	cbnz	w0, 384 <encrypt_using_public_key+0x84>
/home/pedro/devel/optee/optee_examples/HCEMobile/ta/dbstore_ta.c:218
     3a0:	52800001 	mov	w1, #0x0                   	// #0
     3a4:	2a1303e0 	mov	w0, w19
     3a8:	94000489 	bl	15cc <TEE_Malloc>
     3ac:	aa0003f3 	mov	x19, x0
/home/pedro/devel/optee/optee_examples/HCEMobile/ta/dbstore_ta.c:219
     3b0:	b9404fa0 	ldr	w0, [x29,#76]
     3b4:	52800001 	mov	w1, #0x0                   	// #0
     3b8:	94000485 	bl	15cc <TEE_Malloc>
     3bc:	aa0003f4 	mov	x20, x0
/home/pedro/devel/optee/optee_examples/HCEMobile/ta/dbstore_ta.c:220
     3c0:	f100027f 	cmp	x19, #0x0
     3c4:	fa401804 	ccmp	x0, #0x0, #0x4, ne
     3c8:	54fffde0 	b.eq	384 <encrypt_using_public_key+0x84>
/home/pedro/devel/optee/optee_examples/HCEMobile/ta/dbstore_ta.c:223
     3cc:	2a1703e2 	mov	w2, w23
     3d0:	aa1803e1 	mov	x1, x24
     3d4:	aa1303e0 	mov	x0, x19
     3d8:	94000424 	bl	1468 <TEE_MemMove>
/home/pedro/devel/optee/optee_examples/HCEMobile/ta/dbstore_ta.c:226
     3dc:	f9402ba0 	ldr	x0, [x29,#80]
     3e0:	910183a1 	add	x1, x29, #0x60
     3e4:	94000498 	bl	1644 <TEE_GetObjectInfo>
/home/pedro/devel/optee/optee_examples/HCEMobile/ta/dbstore_ta.c:229
     3e8:	52802601 	mov	w1, #0x130                 	// #304
     3ec:	52810003 	mov	w3, #0x800                 	// #2048
     3f0:	72ac0001 	movk	w1, #0x6000, lsl #16
     3f4:	52800002 	mov	w2, #0x0                   	// #0
     3f8:	910163a0 	add	x0, x29, #0x58
     3fc:	940007bd 	bl	22f0 <TEE_AllocateOperation>
/home/pedro/devel/optee/optee_examples/HCEMobile/ta/dbstore_ta.c:231
     400:	12800001 	mov	w1, #0xffffffff            	// #-1
/home/pedro/devel/optee/optee_examples/HCEMobile/ta/dbstore_ta.c:230
     404:	350000e0 	cbnz	w0, 420 <encrypt_using_public_key+0x120>
/home/pedro/devel/optee/optee_examples/HCEMobile/ta/dbstore_ta.c:235
     408:	a94503a1 	ldp	x1, x0, [x29,#80]
     40c:	94000a44 	bl	2d1c <TEE_SetOperationKey>
/home/pedro/devel/optee/optee_examples/HCEMobile/ta/dbstore_ta.c:236
     410:	34000140 	cbz	w0, 438 <encrypt_using_public_key+0x138>
/home/pedro/devel/optee/optee_examples/HCEMobile/ta/dbstore_ta.c:237
     414:	f9402fa0 	ldr	x0, [x29,#88]
     418:	940007a5 	bl	22ac <TEE_FreeOperation>
/home/pedro/devel/optee/optee_examples/HCEMobile/ta/dbstore_ta.c:238
     41c:	12800001 	mov	w1, #0xffffffff            	// #-1
/home/pedro/devel/optee/optee_examples/HCEMobile/ta/dbstore_ta.c:267
     420:	a94153f3 	ldp	x19, x20, [sp,#16]
     424:	2a0103e0 	mov	w0, w1
     428:	a9425bf5 	ldp	x21, x22, [sp,#32]
     42c:	a94363f7 	ldp	x23, x24, [sp,#48]
     430:	a8cb7bfd 	ldp	x29, x30, [sp],#176
     434:	d65f03c0 	ret
/home/pedro/devel/optee/optee_examples/HCEMobile/ta/dbstore_ta.c:242
     438:	f9402fa0 	ldr	x0, [x29,#88]
     43c:	aa1303e3 	mov	x3, x19
     440:	910133a6 	add	x6, x29, #0x4c
     444:	aa1403e5 	mov	x5, x20
     448:	2a1703e4 	mov	w4, w23
     44c:	52800002 	mov	w2, #0x0                   	// #0
     450:	d2800001 	mov	x1, #0x0                   	// #0
     454:	94000e7b 	bl	3e40 <TEE_AsymmetricEncrypt>
     458:	2a0003f3 	mov	w19, w0
/home/pedro/devel/optee/optee_examples/HCEMobile/ta/dbstore_ta.c:243
     45c:	129ffde0 	mov	w0, #0xffff0010            	// #-65520
     460:	6b00027f 	cmp	w19, w0
     464:	540001a1 	b.ne	498 <encrypt_using_public_key+0x198>
/home/pedro/devel/optee/optee_examples/HCEMobile/ta/dbstore_ta.c:244
     468:	90000064 	adrp	x4, c000 <PRIME_TABLE+0x450>
     46c:	9127c884 	add	x4, x4, #0x9f2
     470:	52800023 	mov	w3, #0x1                   	// #1
     474:	52800042 	mov	w2, #0x2                   	// #2
     478:	52801e81 	mov	w1, #0xf4                  	// #244
     47c:	f0000040 	adrp	x0, b000 <__mpa_mpanum_to_hexstr+0xb0>
     480:	91240000 	add	x0, x0, #0x900
     484:	91008000 	add	x0, x0, #0x20
     488:	94001d59 	bl	79ec <trace_printf>
/home/pedro/devel/optee/optee_examples/HCEMobile/ta/dbstore_ta.c:245
     48c:	f9402fa0 	ldr	x0, [x29,#88]
     490:	94000787 	bl	22ac <TEE_FreeOperation>
     494:	17ffffbc 	b	384 <encrypt_using_public_key+0x84>
/home/pedro/devel/optee/optee_examples/HCEMobile/ta/dbstore_ta.c:248
     498:	129fff20 	mov	w0, #0xffff0006            	// #-65530
     49c:	6b00027f 	cmp	w19, w0
     4a0:	540000e1 	b.ne	4bc <encrypt_using_public_key+0x1bc>
/home/pedro/devel/optee/optee_examples/HCEMobile/ta/dbstore_ta.c:249
     4a4:	90000064 	adrp	x4, c000 <PRIME_TABLE+0x450>
     4a8:	52800023 	mov	w3, #0x1                   	// #1
     4ac:	91287084 	add	x4, x4, #0xa1c
     4b0:	52800042 	mov	w2, #0x2                   	// #2
     4b4:	52801f21 	mov	w1, #0xf9                  	// #249
     4b8:	17fffff1 	b	47c <encrypt_using_public_key+0x17c>
/home/pedro/devel/optee/optee_examples/HCEMobile/ta/dbstore_ta.c:255
     4bc:	b9404fb3 	ldr	w19, [x29,#76]
     4c0:	aa1403e1 	mov	x1, x20
     4c4:	aa1603e0 	mov	x0, x22
     4c8:	2a1303e2 	mov	w2, w19
     4cc:	940019e6 	bl	6c64 <memcpy>
/home/pedro/devel/optee/optee_examples/HCEMobile/ta/dbstore_ta.c:260
     4d0:	f9402fa0 	ldr	x0, [x29,#88]
/home/pedro/devel/optee/optee_examples/HCEMobile/ta/dbstore_ta.c:256
     4d4:	b90002b3 	str	w19, [x21]
/home/pedro/devel/optee/optee_examples/HCEMobile/ta/dbstore_ta.c:260
     4d8:	94000775 	bl	22ac <TEE_FreeOperation>
/home/pedro/devel/optee/optee_examples/HCEMobile/ta/dbstore_ta.c:261
     4dc:	f9402ba0 	ldr	x0, [x29,#80]
     4e0:	94000522 	bl	1968 <TEE_FreeTransientObject>
/home/pedro/devel/optee/optee_examples/HCEMobile/ta/dbstore_ta.c:262
     4e4:	aa1403e0 	mov	x0, x20
     4e8:	9400043d 	bl	15dc <TEE_Free>
/home/pedro/devel/optee/optee_examples/HCEMobile/ta/dbstore_ta.c:266
     4ec:	52800001 	mov	w1, #0x0                   	// #0
     4f0:	17ffffcc 	b	420 <encrypt_using_public_key+0x120>

00000000000004f4 <encrypt_aes_ctr>:
encrypt_aes_ctr():
/home/pedro/devel/optee/optee_examples/HCEMobile/ta/dbstore_ta.c:269
     4f4:	a9b67bfd 	stp	x29, x30, [sp,#-160]!
     4f8:	910003fd 	mov	x29, sp
     4fc:	a9025bf5 	stp	x21, x22, [sp,#32]
/home/pedro/devel/optee/optee_examples/HCEMobile/ta/dbstore_ta.c:277
     500:	52800215 	mov	w21, #0x10                  	// #16
/home/pedro/devel/optee/optee_examples/HCEMobile/ta/dbstore_ta.c:269
     504:	a9046bf9 	stp	x25, x26, [sp,#64]
     508:	aa0003f9 	mov	x25, x0
/home/pedro/devel/optee/optee_examples/HCEMobile/ta/dbstore_ta.c:277
     50c:	1ad50c20 	sdiv	w0, w1, w21
/home/pedro/devel/optee/optee_examples/HCEMobile/ta/dbstore_ta.c:269
     510:	a90363f7 	stp	x23, x24, [sp,#48]
     514:	a90153f3 	stp	x19, x20, [sp,#16]
     518:	aa0203f7 	mov	x23, x2
     51c:	2a0103f4 	mov	w20, w1
     520:	aa0303f6 	mov	x22, x3
     524:	aa0503f8 	mov	x24, x5
/home/pedro/devel/optee/optee_examples/HCEMobile/ta/dbstore_ta.c:285
     528:	910163a2 	add	x2, x29, #0x58
/home/pedro/devel/optee/optee_examples/HCEMobile/ta/dbstore_ta.c:277
     52c:	11000400 	add	w0, w0, #0x1
/home/pedro/devel/optee/optee_examples/HCEMobile/ta/dbstore_ta.c:285
     530:	52801001 	mov	w1, #0x80                  	// #128
/home/pedro/devel/optee/optee_examples/HCEMobile/ta/dbstore_ta.c:277
     534:	531b6800 	lsl	w0, w0, #5
     538:	b90057a0 	str	w0, [x29,#84]
/home/pedro/devel/optee/optee_examples/HCEMobile/ta/dbstore_ta.c:280
     53c:	52b80000 	mov	w0, #0xc0000000            	// #-1073741824
     540:	b9006ba0 	str	w0, [x29,#104]
/home/pedro/devel/optee/optee_examples/HCEMobile/ta/dbstore_ta.c:285
     544:	2a1503e0 	mov	w0, w21
/home/pedro/devel/optee/optee_examples/HCEMobile/ta/dbstore_ta.c:276
     548:	a905ffbf 	stp	xzr, xzr, [x29,#88]
/home/pedro/devel/optee/optee_examples/HCEMobile/ta/dbstore_ta.c:281
     54c:	f9003ba4 	str	x4, [x29,#112]
/home/pedro/devel/optee/optee_examples/HCEMobile/ta/dbstore_ta.c:282
     550:	b9007bb5 	str	w21, [x29,#120]
/home/pedro/devel/optee/optee_examples/HCEMobile/ta/dbstore_ta.c:285
     554:	72b40000 	movk	w0, #0xa000, lsl #16
     558:	940004eb 	bl	1904 <TEE_AllocateTransientObject>
/home/pedro/devel/optee/optee_examples/HCEMobile/ta/dbstore_ta.c:286
     55c:	34000060 	cbz	w0, 568 <encrypt_aes_ctr+0x74>
/home/pedro/devel/optee/optee_examples/HCEMobile/ta/dbstore_ta.c:327
     560:	129fff21 	mov	w1, #0xffff0006            	// #-65530
     564:	14000026 	b	5fc <encrypt_aes_ctr+0x108>
/home/pedro/devel/optee/optee_examples/HCEMobile/ta/dbstore_ta.c:291
     568:	f9402fa0 	ldr	x0, [x29,#88]
     56c:	52800022 	mov	w2, #0x1                   	// #1
     570:	9101a3a1 	add	x1, x29, #0x68
     574:	94000527 	bl	1a10 <TEE_PopulateTransientObject>
/home/pedro/devel/optee/optee_examples/HCEMobile/ta/dbstore_ta.c:292
     578:	35ffff40 	cbnz	w0, 560 <encrypt_aes_ctr+0x6c>
/home/pedro/devel/optee/optee_examples/HCEMobile/ta/dbstore_ta.c:297
     57c:	52800001 	mov	w1, #0x0                   	// #0
     580:	2a1403e0 	mov	w0, w20
     584:	94000412 	bl	15cc <TEE_Malloc>
     588:	aa0003fa 	mov	x26, x0
/home/pedro/devel/optee/optee_examples/HCEMobile/ta/dbstore_ta.c:298
     58c:	b94057a0 	ldr	w0, [x29,#84]
     590:	52800001 	mov	w1, #0x0                   	// #0
     594:	9400040e 	bl	15cc <TEE_Malloc>
     598:	aa0003f3 	mov	x19, x0
/home/pedro/devel/optee/optee_examples/HCEMobile/ta/dbstore_ta.c:299
     59c:	f100035f 	cmp	x26, #0x0
     5a0:	fa401804 	ccmp	x0, #0x0, #0x4, ne
     5a4:	54fffde0 	b.eq	560 <encrypt_aes_ctr+0x6c>
/home/pedro/devel/optee/optee_examples/HCEMobile/ta/dbstore_ta.c:302
     5a8:	2a1403e2 	mov	w2, w20
     5ac:	aa1903e1 	mov	x1, x25
     5b0:	aa1a03e0 	mov	x0, x26
     5b4:	940003ad 	bl	1468 <TEE_MemMove>
/home/pedro/devel/optee/optee_examples/HCEMobile/ta/dbstore_ta.c:305
     5b8:	f9402fa0 	ldr	x0, [x29,#88]
     5bc:	910203a1 	add	x1, x29, #0x80
     5c0:	94000421 	bl	1644 <TEE_GetObjectInfo>
/home/pedro/devel/optee/optee_examples/HCEMobile/ta/dbstore_ta.c:308
     5c4:	52804201 	mov	w1, #0x210                 	// #528
     5c8:	52801003 	mov	w3, #0x80                  	// #128
     5cc:	72a20001 	movk	w1, #0x1000, lsl #16
     5d0:	52800002 	mov	w2, #0x0                   	// #0
     5d4:	910183a0 	add	x0, x29, #0x60
     5d8:	94000746 	bl	22f0 <TEE_AllocateOperation>
/home/pedro/devel/optee/optee_examples/HCEMobile/ta/dbstore_ta.c:310
     5dc:	12800001 	mov	w1, #0xffffffff            	// #-1
/home/pedro/devel/optee/optee_examples/HCEMobile/ta/dbstore_ta.c:309
     5e0:	350000e0 	cbnz	w0, 5fc <encrypt_aes_ctr+0x108>
/home/pedro/devel/optee/optee_examples/HCEMobile/ta/dbstore_ta.c:314
     5e4:	a94583a1 	ldp	x1, x0, [x29,#88]
     5e8:	940009cd 	bl	2d1c <TEE_SetOperationKey>
/home/pedro/devel/optee/optee_examples/HCEMobile/ta/dbstore_ta.c:315
     5ec:	34000160 	cbz	w0, 618 <encrypt_aes_ctr+0x124>
/home/pedro/devel/optee/optee_examples/HCEMobile/ta/dbstore_ta.c:316
     5f0:	f94033a0 	ldr	x0, [x29,#96]
     5f4:	9400072e 	bl	22ac <TEE_FreeOperation>
/home/pedro/devel/optee/optee_examples/HCEMobile/ta/dbstore_ta.c:317
     5f8:	12800001 	mov	w1, #0xffffffff            	// #-1
/home/pedro/devel/optee/optee_examples/HCEMobile/ta/dbstore_ta.c:351
     5fc:	a94153f3 	ldp	x19, x20, [sp,#16]
     600:	2a0103e0 	mov	w0, w1
     604:	a9425bf5 	ldp	x21, x22, [sp,#32]
     608:	a94363f7 	ldp	x23, x24, [sp,#48]
     60c:	a9446bf9 	ldp	x25, x26, [sp,#64]
     610:	a8ca7bfd 	ldp	x29, x30, [sp],#160
     614:	d65f03c0 	ret
/home/pedro/devel/optee/optee_examples/HCEMobile/ta/dbstore_ta.c:321
     618:	f94033a0 	ldr	x0, [x29,#96]
     61c:	2a1503e2 	mov	w2, w21
     620:	aa1803e1 	mov	x1, x24
/home/pedro/devel/optee/optee_examples/HCEMobile/ta/dbstore_ta.c:323
     624:	910153b8 	add	x24, x29, #0x54
/home/pedro/devel/optee/optee_examples/HCEMobile/ta/dbstore_ta.c:324
     628:	129ffdf5 	mov	w21, #0xffff0010            	// #-65520
/home/pedro/devel/optee/optee_examples/HCEMobile/ta/dbstore_ta.c:321
     62c:	94000af1 	bl	31f0 <TEE_CipherInit>
/home/pedro/devel/optee/optee_examples/HCEMobile/ta/dbstore_ta.c:323
     630:	f94033a0 	ldr	x0, [x29,#96]
     634:	aa1803e4 	mov	x4, x24
     638:	aa1303e3 	mov	x3, x19
     63c:	2a1403e2 	mov	w2, w20
     640:	aa1a03e1 	mov	x1, x26
     644:	94000b14 	bl	3294 <TEE_CipherUpdate>
/home/pedro/devel/optee/optee_examples/HCEMobile/ta/dbstore_ta.c:324
     648:	6b15001f 	cmp	w0, w21
     64c:	540001a1 	b.ne	680 <encrypt_aes_ctr+0x18c>
/home/pedro/devel/optee/optee_examples/HCEMobile/ta/dbstore_ta.c:325
     650:	90000064 	adrp	x4, c000 <PRIME_TABLE+0x450>
     654:	91290884 	add	x4, x4, #0xa42
     658:	52800023 	mov	w3, #0x1                   	// #1
     65c:	52800042 	mov	w2, #0x2                   	// #2
     660:	528028a1 	mov	w1, #0x145                 	// #325
     664:	f0000040 	adrp	x0, b000 <__mpa_mpanum_to_hexstr+0xb0>
     668:	91240000 	add	x0, x0, #0x900
     66c:	91010000 	add	x0, x0, #0x40
     670:	94001cdf 	bl	79ec <trace_printf>
/home/pedro/devel/optee/optee_examples/HCEMobile/ta/dbstore_ta.c:326
     674:	f94033a0 	ldr	x0, [x29,#96]
     678:	9400070d 	bl	22ac <TEE_FreeOperation>
     67c:	17ffffb9 	b	560 <encrypt_aes_ctr+0x6c>
/home/pedro/devel/optee/optee_examples/HCEMobile/ta/dbstore_ta.c:330
     680:	b94057b9 	ldr	w25, [x29,#84]
     684:	aa1303e1 	mov	x1, x19
     688:	aa1703e0 	mov	x0, x23
     68c:	2a1903e2 	mov	w2, w25
     690:	94001975 	bl	6c64 <memcpy>
/home/pedro/devel/optee/optee_examples/HCEMobile/ta/dbstore_ta.c:333
     694:	f94033a0 	ldr	x0, [x29,#96]
     698:	aa1803e4 	mov	x4, x24
/home/pedro/devel/optee/optee_examples/HCEMobile/ta/dbstore_ta.c:331
     69c:	b90002d9 	str	w25, [x22]
/home/pedro/devel/optee/optee_examples/HCEMobile/ta/dbstore_ta.c:333
     6a0:	aa1303e3 	mov	x3, x19
     6a4:	2a1403e2 	mov	w2, w20
     6a8:	aa1a03e1 	mov	x1, x26
     6ac:	94000b51 	bl	33f0 <TEE_CipherDoFinal>
/home/pedro/devel/optee/optee_examples/HCEMobile/ta/dbstore_ta.c:334
     6b0:	6b15001f 	cmp	w0, w21
     6b4:	540000e1 	b.ne	6d0 <encrypt_aes_ctr+0x1dc>
/home/pedro/devel/optee/optee_examples/HCEMobile/ta/dbstore_ta.c:335
     6b8:	90000064 	adrp	x4, c000 <PRIME_TABLE+0x450>
     6bc:	52800023 	mov	w3, #0x1                   	// #1
     6c0:	91297884 	add	x4, x4, #0xa5e
     6c4:	52800042 	mov	w2, #0x2                   	// #2
     6c8:	528029e1 	mov	w1, #0x14f                 	// #335
     6cc:	17ffffe6 	b	664 <encrypt_aes_ctr+0x170>
/home/pedro/devel/optee/optee_examples/HCEMobile/ta/dbstore_ta.c:346
     6d0:	f94033a0 	ldr	x0, [x29,#96]
     6d4:	940006f6 	bl	22ac <TEE_FreeOperation>
/home/pedro/devel/optee/optee_examples/HCEMobile/ta/dbstore_ta.c:347
     6d8:	f9402fa0 	ldr	x0, [x29,#88]
     6dc:	940004a3 	bl	1968 <TEE_FreeTransientObject>
/home/pedro/devel/optee/optee_examples/HCEMobile/ta/dbstore_ta.c:348
     6e0:	aa1303e0 	mov	x0, x19
     6e4:	940003be 	bl	15dc <TEE_Free>
/home/pedro/devel/optee/optee_examples/HCEMobile/ta/dbstore_ta.c:350
     6e8:	52800001 	mov	w1, #0x0                   	// #0
     6ec:	17ffffc4 	b	5fc <encrypt_aes_ctr+0x108>

00000000000006f0 <init>:
init():
/home/pedro/devel/optee/optee_examples/HCEMobile/ta/dbstore_ta.c:520
     6f0:	d10e43ff 	sub	sp, sp, #0x390
/home/pedro/devel/optee/optee_examples/HCEMobile/ta/dbstore_ta.c:529
     6f4:	d2802002 	mov	x2, #0x100                 	// #256
/home/pedro/devel/optee/optee_examples/HCEMobile/ta/dbstore_ta.c:520
     6f8:	a9007bfd 	stp	x29, x30, [sp]
     6fc:	910003fd 	mov	x29, sp
     700:	a9025bf5 	stp	x21, x22, [sp,#32]
/home/pedro/devel/optee/optee_examples/HCEMobile/ta/dbstore_ta.c:529
     704:	910243b6 	add	x22, x29, #0x90
/home/pedro/devel/optee/optee_examples/HCEMobile/ta/dbstore_ta.c:520
     708:	a90153f3 	stp	x19, x20, [sp,#16]
     70c:	aa0103f5 	mov	x21, x1
     710:	a90363f7 	stp	x23, x24, [sp,#48]
/home/pedro/devel/optee/optee_examples/HCEMobile/ta/dbstore_ta.c:529
     714:	52800001 	mov	w1, #0x0                   	// #0
/home/pedro/devel/optee/optee_examples/HCEMobile/ta/dbstore_ta.c:520
     718:	a9046bf9 	stp	x25, x26, [sp,#64]
/home/pedro/devel/optee/optee_examples/HCEMobile/ta/dbstore_ta.c:531
     71c:	910643b9 	add	x25, x29, #0x190
/home/pedro/devel/optee/optee_examples/HCEMobile/ta/dbstore_ta.c:520
     720:	a90573fb 	stp	x27, x28, [sp,#80]
/home/pedro/devel/optee/optee_examples/HCEMobile/ta/dbstore_ta.c:533
     724:	910a43ba 	add	x26, x29, #0x290
/home/pedro/devel/optee/optee_examples/HCEMobile/ta/dbstore_ta.c:520
     728:	b9006ba0 	str	w0, [x29,#104]
/home/pedro/devel/optee/optee_examples/HCEMobile/ta/dbstore_ta.c:529
     72c:	aa1603e0 	mov	x0, x22
     730:	94001968 	bl	6cd0 <memset>
/home/pedro/devel/optee/optee_examples/HCEMobile/ta/dbstore_ta.c:544
     734:	f0000054 	adrp	x20, b000 <__mpa_mpanum_to_hexstr+0xb0>
/home/pedro/devel/optee/optee_examples/HCEMobile/ta/dbstore_ta.c:531
     738:	d2802002 	mov	x2, #0x100                 	// #256
     73c:	52800001 	mov	w1, #0x0                   	// #0
     740:	aa1903e0 	mov	x0, x25
     744:	94001963 	bl	6cd0 <memset>
/home/pedro/devel/optee/optee_examples/HCEMobile/ta/dbstore_ta.c:533
     748:	d2802002 	mov	x2, #0x100                 	// #256
     74c:	52800001 	mov	w1, #0x0                   	// #0
     750:	aa1a03e0 	mov	x0, x26
     754:	9400195f 	bl	6cd0 <memset>
/home/pedro/devel/optee/optee_examples/HCEMobile/ta/dbstore_ta.c:537
     758:	52800001 	mov	w1, #0x0                   	// #0
     75c:	52800200 	mov	w0, #0x10                  	// #16
     760:	9400039b 	bl	15cc <TEE_Malloc>
     764:	aa0003f8 	mov	x24, x0
/home/pedro/devel/optee/optee_examples/HCEMobile/ta/dbstore_ta.c:538
     768:	52800001 	mov	w1, #0x0                   	// #0
     76c:	52800200 	mov	w0, #0x10                  	// #16
     770:	94000397 	bl	15cc <TEE_Malloc>
/home/pedro/devel/optee/optee_examples/HCEMobile/ta/dbstore_ta.c:544
     774:	91240293 	add	x19, x20, #0x900
/home/pedro/devel/optee/optee_examples/HCEMobile/ta/dbstore_ta.c:542
     778:	52800026 	mov	w6, #0x1                   	// #1
/home/pedro/devel/optee/optee_examples/HCEMobile/ta/dbstore_ta.c:544
     77c:	91014273 	add	x19, x19, #0x50
/home/pedro/devel/optee/optee_examples/HCEMobile/ta/dbstore_ta.c:538
     780:	aa0003f7 	mov	x23, x0
/home/pedro/devel/optee/optee_examples/HCEMobile/ta/dbstore_ta.c:544
     784:	90000064 	adrp	x4, c000 <PRIME_TABLE+0x450>
     788:	2a0603e3 	mov	w3, w6
     78c:	9129e484 	add	x4, x4, #0xa79
     790:	52800062 	mov	w2, #0x3                   	// #3
     794:	52804401 	mov	w1, #0x220                 	// #544
     798:	aa1303e0 	mov	x0, x19
     79c:	b9006fa6 	str	w6, [x29,#108]
/home/pedro/devel/optee/optee_examples/HCEMobile/ta/dbstore_ta.c:542
     7a0:	29101bbf 	stp	wzr, w6, [x29,#128]
/home/pedro/devel/optee/optee_examples/HCEMobile/ta/dbstore_ta.c:544
     7a4:	94001c92 	bl	79ec <trace_printf>
/home/pedro/devel/optee/optee_examples/HCEMobile/ta/dbstore_ta.c:549
     7a8:	b9406ba5 	ldr	w5, [x29,#104]
/home/pedro/devel/optee/optee_examples/HCEMobile/ta/dbstore_ta.c:546
     7ac:	f9400abb 	ldr	x27, [x21,#16]
/home/pedro/devel/optee/optee_examples/HCEMobile/ta/dbstore_ta.c:549
     7b0:	710154bf 	cmp	w5, #0x55
/home/pedro/devel/optee/optee_examples/HCEMobile/ta/dbstore_ta.c:547
     7b4:	f94012bc 	ldr	x28, [x21,#32]
/home/pedro/devel/optee/optee_examples/HCEMobile/ta/dbstore_ta.c:549
     7b8:	54000140 	b.eq	7e0 <init+0xf0>
/home/pedro/devel/optee/optee_examples/HCEMobile/ta/dbstore_ta.c:552
     7bc:	b9406fa6 	ldr	w6, [x29,#108]
     7c0:	90000064 	adrp	x4, c000 <PRIME_TABLE+0x450>
     7c4:	f94002a5 	ldr	x5, [x21]
     7c8:	912a2484 	add	x4, x4, #0xa89
     7cc:	52800042 	mov	w2, #0x2                   	// #2
     7d0:	52804501 	mov	w1, #0x228                 	// #552
     7d4:	aa1303e0 	mov	x0, x19
     7d8:	2a0603e3 	mov	w3, w6
     7dc:	94001c84 	bl	79ec <trace_printf>
/home/pedro/devel/optee/optee_examples/HCEMobile/ta/dbstore_ta.c:555
     7e0:	91240293 	add	x19, x20, #0x900
     7e4:	52800023 	mov	w3, #0x1                   	// #1
     7e8:	91014273 	add	x19, x19, #0x50
     7ec:	52800042 	mov	w2, #0x2                   	// #2
     7f0:	52804561 	mov	w1, #0x22b                 	// #555
     7f4:	aa1303e0 	mov	x0, x19
     7f8:	90000064 	adrp	x4, c000 <PRIME_TABLE+0x450>
     7fc:	912a9484 	add	x4, x4, #0xaa5
     800:	94001c7b 	bl	79ec <trace_printf>
/home/pedro/devel/optee/optee_examples/HCEMobile/ta/dbstore_ta.c:556
     804:	b9402aa1 	ldr	w1, [x21,#40]
     808:	9101d3a3 	add	x3, x29, #0x74
     80c:	aa1603e2 	mov	x2, x22
     810:	aa1c03e0 	mov	x0, x28
     814:	97fffe14 	bl	64 <decrypt_using_private_key>
/home/pedro/devel/optee/optee_examples/HCEMobile/ta/dbstore_ta.c:557
     818:	aa1603e5 	mov	x5, x22
     81c:	52800023 	mov	w3, #0x1                   	// #1
     820:	52800042 	mov	w2, #0x2                   	// #2
     824:	528045a1 	mov	w1, #0x22d                 	// #557
     828:	aa1303e0 	mov	x0, x19
     82c:	90000064 	adrp	x4, c000 <PRIME_TABLE+0x450>
     830:	912b7084 	add	x4, x4, #0xadc
     834:	94001c6e 	bl	79ec <trace_printf>
/home/pedro/devel/optee/optee_examples/HCEMobile/ta/dbstore_ta.c:560
     838:	90000064 	adrp	x4, c000 <PRIME_TABLE+0x450>
     83c:	912be484 	add	x4, x4, #0xaf9
     840:	52800023 	mov	w3, #0x1                   	// #1
     844:	52800042 	mov	w2, #0x2                   	// #2
     848:	52804601 	mov	w1, #0x230                 	// #560
     84c:	aa1303e0 	mov	x0, x19
     850:	94001c67 	bl	79ec <trace_printf>
/home/pedro/devel/optee/optee_examples/HCEMobile/ta/dbstore_ta.c:561
     854:	aa1603e0 	mov	x0, x22
     858:	97fffdf2 	bl	20 <transform_challenge>
/home/pedro/devel/optee/optee_examples/HCEMobile/ta/dbstore_ta.c:562
     85c:	aa1603e5 	mov	x5, x22
     860:	52800023 	mov	w3, #0x1                   	// #1
     864:	52800042 	mov	w2, #0x2                   	// #2
     868:	52804641 	mov	w1, #0x232                 	// #562
     86c:	aa1303e0 	mov	x0, x19
     870:	90000064 	adrp	x4, c000 <PRIME_TABLE+0x450>
     874:	912cc884 	add	x4, x4, #0xb32
     878:	94001c5d 	bl	79ec <trace_printf>
/home/pedro/devel/optee/optee_examples/HCEMobile/ta/dbstore_ta.c:565
     87c:	90000064 	adrp	x4, c000 <PRIME_TABLE+0x450>
     880:	912d4c84 	add	x4, x4, #0xb53
     884:	52800023 	mov	w3, #0x1                   	// #1
     888:	52800042 	mov	w2, #0x2                   	// #2
     88c:	528046a1 	mov	w1, #0x235                 	// #565
     890:	aa1303e0 	mov	x0, x19
     894:	94001c56 	bl	79ec <trace_printf>
/home/pedro/devel/optee/optee_examples/HCEMobile/ta/dbstore_ta.c:566
     898:	52800201 	mov	w1, #0x10                  	// #16
     89c:	aa1803e0 	mov	x0, x24
     8a0:	94000ef6 	bl	4478 <TEE_GenerateRandom>
/home/pedro/devel/optee/optee_examples/HCEMobile/ta/dbstore_ta.c:567
     8a4:	52800201 	mov	w1, #0x10                  	// #16
     8a8:	aa1703e0 	mov	x0, x23
     8ac:	94000ef3 	bl	4478 <TEE_GenerateRandom>
/home/pedro/devel/optee/optee_examples/HCEMobile/ta/dbstore_ta.c:568
     8b0:	52800023 	mov	w3, #0x1                   	// #1
     8b4:	52800042 	mov	w2, #0x2                   	// #2
     8b8:	52804701 	mov	w1, #0x238                 	// #568
     8bc:	aa1303e0 	mov	x0, x19
     8c0:	90000064 	adrp	x4, c000 <PRIME_TABLE+0x450>
     8c4:	912dec84 	add	x4, x4, #0xb7b
     8c8:	94001c49 	bl	79ec <trace_printf>
/home/pedro/devel/optee/optee_examples/HCEMobile/ta/dbstore_ta.c:569
     8cc:	aa1803e5 	mov	x5, x24
     8d0:	52800023 	mov	w3, #0x1                   	// #1
     8d4:	52800042 	mov	w2, #0x2                   	// #2
     8d8:	52804721 	mov	w1, #0x239                 	// #569
     8dc:	aa1303e0 	mov	x0, x19
     8e0:	90000064 	adrp	x4, c000 <PRIME_TABLE+0x450>
     8e4:	912e7c84 	add	x4, x4, #0xb9f
     8e8:	94001c41 	bl	79ec <trace_printf>
/home/pedro/devel/optee/optee_examples/HCEMobile/ta/dbstore_ta.c:570
     8ec:	aa1703e5 	mov	x5, x23
     8f0:	52800023 	mov	w3, #0x1                   	// #1
     8f4:	52800042 	mov	w2, #0x2                   	// #2
     8f8:	52804741 	mov	w1, #0x23a                 	// #570
     8fc:	aa1303e0 	mov	x0, x19
     900:	90000064 	adrp	x4, c000 <PRIME_TABLE+0x450>
     904:	912ed884 	add	x4, x4, #0xbb6
     908:	94001c39 	bl	79ec <trace_printf>
/home/pedro/devel/optee/optee_examples/HCEMobile/ta/dbstore_ta.c:572
     90c:	52800023 	mov	w3, #0x1                   	// #1
     910:	52800042 	mov	w2, #0x2                   	// #2
     914:	52804781 	mov	w1, #0x23c                 	// #572
     918:	aa1303e0 	mov	x0, x19
     91c:	90000064 	adrp	x4, c000 <PRIME_TABLE+0x450>
     920:	912f1084 	add	x4, x4, #0xbc4
     924:	94001c32 	bl	79ec <trace_printf>
/home/pedro/devel/optee/optee_examples/HCEMobile/ta/dbstore_ta.c:573
     928:	b94077a1 	ldr	w1, [x29,#116]
     92c:	aa1703e5 	mov	x5, x23
     930:	aa1803e4 	mov	x4, x24
     934:	9101f3a3 	add	x3, x29, #0x7c
     938:	aa1a03e2 	mov	x2, x26
     93c:	aa1603e0 	mov	x0, x22
     940:	97fffeed 	bl	4f4 <encrypt_aes_ctr>
/home/pedro/devel/optee/optee_examples/HCEMobile/ta/dbstore_ta.c:574
     944:	52800023 	mov	w3, #0x1                   	// #1
     948:	52800042 	mov	w2, #0x2                   	// #2
     94c:	528047c1 	mov	w1, #0x23e                 	// #574
     950:	aa1303e0 	mov	x0, x19
     954:	90000064 	adrp	x4, c000 <PRIME_TABLE+0x450>
     958:	912ff084 	add	x4, x4, #0xbfc
     95c:	94001c24 	bl	79ec <trace_printf>
/home/pedro/devel/optee/optee_examples/HCEMobile/ta/dbstore_ta.c:577
     960:	52800023 	mov	w3, #0x1                   	// #1
     964:	52800042 	mov	w2, #0x2                   	// #2
     968:	52804821 	mov	w1, #0x241                 	// #577
     96c:	aa1303e0 	mov	x0, x19
     970:	90000064 	adrp	x4, c000 <PRIME_TABLE+0x450>
     974:	91309484 	add	x4, x4, #0xc25
     978:	94001c1d 	bl	79ec <trace_printf>
/home/pedro/devel/optee/optee_examples/HCEMobile/ta/dbstore_ta.c:578
     97c:	9101e3a4 	add	x4, x29, #0x78
     980:	aa1903e3 	mov	x3, x25
     984:	52800202 	mov	w2, #0x10                  	// #16
     988:	aa1803e1 	mov	x1, x24
     98c:	aa1b03e0 	mov	x0, x27
     990:	97fffe5c 	bl	300 <encrypt_using_public_key>
/home/pedro/devel/optee/optee_examples/HCEMobile/ta/dbstore_ta.c:579
     994:	52800023 	mov	w3, #0x1                   	// #1
     998:	52800042 	mov	w2, #0x2                   	// #2
     99c:	52804861 	mov	w1, #0x243                 	// #579
     9a0:	aa1303e0 	mov	x0, x19
     9a4:	90000064 	adrp	x4, c000 <PRIME_TABLE+0x450>
     9a8:	91314084 	add	x4, x4, #0xc50
     9ac:	94001c10 	bl	79ec <trace_printf>
/home/pedro/devel/optee/optee_examples/HCEMobile/ta/dbstore_ta.c:581
     9b0:	b9407fa2 	ldr	w2, [x29,#124]
     9b4:	aa1a03e1 	mov	x1, x26
     9b8:	f94002a0 	ldr	x0, [x21]
     9bc:	940002ab 	bl	1468 <TEE_MemMove>
/home/pedro/devel/optee/optee_examples/HCEMobile/ta/dbstore_ta.c:582
     9c0:	f9400aa0 	ldr	x0, [x21,#16]
     9c4:	52802002 	mov	w2, #0x100                 	// #256
     9c8:	aa1903e1 	mov	x1, x25
     9cc:	940002a7 	bl	1468 <TEE_MemMove>
/home/pedro/devel/optee/optee_examples/HCEMobile/ta/dbstore_ta.c:583
     9d0:	f94012a0 	ldr	x0, [x21,#32]
     9d4:	52800202 	mov	w2, #0x10                  	// #16
     9d8:	aa1703e1 	mov	x1, x23
/home/pedro/devel/optee/optee_examples/HCEMobile/ta/dbstore_ta.c:589
     9dc:	910223b5 	add	x21, x29, #0x88
/home/pedro/devel/optee/optee_examples/HCEMobile/ta/dbstore_ta.c:583
     9e0:	940002a2 	bl	1468 <TEE_MemMove>
/home/pedro/devel/optee/optee_examples/HCEMobile/ta/dbstore_ta.c:585
     9e4:	52800023 	mov	w3, #0x1                   	// #1
     9e8:	52800042 	mov	w2, #0x2                   	// #2
     9ec:	52804921 	mov	w1, #0x249                 	// #585
     9f0:	aa1303e0 	mov	x0, x19
     9f4:	90000064 	adrp	x4, c000 <PRIME_TABLE+0x450>
     9f8:	9131dc84 	add	x4, x4, #0xc77
     9fc:	94001bfc 	bl	79ec <trace_printf>
/home/pedro/devel/optee/optee_examples/HCEMobile/ta/dbstore_ta.c:588
     a00:	52800023 	mov	w3, #0x1                   	// #1
     a04:	52800042 	mov	w2, #0x2                   	// #2
     a08:	52804981 	mov	w1, #0x24c                 	// #588
     a0c:	aa1303e0 	mov	x0, x19
     a10:	90000064 	adrp	x4, c000 <PRIME_TABLE+0x450>
     a14:	91323884 	add	x4, x4, #0xc8e
     a18:	94001bf5 	bl	79ec <trace_printf>
/home/pedro/devel/optee/optee_examples/HCEMobile/ta/dbstore_ta.c:589
     a1c:	aa1503e7 	mov	x7, x21
     a20:	52800226 	mov	w6, #0x11                  	// #17
     a24:	aa1803e5 	mov	x5, x24
     a28:	d2800004 	mov	x4, #0x0                   	// #0
     a2c:	52800043 	mov	w3, #0x2                   	// #2
     a30:	52800082 	mov	w2, #0x4                   	// #4
     a34:	910203a1 	add	x1, x29, #0x80
     a38:	52800020 	mov	w0, #0x1                   	// #1
     a3c:	940004d5 	bl	1d90 <TEE_CreatePersistentObject>
/home/pedro/devel/optee/optee_examples/HCEMobile/ta/dbstore_ta.c:591
     a40:	34000100 	cbz	w0, a60 <init+0x370>
/home/pedro/devel/optee/optee_examples/HCEMobile/ta/dbstore_ta.c:592
     a44:	90000064 	adrp	x4, c000 <PRIME_TABLE+0x450>
     a48:	52800023 	mov	w3, #0x1                   	// #1
     a4c:	91332c84 	add	x4, x4, #0xccb
     a50:	52800042 	mov	w2, #0x2                   	// #2
     a54:	52804a01 	mov	w1, #0x250                 	// #592
     a58:	aa1303e0 	mov	x0, x19
     a5c:	94001be4 	bl	79ec <trace_printf>
/home/pedro/devel/optee/optee_examples/HCEMobile/ta/dbstore_ta.c:594
     a60:	f94047a0 	ldr	x0, [x29,#136]
     a64:	9400039e 	bl	18dc <TEE_CloseObject>
/home/pedro/devel/optee/optee_examples/HCEMobile/ta/dbstore_ta.c:596
     a68:	aa1503e7 	mov	x7, x21
     a6c:	52800226 	mov	w6, #0x11                  	// #17
     a70:	aa1703e5 	mov	x5, x23
     a74:	d2800004 	mov	x4, #0x0                   	// #0
     a78:	52800043 	mov	w3, #0x2                   	// #2
     a7c:	52800082 	mov	w2, #0x4                   	// #4
     a80:	910213a1 	add	x1, x29, #0x84
     a84:	52800020 	mov	w0, #0x1                   	// #1
     a88:	940004c2 	bl	1d90 <TEE_CreatePersistentObject>
/home/pedro/devel/optee/optee_examples/HCEMobile/ta/dbstore_ta.c:598
     a8c:	34000120 	cbz	w0, ab0 <init+0x3c0>
/home/pedro/devel/optee/optee_examples/HCEMobile/ta/dbstore_ta.c:599
     a90:	91240280 	add	x0, x20, #0x900
     a94:	90000064 	adrp	x4, c000 <PRIME_TABLE+0x450>
     a98:	52800023 	mov	w3, #0x1                   	// #1
     a9c:	9133c484 	add	x4, x4, #0xcf1
     aa0:	52800042 	mov	w2, #0x2                   	// #2
     aa4:	52804ae1 	mov	w1, #0x257                 	// #599
     aa8:	91014000 	add	x0, x0, #0x50
     aac:	94001bd0 	bl	79ec <trace_printf>
/home/pedro/devel/optee/optee_examples/HCEMobile/ta/dbstore_ta.c:601
     ab0:	f94047a0 	ldr	x0, [x29,#136]
     ab4:	9400038a 	bl	18dc <TEE_CloseObject>
/home/pedro/devel/optee/optee_examples/HCEMobile/ta/dbstore_ta.c:604
     ab8:	a9407bfd 	ldp	x29, x30, [sp]
     abc:	52800000 	mov	w0, #0x0                   	// #0
     ac0:	a94153f3 	ldp	x19, x20, [sp,#16]
     ac4:	a9425bf5 	ldp	x21, x22, [sp,#32]
     ac8:	a94363f7 	ldp	x23, x24, [sp,#48]
     acc:	a9446bf9 	ldp	x25, x26, [sp,#64]
     ad0:	a94573fb 	ldp	x27, x28, [sp,#80]
     ad4:	910e43ff 	add	sp, sp, #0x390
     ad8:	d65f03c0 	ret

0000000000000adc <decrypt_aes_ctr>:
decrypt_aes_ctr():
/home/pedro/devel/optee/optee_examples/HCEMobile/ta/dbstore_ta.c:353
     adc:	a9b57bfd 	stp	x29, x30, [sp,#-176]!
     ae0:	910003fd 	mov	x29, sp
     ae4:	a90153f3 	stp	x19, x20, [sp,#16]
/home/pedro/devel/optee/optee_examples/HCEMobile/ta/dbstore_ta.c:361
     ae8:	52800213 	mov	w19, #0x10                  	// #16
/home/pedro/devel/optee/optee_examples/HCEMobile/ta/dbstore_ta.c:353
     aec:	a9046bf9 	stp	x25, x26, [sp,#64]
     af0:	aa0003fa 	mov	x26, x0
/home/pedro/devel/optee/optee_examples/HCEMobile/ta/dbstore_ta.c:361
     af4:	1ad30c20 	sdiv	w0, w1, w19
/home/pedro/devel/optee/optee_examples/HCEMobile/ta/dbstore_ta.c:353
     af8:	a90363f7 	stp	x23, x24, [sp,#48]
     afc:	a9025bf5 	stp	x21, x22, [sp,#32]
     b00:	aa0203f8 	mov	x24, x2
     b04:	2a0103f5 	mov	w21, w1
     b08:	f9002bfb 	str	x27, [sp,#80]
     b0c:	aa0303f7 	mov	x23, x3
     b10:	aa0503f9 	mov	x25, x5
/home/pedro/devel/optee/optee_examples/HCEMobile/ta/dbstore_ta.c:361
     b14:	11000400 	add	w0, w0, #0x1
/home/pedro/devel/optee/optee_examples/HCEMobile/ta/dbstore_ta.c:369
     b18:	9101a3a2 	add	x2, x29, #0x68
/home/pedro/devel/optee/optee_examples/HCEMobile/ta/dbstore_ta.c:361
     b1c:	531b6800 	lsl	w0, w0, #5
     b20:	b90067a0 	str	w0, [x29,#100]
/home/pedro/devel/optee/optee_examples/HCEMobile/ta/dbstore_ta.c:364
     b24:	52b80000 	mov	w0, #0xc0000000            	// #-1073741824
     b28:	b9007ba0 	str	w0, [x29,#120]
/home/pedro/devel/optee/optee_examples/HCEMobile/ta/dbstore_ta.c:369
     b2c:	2a1303e0 	mov	w0, w19
     b30:	52801001 	mov	w1, #0x80                  	// #128
/home/pedro/devel/optee/optee_examples/HCEMobile/ta/dbstore_ta.c:360
     b34:	a906ffbf 	stp	xzr, xzr, [x29,#104]
/home/pedro/devel/optee/optee_examples/HCEMobile/ta/dbstore_ta.c:365
     b38:	f90043a4 	str	x4, [x29,#128]
/home/pedro/devel/optee/optee_examples/HCEMobile/ta/dbstore_ta.c:369
     b3c:	72b40000 	movk	w0, #0xa000, lsl #16
/home/pedro/devel/optee/optee_examples/HCEMobile/ta/dbstore_ta.c:366
     b40:	b9008bb3 	str	w19, [x29,#136]
/home/pedro/devel/optee/optee_examples/HCEMobile/ta/dbstore_ta.c:369
     b44:	94000370 	bl	1904 <TEE_AllocateTransientObject>
/home/pedro/devel/optee/optee_examples/HCEMobile/ta/dbstore_ta.c:370
     b48:	34000060 	cbz	w0, b54 <decrypt_aes_ctr+0x78>
/home/pedro/devel/optee/optee_examples/HCEMobile/ta/dbstore_ta.c:411
     b4c:	129fff21 	mov	w1, #0xffff0006            	// #-65530
     b50:	14000026 	b	be8 <decrypt_aes_ctr+0x10c>
/home/pedro/devel/optee/optee_examples/HCEMobile/ta/dbstore_ta.c:375
     b54:	f94037a0 	ldr	x0, [x29,#104]
     b58:	52800022 	mov	w2, #0x1                   	// #1
     b5c:	9101e3a1 	add	x1, x29, #0x78
     b60:	940003ac 	bl	1a10 <TEE_PopulateTransientObject>
/home/pedro/devel/optee/optee_examples/HCEMobile/ta/dbstore_ta.c:376
     b64:	35ffff40 	cbnz	w0, b4c <decrypt_aes_ctr+0x70>
/home/pedro/devel/optee/optee_examples/HCEMobile/ta/dbstore_ta.c:381
     b68:	52800001 	mov	w1, #0x0                   	// #0
     b6c:	2a1503e0 	mov	w0, w21
     b70:	94000297 	bl	15cc <TEE_Malloc>
     b74:	aa0003f6 	mov	x22, x0
/home/pedro/devel/optee/optee_examples/HCEMobile/ta/dbstore_ta.c:382
     b78:	b94067a0 	ldr	w0, [x29,#100]
     b7c:	52800001 	mov	w1, #0x0                   	// #0
     b80:	94000293 	bl	15cc <TEE_Malloc>
     b84:	aa0003f4 	mov	x20, x0
/home/pedro/devel/optee/optee_examples/HCEMobile/ta/dbstore_ta.c:383
     b88:	f10002df 	cmp	x22, #0x0
     b8c:	fa401804 	ccmp	x0, #0x0, #0x4, ne
     b90:	54fffde0 	b.eq	b4c <decrypt_aes_ctr+0x70>
/home/pedro/devel/optee/optee_examples/HCEMobile/ta/dbstore_ta.c:386
     b94:	2a1503e2 	mov	w2, w21
     b98:	aa1a03e1 	mov	x1, x26
     b9c:	aa1603e0 	mov	x0, x22
     ba0:	94000232 	bl	1468 <TEE_MemMove>
/home/pedro/devel/optee/optee_examples/HCEMobile/ta/dbstore_ta.c:389
     ba4:	f94037a0 	ldr	x0, [x29,#104]
     ba8:	910243a1 	add	x1, x29, #0x90
     bac:	940002a6 	bl	1644 <TEE_GetObjectInfo>
/home/pedro/devel/optee/optee_examples/HCEMobile/ta/dbstore_ta.c:392
     bb0:	52804201 	mov	w1, #0x210                 	// #528
     bb4:	52801003 	mov	w3, #0x80                  	// #128
     bb8:	72a20001 	movk	w1, #0x1000, lsl #16
     bbc:	52800022 	mov	w2, #0x1                   	// #1
     bc0:	9101c3a0 	add	x0, x29, #0x70
     bc4:	940005cb 	bl	22f0 <TEE_AllocateOperation>
/home/pedro/devel/optee/optee_examples/HCEMobile/ta/dbstore_ta.c:394
     bc8:	12800001 	mov	w1, #0xffffffff            	// #-1
/home/pedro/devel/optee/optee_examples/HCEMobile/ta/dbstore_ta.c:393
     bcc:	350000e0 	cbnz	w0, be8 <decrypt_aes_ctr+0x10c>
/home/pedro/devel/optee/optee_examples/HCEMobile/ta/dbstore_ta.c:398
     bd0:	a94683a1 	ldp	x1, x0, [x29,#104]
     bd4:	94000852 	bl	2d1c <TEE_SetOperationKey>
/home/pedro/devel/optee/optee_examples/HCEMobile/ta/dbstore_ta.c:399
     bd8:	34000180 	cbz	w0, c08 <decrypt_aes_ctr+0x12c>
/home/pedro/devel/optee/optee_examples/HCEMobile/ta/dbstore_ta.c:400
     bdc:	f9403ba0 	ldr	x0, [x29,#112]
     be0:	940005b3 	bl	22ac <TEE_FreeOperation>
/home/pedro/devel/optee/optee_examples/HCEMobile/ta/dbstore_ta.c:401
     be4:	12800001 	mov	w1, #0xffffffff            	// #-1
/home/pedro/devel/optee/optee_examples/HCEMobile/ta/dbstore_ta.c:439
     be8:	a94153f3 	ldp	x19, x20, [sp,#16]
     bec:	2a0103e0 	mov	w0, w1
     bf0:	a9425bf5 	ldp	x21, x22, [sp,#32]
     bf4:	a94363f7 	ldp	x23, x24, [sp,#48]
     bf8:	a9446bf9 	ldp	x25, x26, [sp,#64]
     bfc:	f9402bfb 	ldr	x27, [sp,#80]
     c00:	a8cb7bfd 	ldp	x29, x30, [sp],#176
     c04:	d65f03c0 	ret
/home/pedro/devel/optee/optee_examples/HCEMobile/ta/dbstore_ta.c:405
     c08:	f9403ba0 	ldr	x0, [x29,#112]
     c0c:	2a1303e2 	mov	w2, w19
     c10:	aa1903e1 	mov	x1, x25
/home/pedro/devel/optee/optee_examples/HCEMobile/ta/dbstore_ta.c:407
     c14:	910193b9 	add	x25, x29, #0x64
/home/pedro/devel/optee/optee_examples/HCEMobile/ta/dbstore_ta.c:408
     c18:	129ffdfb 	mov	w27, #0xffff0010            	// #-65520
     c1c:	f0000053 	adrp	x19, b000 <__mpa_mpanum_to_hexstr+0xb0>
/home/pedro/devel/optee/optee_examples/HCEMobile/ta/dbstore_ta.c:405
     c20:	94000974 	bl	31f0 <TEE_CipherInit>
/home/pedro/devel/optee/optee_examples/HCEMobile/ta/dbstore_ta.c:407
     c24:	f9403ba0 	ldr	x0, [x29,#112]
     c28:	aa1903e4 	mov	x4, x25
     c2c:	aa1403e3 	mov	x3, x20
     c30:	2a1503e2 	mov	w2, w21
     c34:	aa1603e1 	mov	x1, x22
     c38:	94000997 	bl	3294 <TEE_CipherUpdate>
/home/pedro/devel/optee/optee_examples/HCEMobile/ta/dbstore_ta.c:408
     c3c:	6b1b001f 	cmp	w0, w27
     c40:	54000181 	b.ne	c70 <decrypt_aes_ctr+0x194>
/home/pedro/devel/optee/optee_examples/HCEMobile/ta/dbstore_ta.c:409
     c44:	91240273 	add	x19, x19, #0x900
     c48:	90000064 	adrp	x4, c000 <PRIME_TABLE+0x450>
     c4c:	91016260 	add	x0, x19, #0x58
     c50:	91290884 	add	x4, x4, #0xa42
     c54:	52800023 	mov	w3, #0x1                   	// #1
     c58:	52800042 	mov	w2, #0x2                   	// #2
     c5c:	52803321 	mov	w1, #0x199                 	// #409
     c60:	94001b63 	bl	79ec <trace_printf>
/home/pedro/devel/optee/optee_examples/HCEMobile/ta/dbstore_ta.c:410
     c64:	f9403ba0 	ldr	x0, [x29,#112]
     c68:	94000591 	bl	22ac <TEE_FreeOperation>
     c6c:	17ffffb8 	b	b4c <decrypt_aes_ctr+0x70>
/home/pedro/devel/optee/optee_examples/HCEMobile/ta/dbstore_ta.c:414
     c70:	b94067ba 	ldr	w26, [x29,#100]
     c74:	aa1403e1 	mov	x1, x20
     c78:	aa1803e0 	mov	x0, x24
/home/pedro/devel/optee/optee_examples/HCEMobile/ta/dbstore_ta.c:417
     c7c:	91240273 	add	x19, x19, #0x900
     c80:	91016273 	add	x19, x19, #0x58
/home/pedro/devel/optee/optee_examples/HCEMobile/ta/dbstore_ta.c:414
     c84:	2a1a03e2 	mov	w2, w26
     c88:	940017f7 	bl	6c64 <memcpy>
/home/pedro/devel/optee/optee_examples/HCEMobile/ta/dbstore_ta.c:415
     c8c:	b90002fa 	str	w26, [x23]
/home/pedro/devel/optee/optee_examples/HCEMobile/ta/dbstore_ta.c:417
     c90:	90000077 	adrp	x23, c000 <PRIME_TABLE+0x450>
     c94:	91343af7 	add	x23, x23, #0xd0e
     c98:	2a1a03e5 	mov	w5, w26
     c9c:	52800023 	mov	w3, #0x1                   	// #1
     ca0:	52800042 	mov	w2, #0x2                   	// #2
     ca4:	52803421 	mov	w1, #0x1a1                 	// #417
     ca8:	aa1303e0 	mov	x0, x19
     cac:	aa1703e4 	mov	x4, x23
     cb0:	94001b4f 	bl	79ec <trace_printf>
/home/pedro/devel/optee/optee_examples/HCEMobile/ta/dbstore_ta.c:419
     cb4:	f9403ba0 	ldr	x0, [x29,#112]
     cb8:	aa1903e4 	mov	x4, x25
     cbc:	aa1403e3 	mov	x3, x20
     cc0:	2a1503e2 	mov	w2, w21
     cc4:	aa1603e1 	mov	x1, x22
     cc8:	940009ca 	bl	33f0 <TEE_CipherDoFinal>
/home/pedro/devel/optee/optee_examples/HCEMobile/ta/dbstore_ta.c:420
     ccc:	6b1b001f 	cmp	w0, w27
     cd0:	54000101 	b.ne	cf0 <decrypt_aes_ctr+0x214>
/home/pedro/devel/optee/optee_examples/HCEMobile/ta/dbstore_ta.c:421
     cd4:	90000064 	adrp	x4, c000 <PRIME_TABLE+0x450>
     cd8:	52800023 	mov	w3, #0x1                   	// #1
     cdc:	91297884 	add	x4, x4, #0xa5e
     ce0:	52800042 	mov	w2, #0x2                   	// #2
     ce4:	528034a1 	mov	w1, #0x1a5                 	// #421
     ce8:	aa1303e0 	mov	x0, x19
     cec:	17ffffdd 	b	c60 <decrypt_aes_ctr+0x184>
/home/pedro/devel/optee/optee_examples/HCEMobile/ta/dbstore_ta.c:426
     cf0:	b94067a5 	ldr	w5, [x29,#100]
     cf4:	52803541 	mov	w1, #0x1aa                 	// #426
     cf8:	aa1703e4 	mov	x4, x23
     cfc:	52800023 	mov	w3, #0x1                   	// #1
     d00:	52800042 	mov	w2, #0x2                   	// #2
     d04:	aa1303e0 	mov	x0, x19
     d08:	94001b39 	bl	79ec <trace_printf>
/home/pedro/devel/optee/optee_examples/HCEMobile/ta/dbstore_ta.c:434
     d0c:	f9403ba0 	ldr	x0, [x29,#112]
     d10:	94000567 	bl	22ac <TEE_FreeOperation>
/home/pedro/devel/optee/optee_examples/HCEMobile/ta/dbstore_ta.c:435
     d14:	f94037a0 	ldr	x0, [x29,#104]
     d18:	94000314 	bl	1968 <TEE_FreeTransientObject>
/home/pedro/devel/optee/optee_examples/HCEMobile/ta/dbstore_ta.c:436
     d1c:	aa1403e0 	mov	x0, x20
     d20:	9400022f 	bl	15dc <TEE_Free>
/home/pedro/devel/optee/optee_examples/HCEMobile/ta/dbstore_ta.c:438
     d24:	52800001 	mov	w1, #0x0                   	// #0
     d28:	17ffffb0 	b	be8 <decrypt_aes_ctr+0x10c>

0000000000000d2c <TA_CreateEntryPoint>:
TA_CreateEntryPoint():
/home/pedro/devel/optee/optee_examples/HCEMobile/ta/dbstore_ta.c:446
     d2c:	a9bf7bfd 	stp	x29, x30, [sp,#-16]!
/home/pedro/devel/optee/optee_examples/HCEMobile/ta/dbstore_ta.c:447
     d30:	f0000040 	adrp	x0, b000 <__mpa_mpanum_to_hexstr+0xb0>
     d34:	91240000 	add	x0, x0, #0x900
     d38:	52800023 	mov	w3, #0x1                   	// #1
/home/pedro/devel/optee/optee_examples/HCEMobile/ta/dbstore_ta.c:446
     d3c:	910003fd 	mov	x29, sp
/home/pedro/devel/optee/optee_examples/HCEMobile/ta/dbstore_ta.c:447
     d40:	52800062 	mov	w2, #0x3                   	// #3
     d44:	528037e1 	mov	w1, #0x1bf                 	// #447
     d48:	9101a000 	add	x0, x0, #0x68
     d4c:	90000064 	adrp	x4, c000 <PRIME_TABLE+0x450>
     d50:	9129e484 	add	x4, x4, #0xa79
     d54:	94001b26 	bl	79ec <trace_printf>
/home/pedro/devel/optee/optee_examples/HCEMobile/ta/dbstore_ta.c:450
     d58:	52800000 	mov	w0, #0x0                   	// #0
     d5c:	a8c17bfd 	ldp	x29, x30, [sp],#16
     d60:	d65f03c0 	ret

0000000000000d64 <TA_DestroyEntryPoint>:
TA_DestroyEntryPoint():
/home/pedro/devel/optee/optee_examples/HCEMobile/ta/dbstore_ta.c:458
     d64:	f0000040 	adrp	x0, b000 <__mpa_mpanum_to_hexstr+0xb0>
     d68:	91240000 	add	x0, x0, #0x900
     d6c:	90000064 	adrp	x4, c000 <PRIME_TABLE+0x450>
     d70:	52800023 	mov	w3, #0x1                   	// #1
     d74:	9129e484 	add	x4, x4, #0xa79
     d78:	52800062 	mov	w2, #0x3                   	// #3
     d7c:	52803941 	mov	w1, #0x1ca                 	// #458
     d80:	91020000 	add	x0, x0, #0x80
     d84:	14001b1a 	b	79ec <trace_printf>

0000000000000d88 <TA_OpenSessionEntryPoint>:
TA_OpenSessionEntryPoint():
/home/pedro/devel/optee/optee_examples/HCEMobile/ta/dbstore_ta.c:470
     d88:	a9be7bfd 	stp	x29, x30, [sp,#-32]!
/home/pedro/devel/optee/optee_examples/HCEMobile/ta/dbstore_ta.c:476
     d8c:	90000064 	adrp	x4, c000 <PRIME_TABLE+0x450>
     d90:	52800023 	mov	w3, #0x1                   	// #1
     d94:	9129e484 	add	x4, x4, #0xa79
/home/pedro/devel/optee/optee_examples/HCEMobile/ta/dbstore_ta.c:470
     d98:	910003fd 	mov	x29, sp
     d9c:	a90153f3 	stp	x19, x20, [sp,#16]
/home/pedro/devel/optee/optee_examples/HCEMobile/ta/dbstore_ta.c:476
     da0:	f0000053 	adrp	x19, b000 <__mpa_mpanum_to_hexstr+0xb0>
     da4:	91240273 	add	x19, x19, #0x900
/home/pedro/devel/optee/optee_examples/HCEMobile/ta/dbstore_ta.c:470
     da8:	2a0003f4 	mov	w20, w0
/home/pedro/devel/optee/optee_examples/HCEMobile/ta/dbstore_ta.c:476
     dac:	91026273 	add	x19, x19, #0x98
     db0:	52800062 	mov	w2, #0x3                   	// #3
     db4:	aa1303e0 	mov	x0, x19
     db8:	52803b81 	mov	w1, #0x1dc                 	// #476
     dbc:	94001b0c 	bl	79ec <trace_printf>
/home/pedro/devel/optee/optee_examples/HCEMobile/ta/dbstore_ta.c:479
     dc0:	129fff20 	mov	w0, #0xffff0006            	// #-65530
/home/pedro/devel/optee/optee_examples/HCEMobile/ta/dbstore_ta.c:478
     dc4:	35000134 	cbnz	w20, de8 <TA_OpenSessionEntryPoint+0x60>
/home/pedro/devel/optee/optee_examples/HCEMobile/ta/dbstore_ta.c:489
     dc8:	aa1303e0 	mov	x0, x19
     dcc:	90000064 	adrp	x4, c000 <PRIME_TABLE+0x450>
     dd0:	52800023 	mov	w3, #0x1                   	// #1
     dd4:	91345884 	add	x4, x4, #0xd16
     dd8:	52800042 	mov	w2, #0x2                   	// #2
     ddc:	52803d21 	mov	w1, #0x1e9                 	// #489
     de0:	94001b03 	bl	79ec <trace_printf>
/home/pedro/devel/optee/optee_examples/HCEMobile/ta/dbstore_ta.c:492
     de4:	52800000 	mov	w0, #0x0                   	// #0
/home/pedro/devel/optee/optee_examples/HCEMobile/ta/dbstore_ta.c:493
     de8:	a94153f3 	ldp	x19, x20, [sp,#16]
     dec:	a8c27bfd 	ldp	x29, x30, [sp],#32
     df0:	d65f03c0 	ret

0000000000000df4 <TA_CloseSessionEntryPoint>:
TA_CloseSessionEntryPoint():
/home/pedro/devel/optee/optee_examples/HCEMobile/ta/dbstore_ta.c:502
     df4:	f0000040 	adrp	x0, b000 <__mpa_mpanum_to_hexstr+0xb0>
     df8:	91240000 	add	x0, x0, #0x900
     dfc:	90000064 	adrp	x4, c000 <PRIME_TABLE+0x450>
     e00:	52800023 	mov	w3, #0x1                   	// #1
     e04:	9134e484 	add	x4, x4, #0xd39
     e08:	52800042 	mov	w2, #0x2                   	// #2
     e0c:	52803ec1 	mov	w1, #0x1f6                 	// #502
     e10:	9102e000 	add	x0, x0, #0xb8
     e14:	14001af6 	b	79ec <trace_printf>

0000000000000e18 <TA_InvokeCommandEntryPoint>:
TA_InvokeCommandEntryPoint():
/home/pedro/devel/optee/optee_examples/HCEMobile/ta/dbstore_ta.c:717
     e18:	a9b77bfd 	stp	x29, x30, [sp,#-144]!
     e1c:	910003fd 	mov	x29, sp
     e20:	a9025bf5 	stp	x21, x22, [sp,#32]
     e24:	aa0303f6 	mov	x22, x3
     e28:	f90023f9 	str	x25, [sp,#64]
     e2c:	2a0203f9 	mov	w25, w2
     e30:	a90153f3 	stp	x19, x20, [sp,#16]
     e34:	a90363f7 	stp	x23, x24, [sp,#48]
/home/pedro/devel/optee/optee_examples/HCEMobile/ta/dbstore_ta.c:720
     e38:	340000c1 	cbz	w1, e50 <TA_InvokeCommandEntryPoint+0x38>
     e3c:	2a0103f4 	mov	w20, w1
     e40:	7100043f 	cmp	w1, #0x1
     e44:	54000180 	b.eq	e74 <TA_InvokeCommandEntryPoint+0x5c>
/home/pedro/devel/optee/optee_examples/HCEMobile/ta/dbstore_ta.c:726
     e48:	129fff20 	mov	w0, #0xffff0006            	// #-65530
     e4c:	14000004 	b	e5c <TA_InvokeCommandEntryPoint+0x44>
/home/pedro/devel/optee/optee_examples/HCEMobile/ta/dbstore_ta.c:722
     e50:	aa0303e1 	mov	x1, x3
     e54:	2a0203e0 	mov	w0, w2
     e58:	97fffe26 	bl	6f0 <init>
/home/pedro/devel/optee/optee_examples/HCEMobile/ta/dbstore_ta.c:728
     e5c:	a94153f3 	ldp	x19, x20, [sp,#16]
     e60:	a9425bf5 	ldp	x21, x22, [sp,#32]
     e64:	a94363f7 	ldp	x23, x24, [sp,#48]
     e68:	f94023f9 	ldr	x25, [sp,#64]
     e6c:	a8c97bfd 	ldp	x29, x30, [sp],#144
     e70:	d65f03c0 	ret
inv():
/home/pedro/devel/optee/optee_examples/HCEMobile/ta/dbstore_ta.c:638
     e74:	52800001 	mov	w1, #0x0                   	// #0
     e78:	52800400 	mov	w0, #0x20                  	// #32
/home/pedro/devel/optee/optee_examples/HCEMobile/ta/dbstore_ta.c:641
     e7c:	f0000053 	adrp	x19, b000 <__mpa_mpanum_to_hexstr+0xb0>
/home/pedro/devel/optee/optee_examples/HCEMobile/ta/dbstore_ta.c:633
     e80:	290b53bf 	stp	wzr, w20, [x29,#88]
/home/pedro/devel/optee/optee_examples/HCEMobile/ta/dbstore_ta.c:641
     e84:	91240275 	add	x21, x19, #0x900
/home/pedro/devel/optee/optee_examples/HCEMobile/ta/dbstore_ta.c:638
     e88:	940001d1 	bl	15cc <TEE_Malloc>
/home/pedro/devel/optee/optee_examples/HCEMobile/ta/dbstore_ta.c:639
     e8c:	52800001 	mov	w1, #0x0                   	// #0
/home/pedro/devel/optee/optee_examples/HCEMobile/ta/dbstore_ta.c:641
     e90:	910362b5 	add	x21, x21, #0xd8
/home/pedro/devel/optee/optee_examples/HCEMobile/ta/dbstore_ta.c:638
     e94:	aa0003f8 	mov	x24, x0
/home/pedro/devel/optee/optee_examples/HCEMobile/ta/dbstore_ta.c:639
     e98:	52800400 	mov	w0, #0x20                  	// #32
     e9c:	940001cc 	bl	15cc <TEE_Malloc>
     ea0:	aa0003f7 	mov	x23, x0
/home/pedro/devel/optee/optee_examples/HCEMobile/ta/dbstore_ta.c:641
     ea4:	90000064 	adrp	x4, c000 <PRIME_TABLE+0x450>
     ea8:	2a1403e3 	mov	w3, w20
     eac:	9129e484 	add	x4, x4, #0xa79
     eb0:	52800062 	mov	w2, #0x3                   	// #3
     eb4:	52805021 	mov	w1, #0x281                 	// #641
     eb8:	aa1503e0 	mov	x0, x21
     ebc:	94001acc 	bl	79ec <trace_printf>
/home/pedro/devel/optee/optee_examples/HCEMobile/ta/dbstore_ta.c:643
     ec0:	7115573f 	cmp	w25, #0x555
     ec4:	54000160 	b.eq	ef0 <TA_InvokeCommandEntryPoint+0xd8>
/home/pedro/devel/optee/optee_examples/HCEMobile/ta/dbstore_ta.c:646
     ec8:	f94002c5 	ldr	x5, [x22]
     ecc:	90000064 	adrp	x4, c000 <PRIME_TABLE+0x450>
     ed0:	f9400ac6 	ldr	x6, [x22,#16]
     ed4:	91352884 	add	x4, x4, #0xd4a
     ed8:	f94012c7 	ldr	x7, [x22,#32]
     edc:	2a1403e3 	mov	w3, w20
     ee0:	52800042 	mov	w2, #0x2                   	// #2
     ee4:	528050e1 	mov	w1, #0x287                 	// #647
     ee8:	aa1503e0 	mov	x0, x21
     eec:	94001ac0 	bl	79ec <trace_printf>
/home/pedro/devel/optee/optee_examples/HCEMobile/ta/dbstore_ta.c:650
     ef0:	91240273 	add	x19, x19, #0x900
/home/pedro/devel/optee/optee_examples/HCEMobile/ta/dbstore_ta.c:651
     ef4:	9101a3b5 	add	x21, x29, #0x68
/home/pedro/devel/optee/optee_examples/HCEMobile/ta/dbstore_ta.c:650
     ef8:	91036273 	add	x19, x19, #0xd8
     efc:	52800023 	mov	w3, #0x1                   	// #1
     f00:	52800042 	mov	w2, #0x2                   	// #2
     f04:	52805141 	mov	w1, #0x28a                 	// #650
     f08:	aa1303e0 	mov	x0, x19
     f0c:	90000064 	adrp	x4, c000 <PRIME_TABLE+0x450>
     f10:	9135c484 	add	x4, x4, #0xd71
     f14:	94001ab6 	bl	79ec <trace_printf>
/home/pedro/devel/optee/optee_examples/HCEMobile/ta/dbstore_ta.c:651
     f18:	aa1503e4 	mov	x4, x21
     f1c:	52800063 	mov	w3, #0x3                   	// #3
     f20:	52800082 	mov	w2, #0x4                   	// #4
     f24:	910163a1 	add	x1, x29, #0x58
     f28:	52800020 	mov	w0, #0x1                   	// #1
     f2c:	94000373 	bl	1cf8 <TEE_OpenPersistentObject>
/home/pedro/devel/optee/optee_examples/HCEMobile/ta/dbstore_ta.c:655
     f30:	f94037a0 	ldr	x0, [x29,#104]
     f34:	9101c3b4 	add	x20, x29, #0x70
     f38:	910153b9 	add	x25, x29, #0x54
     f3c:	aa1403e1 	mov	x1, x20
     f40:	aa1903e3 	mov	x3, x25
     f44:	52800202 	mov	w2, #0x10                  	// #16
     f48:	9400045b 	bl	20b4 <TEE_ReadObjectData>
/home/pedro/devel/optee/optee_examples/HCEMobile/ta/dbstore_ta.c:656
     f4c:	aa1403e5 	mov	x5, x20
     f50:	52800023 	mov	w3, #0x1                   	// #1
     f54:	52800042 	mov	w2, #0x2                   	// #2
     f58:	52805201 	mov	w1, #0x290                 	// #656
     f5c:	aa1303e0 	mov	x0, x19
     f60:	90000064 	adrp	x4, c000 <PRIME_TABLE+0x450>
     f64:	91365484 	add	x4, x4, #0xd95
     f68:	94001aa1 	bl	79ec <trace_printf>
/home/pedro/devel/optee/optee_examples/HCEMobile/ta/dbstore_ta.c:657
     f6c:	f94037a0 	ldr	x0, [x29,#104]
     f70:	9400025b 	bl	18dc <TEE_CloseObject>
/home/pedro/devel/optee/optee_examples/HCEMobile/ta/dbstore_ta.c:659
     f74:	aa1503e4 	mov	x4, x21
     f78:	52800063 	mov	w3, #0x3                   	// #3
     f7c:	52800082 	mov	w2, #0x4                   	// #4
     f80:	910173a1 	add	x1, x29, #0x5c
     f84:	52800020 	mov	w0, #0x1                   	// #1
     f88:	9400035c 	bl	1cf8 <TEE_OpenPersistentObject>
/home/pedro/devel/optee/optee_examples/HCEMobile/ta/dbstore_ta.c:663
     f8c:	f94037a0 	ldr	x0, [x29,#104]
     f90:	910203b5 	add	x21, x29, #0x80
     f94:	aa1903e3 	mov	x3, x25
     f98:	52800202 	mov	w2, #0x10                  	// #16
     f9c:	aa1503e1 	mov	x1, x21
/home/pedro/devel/optee/optee_examples/HCEMobile/ta/dbstore_ta.c:671
     fa0:	aa1603f9 	mov	x25, x22
/home/pedro/devel/optee/optee_examples/HCEMobile/ta/dbstore_ta.c:663
     fa4:	94000444 	bl	20b4 <TEE_ReadObjectData>
/home/pedro/devel/optee/optee_examples/HCEMobile/ta/dbstore_ta.c:664
     fa8:	aa1503e5 	mov	x5, x21
     fac:	52800023 	mov	w3, #0x1                   	// #1
     fb0:	52800042 	mov	w2, #0x2                   	// #2
     fb4:	52805301 	mov	w1, #0x298                 	// #664
     fb8:	aa1303e0 	mov	x0, x19
     fbc:	90000064 	adrp	x4, c000 <PRIME_TABLE+0x450>
     fc0:	91372084 	add	x4, x4, #0xdc8
     fc4:	94001a8a 	bl	79ec <trace_printf>
/home/pedro/devel/optee/optee_examples/HCEMobile/ta/dbstore_ta.c:665
     fc8:	f94037a0 	ldr	x0, [x29,#104]
     fcc:	94000244 	bl	18dc <TEE_CloseObject>
/home/pedro/devel/optee/optee_examples/HCEMobile/ta/dbstore_ta.c:669
     fd0:	52800023 	mov	w3, #0x1                   	// #1
     fd4:	52800042 	mov	w2, #0x2                   	// #2
     fd8:	528053a1 	mov	w1, #0x29d                 	// #669
     fdc:	aa1303e0 	mov	x0, x19
     fe0:	90000064 	adrp	x4, c000 <PRIME_TABLE+0x450>
     fe4:	9137c884 	add	x4, x4, #0xdf2
     fe8:	94001a81 	bl	79ec <trace_printf>
/home/pedro/devel/optee/optee_examples/HCEMobile/ta/dbstore_ta.c:670
     fec:	b9400ac5 	ldr	w5, [x22,#8]
     ff0:	52800023 	mov	w3, #0x1                   	// #1
     ff4:	52800042 	mov	w2, #0x2                   	// #2
     ff8:	528053c1 	mov	w1, #0x29e                 	// #670
     ffc:	aa1303e0 	mov	x0, x19
    1000:	f0000044 	adrp	x4, c000 <PRIME_TABLE+0x450>
    1004:	9138c084 	add	x4, x4, #0xe30
    1008:	94001a79 	bl	79ec <trace_printf>
/home/pedro/devel/optee/optee_examples/HCEMobile/ta/dbstore_ta.c:671
    100c:	f8410720 	ldr	x0, [x25],#16
    1010:	aa1403e4 	mov	x4, x20
    1014:	b9400ac1 	ldr	w1, [x22,#8]
    1018:	aa1503e5 	mov	x5, x21
    101c:	910183a3 	add	x3, x29, #0x60
    1020:	aa1803e2 	mov	x2, x24
    1024:	97fffeae 	bl	adc <decrypt_aes_ctr>
/home/pedro/devel/optee/optee_examples/HCEMobile/ta/dbstore_ta.c:673
    1028:	aa1803e5 	mov	x5, x24
    102c:	52800023 	mov	w3, #0x1                   	// #1
    1030:	52800042 	mov	w2, #0x2                   	// #2
    1034:	52805421 	mov	w1, #0x2a1                 	// #673
    1038:	aa1303e0 	mov	x0, x19
    103c:	f0000044 	adrp	x4, c000 <PRIME_TABLE+0x450>
    1040:	91391484 	add	x4, x4, #0xe45
    1044:	94001a6a 	bl	79ec <trace_printf>
/home/pedro/devel/optee/optee_examples/HCEMobile/ta/dbstore_ta.c:675
    1048:	52800023 	mov	w3, #0x1                   	// #1
    104c:	52800042 	mov	w2, #0x2                   	// #2
    1050:	52805461 	mov	w1, #0x2a3                 	// #675
    1054:	aa1303e0 	mov	x0, x19
    1058:	f0000044 	adrp	x4, c000 <PRIME_TABLE+0x450>
    105c:	91398484 	add	x4, x4, #0xe61
    1060:	94001a63 	bl	79ec <trace_printf>
/home/pedro/devel/optee/optee_examples/HCEMobile/ta/dbstore_ta.c:676
    1064:	b9400b21 	ldr	w1, [x25,#8]
    1068:	aa1403e4 	mov	x4, x20
    106c:	f9400ac0 	ldr	x0, [x22,#16]
    1070:	aa1503e5 	mov	x5, x21
    1074:	910193a3 	add	x3, x29, #0x64
    1078:	aa1703e2 	mov	x2, x23
    107c:	97fffe98 	bl	adc <decrypt_aes_ctr>
/home/pedro/devel/optee/optee_examples/HCEMobile/ta/dbstore_ta.c:678
    1080:	aa1703e5 	mov	x5, x23
    1084:	f0000044 	adrp	x4, c000 <PRIME_TABLE+0x450>
    1088:	913a8484 	add	x4, x4, #0xea1
    108c:	52800023 	mov	w3, #0x1                   	// #1
    1090:	52800042 	mov	w2, #0x2                   	// #2
    1094:	528054c1 	mov	w1, #0x2a6                 	// #678
    1098:	aa1303e0 	mov	x0, x19
    109c:	94001a54 	bl	79ec <trace_printf>
/home/pedro/devel/optee/optee_examples/HCEMobile/ta/dbstore_ta.c:683
    10a0:	52800001 	mov	w1, #0x0                   	// #0
    10a4:	52800120 	mov	w0, #0x9                   	// #9
    10a8:	94000149 	bl	15cc <TEE_Malloc>
    10ac:	aa0003f4 	mov	x20, x0
/home/pedro/devel/optee/optee_examples/HCEMobile/ta/dbstore_ta.c:684
    10b0:	52800122 	mov	w2, #0x9                   	// #9
    10b4:	f0000041 	adrp	x1, c000 <PRIME_TABLE+0x450>
    10b8:	913afc21 	add	x1, x1, #0xebf
    10bc:	940000eb 	bl	1468 <TEE_MemMove>
/home/pedro/devel/optee/optee_examples/HCEMobile/ta/dbstore_ta.c:685
    10c0:	f94002c0 	ldr	x0, [x22]
    10c4:	52800122 	mov	w2, #0x9                   	// #9
    10c8:	aa1403e1 	mov	x1, x20
    10cc:	940000e7 	bl	1468 <TEE_MemMove>
/home/pedro/devel/optee/optee_examples/HCEMobile/ta/dbstore_ta.c:689
    10d0:	52800001 	mov	w1, #0x0                   	// #0
    10d4:	528000e0 	mov	w0, #0x7                   	// #7
    10d8:	9400013d 	bl	15cc <TEE_Malloc>
    10dc:	aa0003f4 	mov	x20, x0
/home/pedro/devel/optee/optee_examples/HCEMobile/ta/dbstore_ta.c:690
    10e0:	528000e2 	mov	w2, #0x7                   	// #7
    10e4:	f0000041 	adrp	x1, c000 <PRIME_TABLE+0x450>
    10e8:	913b2421 	add	x1, x1, #0xec9
    10ec:	940000df 	bl	1468 <TEE_MemMove>
/home/pedro/devel/optee/optee_examples/HCEMobile/ta/dbstore_ta.c:691
    10f0:	f9400ac0 	ldr	x0, [x22,#16]
    10f4:	528000e2 	mov	w2, #0x7                   	// #7
    10f8:	aa1403e1 	mov	x1, x20
    10fc:	940000db 	bl	1468 <TEE_MemMove>
/home/pedro/devel/optee/optee_examples/HCEMobile/ta/dbstore_ta.c:695
    1100:	52800001 	mov	w1, #0x0                   	// #0
    1104:	52800100 	mov	w0, #0x8                   	// #8
    1108:	94000131 	bl	15cc <TEE_Malloc>
    110c:	aa0003f4 	mov	x20, x0
/home/pedro/devel/optee/optee_examples/HCEMobile/ta/dbstore_ta.c:696
    1110:	52800102 	mov	w2, #0x8                   	// #8
    1114:	f0000041 	adrp	x1, c000 <PRIME_TABLE+0x450>
    1118:	913b4421 	add	x1, x1, #0xed1
    111c:	940000d3 	bl	1468 <TEE_MemMove>
/home/pedro/devel/optee/optee_examples/HCEMobile/ta/dbstore_ta.c:697
    1120:	f94012c0 	ldr	x0, [x22,#32]
    1124:	52800102 	mov	w2, #0x8                   	// #8
    1128:	aa1403e1 	mov	x1, x20
    112c:	940000cf 	bl	1468 <TEE_MemMove>
/home/pedro/devel/optee/optee_examples/HCEMobile/ta/dbstore_ta.c:699
    1130:	f94002c5 	ldr	x5, [x22]
    1134:	aa1303e0 	mov	x0, x19
    1138:	f9400ac6 	ldr	x6, [x22,#16]
    113c:	f0000044 	adrp	x4, c000 <PRIME_TABLE+0x450>
    1140:	f94012c7 	ldr	x7, [x22,#32]
    1144:	913b6884 	add	x4, x4, #0xeda
    1148:	52800023 	mov	w3, #0x1                   	// #1
    114c:	52800042 	mov	w2, #0x2                   	// #2
    1150:	52805781 	mov	w1, #0x2bc                 	// #700
    1154:	94001a26 	bl	79ec <trace_printf>
TA_InvokeCommandEntryPoint():
/home/pedro/devel/optee/optee_examples/HCEMobile/ta/dbstore_ta.c:724
    1158:	52800000 	mov	w0, #0x0                   	// #0
    115c:	17ffff40 	b	e5c <TA_InvokeCommandEntryPoint+0x44>

0000000000001160 <tahead_get_trace_level>:
tahead_get_trace_level():
/home/pedro/devel/optee/optee_os/out/arm/export-ta_arm64/src/user_ta_header.c:130
    1160:	52800080 	mov	w0, #0x4                   	// #4
    1164:	d65f03c0 	ret

0000000000001168 <__utee_from_param>:
__utee_from_param():
/home/pedro/devel/optee/optee_os/lib/libutee/tee_api.c:48
    1168:	f0000045 	adrp	x5, c000 <PRIME_TABLE+0x450>
    116c:	912410a5 	add	x5, x5, #0x904
/home/pedro/devel/optee/optee_os/lib/libutee/tee_api.c:46
    1170:	2a0103e3 	mov	w3, w1
    1174:	52800004 	mov	w4, #0x0                   	// #0
    1178:	f8008403 	str	x3, [x0],#8
/home/pedro/devel/optee/optee_os/lib/libutee/tee_api.c:48
    117c:	1ac42423 	lsr	w3, w1, w4
    1180:	12000c63 	and	w3, w3, #0xf
    1184:	51000463 	sub	w3, w3, #0x1
    1188:	7100187f 	cmp	w3, #0x6
    118c:	54000268 	b.hi	11d8 <__utee_from_param+0x70>
    1190:	386348a3 	ldrb	w3, [x5,w3,uxtw]
    1194:	10000066 	adr	x6, 11a0 <__utee_from_param+0x38>
    1198:	8b2388c3 	add	x3, x6, w3, sxtb #2
    119c:	d61f0060 	br	x3
/home/pedro/devel/optee/optee_os/lib/libutee/tee_api.c:52
    11a0:	b9400043 	ldr	w3, [x2]
    11a4:	f9000003 	str	x3, [x0]
/home/pedro/devel/optee/optee_os/lib/libutee/tee_api.c:53
    11a8:	b9400443 	ldr	w3, [x2,#4]
/home/pedro/devel/optee/optee_os/lib/libutee/tee_api.c:59
    11ac:	f9000403 	str	x3, [x0,#8]
    11b0:	11001084 	add	w4, w4, #0x4
    11b4:	91004042 	add	x2, x2, #0x10
    11b8:	91004000 	add	x0, x0, #0x10
/home/pedro/devel/optee/optee_os/lib/libutee/tee_api.c:47 (discriminator 2)
    11bc:	7100409f 	cmp	w4, #0x10
    11c0:	54fffde1 	b.ne	117c <__utee_from_param+0x14>
/home/pedro/devel/optee/optee_os/lib/libutee/tee_api.c:67
    11c4:	d65f03c0 	ret
/home/pedro/devel/optee/optee_os/lib/libutee/tee_api.c:58
    11c8:	f9400043 	ldr	x3, [x2]
    11cc:	f9000003 	str	x3, [x0]
/home/pedro/devel/optee/optee_os/lib/libutee/tee_api.c:59
    11d0:	b9400843 	ldr	w3, [x2,#8]
    11d4:	17fffff6 	b	11ac <__utee_from_param+0x44>
/home/pedro/devel/optee/optee_os/lib/libutee/tee_api.c:63
    11d8:	a9007c1f 	stp	xzr, xzr, [x0]
/home/pedro/devel/optee/optee_os/lib/libutee/tee_api.c:64
    11dc:	17fffff5 	b	11b0 <__utee_from_param+0x48>

00000000000011e0 <__utee_to_param>:
__utee_to_param():
/home/pedro/devel/optee/optee_os/lib/libutee/tee_api.c:73
    11e0:	f8408446 	ldr	x6, [x2],#8
/home/pedro/devel/optee/optee_os/lib/libutee/tee_api.c:79
    11e4:	f0000045 	adrp	x5, c000 <PRIME_TABLE+0x450>
    11e8:	912430a5 	add	x5, x5, #0x90c
/home/pedro/devel/optee/optee_os/lib/libutee/tee_api.c:73
    11ec:	52800004 	mov	w4, #0x0                   	// #0
    11f0:	2a0603e9 	mov	w9, w6
/home/pedro/devel/optee/optee_os/lib/libutee/tee_api.c:79
    11f4:	1ac42523 	lsr	w3, w9, w4
    11f8:	12000c63 	and	w3, w3, #0xf
    11fc:	51000463 	sub	w3, w3, #0x1
    1200:	7100187f 	cmp	w3, #0x6
/home/pedro/devel/optee/optee_os/lib/libutee/tee_api.c:77
    1204:	a9401c48 	ldp	x8, x7, [x2]
/home/pedro/devel/optee/optee_os/lib/libutee/tee_api.c:79
    1208:	540000c8 	b.hi	1220 <__utee_to_param+0x40>
    120c:	386348a3 	ldrb	w3, [x5,w3,uxtw]
    1210:	1000006a 	adr	x10, 121c <__utee_to_param+0x3c>
    1214:	8b238943 	add	x3, x10, w3, sxtb #2
    1218:	d61f0060 	br	x3
/home/pedro/devel/optee/optee_os/lib/libutee/tee_api.c:84
    121c:	29001c08 	stp	w8, w7, [x0]
    1220:	11001084 	add	w4, w4, #0x4
    1224:	91004042 	add	x2, x2, #0x10
    1228:	91004000 	add	x0, x0, #0x10
/home/pedro/devel/optee/optee_os/lib/libutee/tee_api.c:75 (discriminator 2)
    122c:	7100409f 	cmp	w4, #0x10
    1230:	54fffe21 	b.ne	11f4 <__utee_to_param+0x14>
/home/pedro/devel/optee/optee_os/lib/libutee/tee_api.c:97
    1234:	b4000041 	cbz	x1, 123c <__utee_to_param+0x5c>
/home/pedro/devel/optee/optee_os/lib/libutee/tee_api.c:98
    1238:	b9000026 	str	w6, [x1]
    123c:	d65f03c0 	ret
/home/pedro/devel/optee/optee_os/lib/libutee/tee_api.c:89
    1240:	f9000008 	str	x8, [x0]
/home/pedro/devel/optee/optee_os/lib/libutee/tee_api.c:90
    1244:	b9000807 	str	w7, [x0,#8]
/home/pedro/devel/optee/optee_os/lib/libutee/tee_api.c:91
    1248:	17fffff6 	b	1220 <__utee_to_param+0x40>

000000000000124c <TEE_OpenTASession>:
TEE_OpenTASession():
/home/pedro/devel/optee/optee_os/lib/libutee/tee_api.c:107
    124c:	a9b77bfd 	stp	x29, x30, [sp,#-144]!
    1250:	910003fd 	mov	x29, sp
    1254:	a90153f3 	stp	x19, x20, [sp,#16]
/home/pedro/devel/optee/optee_os/lib/libutee/tee_api.c:112
    1258:	910123b3 	add	x19, x29, #0x48
/home/pedro/devel/optee/optee_os/lib/libutee/tee_api.c:107
    125c:	a9025bf5 	stp	x21, x22, [sp,#32]
    1260:	aa0303f4 	mov	x20, x3
    1264:	a90363f7 	stp	x23, x24, [sp,#48]
    1268:	aa0003f6 	mov	x22, x0
    126c:	aa0503f8 	mov	x24, x5
    1270:	2a0103f7 	mov	w23, w1
    1274:	aa0403f5 	mov	x21, x4
    1278:	2a0203e1 	mov	w1, w2
/home/pedro/devel/optee/optee_os/lib/libutee/tee_api.c:112
    127c:	aa1303e0 	mov	x0, x19
    1280:	aa0303e2 	mov	x2, x3
    1284:	97ffffb9 	bl	1168 <__utee_from_param>
/home/pedro/devel/optee/optee_os/lib/libutee/tee_api.c:113
    1288:	aa1803e4 	mov	x4, x24
    128c:	910113a3 	add	x3, x29, #0x44
    1290:	aa1303e2 	mov	x2, x19
    1294:	2a1703e1 	mov	w1, w23
    1298:	aa1603e0 	mov	x0, x22
    129c:	94000dc9 	bl	49c0 <utee_open_ta_session>
/home/pedro/devel/optee/optee_os/lib/libutee/tee_api.c:115
    12a0:	aa1303e2 	mov	x2, x19
/home/pedro/devel/optee/optee_os/lib/libutee/tee_api.c:113
    12a4:	2a0003f6 	mov	w22, w0
/home/pedro/devel/optee/optee_os/lib/libutee/tee_api.c:115
    12a8:	d2800001 	mov	x1, #0x0                   	// #0
    12ac:	aa1403e0 	mov	x0, x20
    12b0:	97ffffcc 	bl	11e0 <__utee_to_param>
/home/pedro/devel/optee/optee_os/lib/libutee/tee_api.c:121
    12b4:	34000056 	cbz	w22, 12bc <TEE_OpenTASession+0x70>
/home/pedro/devel/optee/optee_os/lib/libutee/tee_api.c:122
    12b8:	b90047bf 	str	wzr, [x29,#68]
/home/pedro/devel/optee/optee_os/lib/libutee/tee_api.c:124
    12bc:	b94047a0 	ldr	w0, [x29,#68]
/home/pedro/devel/optee/optee_os/lib/libutee/tee_api.c:126
    12c0:	a94153f3 	ldp	x19, x20, [sp,#16]
    12c4:	a94363f7 	ldp	x23, x24, [sp,#48]
/home/pedro/devel/optee/optee_os/lib/libutee/tee_api.c:124
    12c8:	f90002a0 	str	x0, [x21]
/home/pedro/devel/optee/optee_os/lib/libutee/tee_api.c:126
    12cc:	2a1603e0 	mov	w0, w22
    12d0:	a9425bf5 	ldp	x21, x22, [sp,#32]
    12d4:	a8c97bfd 	ldp	x29, x30, [sp],#144
    12d8:	d65f03c0 	ret

00000000000012dc <TEE_CloseTASession>:
TEE_CloseTASession():
/home/pedro/devel/optee/optee_os/lib/libutee/tee_api.c:130
    12dc:	b4000120 	cbz	x0, 1300 <TEE_CloseTASession+0x24>
/home/pedro/devel/optee/optee_os/lib/libutee/tee_api.c:129
    12e0:	a9bf7bfd 	stp	x29, x30, [sp,#-16]!
    12e4:	910003fd 	mov	x29, sp
/home/pedro/devel/optee/optee_os/lib/libutee/tee_api.c:131
    12e8:	94000db9 	bl	49cc <utee_close_ta_session>
/home/pedro/devel/optee/optee_os/lib/libutee/tee_api.c:133
    12ec:	34000060 	cbz	w0, 12f8 <TEE_CloseTASession+0x1c>
/home/pedro/devel/optee/optee_os/lib/libutee/tee_api.c:136
    12f0:	a8c17bfd 	ldp	x29, x30, [sp],#16
/home/pedro/devel/optee/optee_os/lib/libutee/tee_api.c:134
    12f4:	14000cf1 	b	46b8 <TEE_Panic>
/home/pedro/devel/optee/optee_os/lib/libutee/tee_api.c:136
    12f8:	a8c17bfd 	ldp	x29, x30, [sp],#16
    12fc:	d65f03c0 	ret
    1300:	d65f03c0 	ret

0000000000001304 <TEE_InvokeTACommand>:
TEE_InvokeTACommand():
/home/pedro/devel/optee/optee_os/lib/libutee/tee_api.c:143
    1304:	a9b77bfd 	stp	x29, x30, [sp,#-144]!
    1308:	910003fd 	mov	x29, sp
    130c:	a90153f3 	stp	x19, x20, [sp,#16]
/home/pedro/devel/optee/optee_os/lib/libutee/tee_api.c:148
    1310:	910123b4 	add	x20, x29, #0x48
/home/pedro/devel/optee/optee_os/lib/libutee/tee_api.c:143
    1314:	a9025bf5 	stp	x21, x22, [sp,#32]
    1318:	aa0003f3 	mov	x19, x0
    131c:	a90363f7 	stp	x23, x24, [sp,#48]
    1320:	aa0403f6 	mov	x22, x4
    1324:	aa0503f5 	mov	x21, x5
    1328:	2a0103f7 	mov	w23, w1
    132c:	2a0203f8 	mov	w24, w2
/home/pedro/devel/optee/optee_os/lib/libutee/tee_api.c:148
    1330:	2a0303e1 	mov	w1, w3
    1334:	aa0403e2 	mov	x2, x4
    1338:	aa1403e0 	mov	x0, x20
    133c:	97ffff8b 	bl	1168 <__utee_from_param>
/home/pedro/devel/optee/optee_os/lib/libutee/tee_api.c:149
    1340:	910113a4 	add	x4, x29, #0x44
    1344:	aa1403e3 	mov	x3, x20
    1348:	2a1803e2 	mov	w2, w24
    134c:	2a1703e1 	mov	w1, w23
    1350:	aa1303e0 	mov	x0, x19
    1354:	94000da1 	bl	49d8 <utee_invoke_ta_command>
/home/pedro/devel/optee/optee_os/lib/libutee/tee_api.c:152
    1358:	aa1403e2 	mov	x2, x20
/home/pedro/devel/optee/optee_os/lib/libutee/tee_api.c:149
    135c:	2a0003f3 	mov	w19, w0
/home/pedro/devel/optee/optee_os/lib/libutee/tee_api.c:152
    1360:	d2800001 	mov	x1, #0x0                   	// #0
    1364:	aa1603e0 	mov	x0, x22
    1368:	97ffff9e 	bl	11e0 <__utee_to_param>
    136c:	b94047a0 	ldr	w0, [x29,#68]
/home/pedro/devel/optee/optee_os/lib/libutee/tee_api.c:154
    1370:	b4000055 	cbz	x21, 1378 <TEE_InvokeTACommand+0x74>
/home/pedro/devel/optee/optee_os/lib/libutee/tee_api.c:155
    1374:	b90002a0 	str	w0, [x21]
/home/pedro/devel/optee/optee_os/lib/libutee/tee_api.c:157
    1378:	7100101f 	cmp	w0, #0x4
    137c:	54000120 	b.eq	13a0 <TEE_InvokeTACommand+0x9c>
/home/pedro/devel/optee/optee_os/lib/libutee/tee_api.c:161
    1380:	7100027f 	cmp	w19, #0x0
    1384:	129ffe60 	mov	w0, #0xffff000c            	// #-65524
    1388:	7a401264 	ccmp	w19, w0, #0x4, ne
    138c:	1299fb60 	mov	w0, #0xffff3024            	// #-53212
    1390:	7a401264 	ccmp	w19, w0, #0x4, ne
    1394:	54000060 	b.eq	13a0 <TEE_InvokeTACommand+0x9c>
/home/pedro/devel/optee/optee_os/lib/libutee/tee_api.c:163
    1398:	2a1303e0 	mov	w0, w19
    139c:	94000cc7 	bl	46b8 <TEE_Panic>
/home/pedro/devel/optee/optee_os/lib/libutee/tee_api.c:166
    13a0:	2a1303e0 	mov	w0, w19
    13a4:	a94153f3 	ldp	x19, x20, [sp,#16]
    13a8:	a9425bf5 	ldp	x21, x22, [sp,#32]
    13ac:	a94363f7 	ldp	x23, x24, [sp,#48]
    13b0:	a8c97bfd 	ldp	x29, x30, [sp],#144
    13b4:	d65f03c0 	ret

00000000000013b8 <TEE_GetCancellationFlag>:
TEE_GetCancellationFlag():
/home/pedro/devel/optee/optee_os/lib/libutee/tee_api.c:171
    13b8:	a9be7bfd 	stp	x29, x30, [sp,#-32]!
    13bc:	910003fd 	mov	x29, sp
/home/pedro/devel/optee/optee_os/lib/libutee/tee_api.c:173
    13c0:	910073a0 	add	x0, x29, #0x1c
    13c4:	94000d88 	bl	49e4 <utee_get_cancellation_flag>
/home/pedro/devel/optee/optee_os/lib/libutee/tee_api.c:175
    13c8:	34000040 	cbz	w0, 13d0 <TEE_GetCancellationFlag+0x18>
/home/pedro/devel/optee/optee_os/lib/libutee/tee_api.c:176
    13cc:	b9001fbf 	str	wzr, [x29,#28]
/home/pedro/devel/optee/optee_os/lib/libutee/tee_api.c:177
    13d0:	b9401fa0 	ldr	w0, [x29,#28]
/home/pedro/devel/optee/optee_os/lib/libutee/tee_api.c:178
    13d4:	a8c27bfd 	ldp	x29, x30, [sp],#32
/home/pedro/devel/optee/optee_os/lib/libutee/tee_api.c:177
    13d8:	7100001f 	cmp	w0, #0x0
/home/pedro/devel/optee/optee_os/lib/libutee/tee_api.c:178
    13dc:	1a9f07e0 	cset	w0, ne
    13e0:	d65f03c0 	ret

00000000000013e4 <TEE_UnmaskCancellation>:
TEE_UnmaskCancellation():
/home/pedro/devel/optee/optee_os/lib/libutee/tee_api.c:181
    13e4:	a9be7bfd 	stp	x29, x30, [sp,#-32]!
    13e8:	910003fd 	mov	x29, sp
/home/pedro/devel/optee/optee_os/lib/libutee/tee_api.c:183
    13ec:	910073a0 	add	x0, x29, #0x1c
    13f0:	94000d83 	bl	49fc <utee_unmask_cancellation>
/home/pedro/devel/optee/optee_os/lib/libutee/tee_api.c:185
    13f4:	34000040 	cbz	w0, 13fc <TEE_UnmaskCancellation+0x18>
/home/pedro/devel/optee/optee_os/lib/libutee/tee_api.c:186
    13f8:	94000cb0 	bl	46b8 <TEE_Panic>
/home/pedro/devel/optee/optee_os/lib/libutee/tee_api.c:187
    13fc:	b9401fa0 	ldr	w0, [x29,#28]
/home/pedro/devel/optee/optee_os/lib/libutee/tee_api.c:188
    1400:	a8c27bfd 	ldp	x29, x30, [sp],#32
/home/pedro/devel/optee/optee_os/lib/libutee/tee_api.c:187
    1404:	7100001f 	cmp	w0, #0x0
/home/pedro/devel/optee/optee_os/lib/libutee/tee_api.c:188
    1408:	1a9f07e0 	cset	w0, ne
    140c:	d65f03c0 	ret

0000000000001410 <TEE_MaskCancellation>:
TEE_MaskCancellation():
/home/pedro/devel/optee/optee_os/lib/libutee/tee_api.c:191
    1410:	a9be7bfd 	stp	x29, x30, [sp,#-32]!
    1414:	910003fd 	mov	x29, sp
/home/pedro/devel/optee/optee_os/lib/libutee/tee_api.c:193
    1418:	910073a0 	add	x0, x29, #0x1c
    141c:	94000d7b 	bl	4a08 <utee_mask_cancellation>
/home/pedro/devel/optee/optee_os/lib/libutee/tee_api.c:195
    1420:	34000040 	cbz	w0, 1428 <TEE_MaskCancellation+0x18>
/home/pedro/devel/optee/optee_os/lib/libutee/tee_api.c:196
    1424:	94000ca5 	bl	46b8 <TEE_Panic>
/home/pedro/devel/optee/optee_os/lib/libutee/tee_api.c:197
    1428:	b9401fa0 	ldr	w0, [x29,#28]
/home/pedro/devel/optee/optee_os/lib/libutee/tee_api.c:198
    142c:	a8c27bfd 	ldp	x29, x30, [sp],#32
/home/pedro/devel/optee/optee_os/lib/libutee/tee_api.c:197
    1430:	7100001f 	cmp	w0, #0x0
/home/pedro/devel/optee/optee_os/lib/libutee/tee_api.c:198
    1434:	1a9f07e0 	cset	w0, ne
    1438:	d65f03c0 	ret

000000000000143c <TEE_CheckMemoryAccessRights>:
TEE_CheckMemoryAccessRights():
/home/pedro/devel/optee/optee_os/lib/libutee/tee_api.c:207
    143c:	34000062 	cbz	w2, 1448 <TEE_CheckMemoryAccessRights+0xc>
/home/pedro/devel/optee/optee_os/lib/libutee/tee_api.c:211
    1440:	2a0203e2 	mov	w2, w2
    1444:	14000d6b 	b	49f0 <utee_check_access_rights>
/home/pedro/devel/optee/optee_os/lib/libutee/tee_api.c:223
    1448:	52800000 	mov	w0, #0x0                   	// #0
    144c:	d65f03c0 	ret

0000000000001450 <TEE_SetInstanceData>:
TEE_SetInstanceData():
/home/pedro/devel/optee/optee_os/lib/libutee/tee_api.c:227
    1450:	b00000a1 	adrp	x1, 16000 <ta_heap+0x7cc0>
    1454:	f901a020 	str	x0, [x1,#832]
    1458:	d65f03c0 	ret

000000000000145c <TEE_GetInstanceData>:
TEE_GetInstanceData():
/home/pedro/devel/optee/optee_os/lib/libutee/tee_api.c:233
    145c:	b00000a0 	adrp	x0, 16000 <ta_heap+0x7cc0>
    1460:	f941a000 	ldr	x0, [x0,#832]
    1464:	d65f03c0 	ret

0000000000001468 <TEE_MemMove>:
TEE_MemMove():
/home/pedro/devel/optee/optee_os/lib/libutee/tee_api.c:237
    1468:	2a0203e2 	mov	w2, w2
    146c:	14001606 	b	6c84 <memmove>

0000000000001470 <TEE_MemCompare>:
TEE_MemCompare():
/home/pedro/devel/optee/optee_os/lib/libutee/tee_api.c:242
    1470:	2a0203e2 	mov	w2, w2
    1474:	140015ef 	b	6c30 <memcmp>

0000000000001478 <TEE_MemFill>:
TEE_MemFill():
/home/pedro/devel/optee/optee_os/lib/libutee/tee_api.c:247
    1478:	2a0203e2 	mov	w2, w2
    147c:	14001615 	b	6cd0 <memset>

0000000000001480 <TEE_GetSystemTime>:
TEE_GetSystemTime():
/home/pedro/devel/optee/optee_os/lib/libutee/tee_api.c:253
    1480:	a9bf7bfd 	stp	x29, x30, [sp,#-16]!
/home/pedro/devel/optee/optee_os/lib/libutee/tee_api.c:254
    1484:	aa0003e1 	mov	x1, x0
    1488:	d2800000 	mov	x0, #0x0                   	// #0
/home/pedro/devel/optee/optee_os/lib/libutee/tee_api.c:253
    148c:	910003fd 	mov	x29, sp
/home/pedro/devel/optee/optee_os/lib/libutee/tee_api.c:254
    1490:	94000d64 	bl	4a20 <utee_get_time>
/home/pedro/devel/optee/optee_os/lib/libutee/tee_api.c:256
    1494:	34000060 	cbz	w0, 14a0 <TEE_GetSystemTime+0x20>
/home/pedro/devel/optee/optee_os/lib/libutee/tee_api.c:258
    1498:	a8c17bfd 	ldp	x29, x30, [sp],#16
/home/pedro/devel/optee/optee_os/lib/libutee/tee_api.c:257
    149c:	14000c87 	b	46b8 <TEE_Panic>
/home/pedro/devel/optee/optee_os/lib/libutee/tee_api.c:258
    14a0:	a8c17bfd 	ldp	x29, x30, [sp],#16
    14a4:	d65f03c0 	ret

00000000000014a8 <TEE_Wait>:
TEE_Wait():
/home/pedro/devel/optee/optee_os/lib/libutee/tee_api.c:261
    14a8:	a9be7bfd 	stp	x29, x30, [sp,#-32]!
/home/pedro/devel/optee/optee_os/lib/libutee/tee_api.c:262
    14ac:	2a0003e0 	mov	w0, w0
/home/pedro/devel/optee/optee_os/lib/libutee/tee_api.c:261
    14b0:	910003fd 	mov	x29, sp
    14b4:	f9000bf3 	str	x19, [sp,#16]
/home/pedro/devel/optee/optee_os/lib/libutee/tee_api.c:262
    14b8:	94000d57 	bl	4a14 <utee_wait>
/home/pedro/devel/optee/optee_os/lib/libutee/tee_api.c:264
    14bc:	7100001f 	cmp	w0, #0x0
    14c0:	129fffa1 	mov	w1, #0xffff0002            	// #-65534
/home/pedro/devel/optee/optee_os/lib/libutee/tee_api.c:262
    14c4:	2a0003f3 	mov	w19, w0
/home/pedro/devel/optee/optee_os/lib/libutee/tee_api.c:264
    14c8:	7a411004 	ccmp	w0, w1, #0x4, ne
    14cc:	54000040 	b.eq	14d4 <TEE_Wait+0x2c>
/home/pedro/devel/optee/optee_os/lib/libutee/tee_api.c:265
    14d0:	94000c7a 	bl	46b8 <TEE_Panic>
/home/pedro/devel/optee/optee_os/lib/libutee/tee_api.c:268
    14d4:	2a1303e0 	mov	w0, w19
    14d8:	f9400bf3 	ldr	x19, [sp,#16]
    14dc:	a8c27bfd 	ldp	x29, x30, [sp],#32
    14e0:	d65f03c0 	ret

00000000000014e4 <TEE_GetTAPersistentTime>:
TEE_GetTAPersistentTime():
/home/pedro/devel/optee/optee_os/lib/libutee/tee_api.c:271
    14e4:	a9be7bfd 	stp	x29, x30, [sp,#-32]!
/home/pedro/devel/optee/optee_os/lib/libutee/tee_api.c:274
    14e8:	aa0003e1 	mov	x1, x0
/home/pedro/devel/optee/optee_os/lib/libutee/tee_api.c:271
    14ec:	910003fd 	mov	x29, sp
    14f0:	a90153f3 	stp	x19, x20, [sp,#16]
    14f4:	aa0003f4 	mov	x20, x0
/home/pedro/devel/optee/optee_os/lib/libutee/tee_api.c:274
    14f8:	d2800020 	mov	x0, #0x1                   	// #1
    14fc:	94000d49 	bl	4a20 <utee_get_time>
/home/pedro/devel/optee/optee_os/lib/libutee/tee_api.c:276
    1500:	7100001f 	cmp	w0, #0x0
/home/pedro/devel/optee/optee_os/lib/libutee/tee_api.c:274
    1504:	2a0003f3 	mov	w19, w0
/home/pedro/devel/optee/optee_os/lib/libutee/tee_api.c:276
    1508:	1a9f07e1 	cset	w1, ne
    150c:	1299fe00 	mov	w0, #0xffff300f            	// #-53233
    1510:	6b00027f 	cmp	w19, w0
    1514:	1a9f07e0 	cset	w0, ne
    1518:	6a00003f 	tst	w1, w0
    151c:	54000040 	b.eq	1524 <TEE_GetTAPersistentTime+0x40>
/home/pedro/devel/optee/optee_os/lib/libutee/tee_api.c:278
    1520:	29007e9f 	stp	wzr, wzr, [x20]
/home/pedro/devel/optee/optee_os/lib/libutee/tee_api.c:282
    1524:	11402e62 	add	w2, w19, #0xb, lsl #12
    1528:	7100045f 	cmp	w2, #0x1
    152c:	1a9f97e2 	cset	w2, hi
/home/pedro/devel/optee/optee_os/lib/libutee/tee_api.c:281
    1530:	6a02003f 	tst	w1, w2
    1534:	54000100 	b.eq	1554 <TEE_GetTAPersistentTime+0x70>
/home/pedro/devel/optee/optee_os/lib/libutee/tee_api.c:284
    1538:	129ffe61 	mov	w1, #0xffff000c            	// #-65524
    153c:	6b01027f 	cmp	w19, w1
    1540:	1a9f07e1 	cset	w1, ne
    1544:	6a01001f 	tst	w0, w1
    1548:	54000060 	b.eq	1554 <TEE_GetTAPersistentTime+0x70>
/home/pedro/devel/optee/optee_os/lib/libutee/tee_api.c:286
    154c:	2a1303e0 	mov	w0, w19
    1550:	94000c5a 	bl	46b8 <TEE_Panic>
/home/pedro/devel/optee/optee_os/lib/libutee/tee_api.c:289
    1554:	2a1303e0 	mov	w0, w19
    1558:	a94153f3 	ldp	x19, x20, [sp,#16]
    155c:	a8c27bfd 	ldp	x29, x30, [sp],#32
    1560:	d65f03c0 	ret

0000000000001564 <TEE_SetTAPersistentTime>:
TEE_SetTAPersistentTime():
/home/pedro/devel/optee/optee_os/lib/libutee/tee_api.c:292
    1564:	a9be7bfd 	stp	x29, x30, [sp,#-32]!
    1568:	910003fd 	mov	x29, sp
    156c:	f9000bf3 	str	x19, [sp,#16]
/home/pedro/devel/optee/optee_os/lib/libutee/tee_api.c:295
    1570:	94000d2f 	bl	4a2c <utee_set_ta_time>
/home/pedro/devel/optee/optee_os/lib/libutee/tee_api.c:298
    1574:	7100001f 	cmp	w0, #0x0
    1578:	129ffe61 	mov	w1, #0xffff000c            	// #-65524
    157c:	7a411004 	ccmp	w0, w1, #0x4, ne
/home/pedro/devel/optee/optee_os/lib/libutee/tee_api.c:295
    1580:	2a0003f3 	mov	w19, w0
/home/pedro/devel/optee/optee_os/lib/libutee/tee_api.c:298
    1584:	1299f7c1 	mov	w1, #0xffff3041            	// #-53183
    1588:	7a411004 	ccmp	w0, w1, #0x4, ne
    158c:	54000040 	b.eq	1594 <TEE_SetTAPersistentTime+0x30>
/home/pedro/devel/optee/optee_os/lib/libutee/tee_api.c:300
    1590:	94000c4a 	bl	46b8 <TEE_Panic>
/home/pedro/devel/optee/optee_os/lib/libutee/tee_api.c:303
    1594:	2a1303e0 	mov	w0, w19
    1598:	f9400bf3 	ldr	x19, [sp,#16]
    159c:	a8c27bfd 	ldp	x29, x30, [sp],#32
    15a0:	d65f03c0 	ret

00000000000015a4 <TEE_GetREETime>:
TEE_GetREETime():
/home/pedro/devel/optee/optee_os/lib/libutee/tee_api.c:306
    15a4:	a9bf7bfd 	stp	x29, x30, [sp,#-16]!
/home/pedro/devel/optee/optee_os/lib/libutee/tee_api.c:307
    15a8:	aa0003e1 	mov	x1, x0
    15ac:	d2800040 	mov	x0, #0x2                   	// #2
/home/pedro/devel/optee/optee_os/lib/libutee/tee_api.c:306
    15b0:	910003fd 	mov	x29, sp
/home/pedro/devel/optee/optee_os/lib/libutee/tee_api.c:307
    15b4:	94000d1b 	bl	4a20 <utee_get_time>
/home/pedro/devel/optee/optee_os/lib/libutee/tee_api.c:309
    15b8:	34000060 	cbz	w0, 15c4 <TEE_GetREETime+0x20>
/home/pedro/devel/optee/optee_os/lib/libutee/tee_api.c:311
    15bc:	a8c17bfd 	ldp	x29, x30, [sp],#16
/home/pedro/devel/optee/optee_os/lib/libutee/tee_api.c:310
    15c0:	14000c3e 	b	46b8 <TEE_Panic>
/home/pedro/devel/optee/optee_os/lib/libutee/tee_api.c:311
    15c4:	a8c17bfd 	ldp	x29, x30, [sp],#16
    15c8:	d65f03c0 	ret

00000000000015cc <TEE_Malloc>:
TEE_Malloc():
/home/pedro/devel/optee/optee_os/lib/libutee/tee_api.c:315
    15cc:	2a0003e0 	mov	w0, w0
    15d0:	14000e1a 	b	4e38 <tee_user_mem_alloc>

00000000000015d4 <TEE_Realloc>:
TEE_Realloc():
/home/pedro/devel/optee/optee_os/lib/libutee/tee_api.c:324
    15d4:	2a0103e1 	mov	w1, w1
    15d8:	14000ebc 	b	50c8 <tee_user_mem_realloc>

00000000000015dc <TEE_Free>:
TEE_Free():
/home/pedro/devel/optee/optee_os/lib/libutee/tee_api.c:329
    15dc:	14000e6a 	b	4f84 <tee_user_mem_free>

00000000000015e0 <TEE_CacheClean>:
TEE_CacheClean():
/home/pedro/devel/optee/optee_os/lib/libutee/tee_api.c:335
    15e0:	d2800002 	mov	x2, #0x0                   	// #0
    15e4:	14000dba 	b	4ccc <utee_cache_operation>

00000000000015e8 <TEE_CacheFlush>:
TEE_CacheFlush():
/home/pedro/devel/optee/optee_os/lib/libutee/tee_api.c:339
    15e8:	d2800022 	mov	x2, #0x1                   	// #1
    15ec:	14000db8 	b	4ccc <utee_cache_operation>

00000000000015f0 <TEE_CacheInvalidate>:
TEE_CacheInvalidate():
/home/pedro/devel/optee/optee_os/lib/libutee/tee_api.c:344
    15f0:	d2800042 	mov	x2, #0x2                   	// #2
    15f4:	14000db6 	b	4ccc <utee_cache_operation>

00000000000015f8 <__utee_from_attr>:
__utee_from_attr():
/home/pedro/devel/optee/optee_os/lib/libutee/tee_api_objects.c:42
    15f8:	52800303 	mov	w3, #0x18                  	// #24
    15fc:	9ba30442 	umaddl	x2, w2, w3, x1
/home/pedro/devel/optee/optee_os/lib/libutee/tee_api_objects.c:45 (discriminator 1)
    1600:	eb02003f 	cmp	x1, x2
    1604:	54000041 	b.ne	160c <__utee_from_attr+0x14>
/home/pedro/devel/optee/optee_os/lib/libutee/tee_api_objects.c:55
    1608:	d65f03c0 	ret
/home/pedro/devel/optee/optee_os/lib/libutee/tee_api_objects.c:46
    160c:	b9400023 	ldr	w3, [x1]
    1610:	b9001003 	str	w3, [x0,#16]
/home/pedro/devel/optee/optee_os/lib/libutee/tee_api_objects.c:47
    1614:	36e80103 	tbz	w3, #29, 1634 <__utee_from_attr+0x3c>
/home/pedro/devel/optee/optee_os/lib/libutee/tee_api_objects.c:48
    1618:	b9400823 	ldr	w3, [x1,#8]
    161c:	f9000003 	str	x3, [x0]
/home/pedro/devel/optee/optee_os/lib/libutee/tee_api_objects.c:49
    1620:	b9400c23 	ldr	w3, [x1,#12]
/home/pedro/devel/optee/optee_os/lib/libutee/tee_api_objects.c:52
    1624:	f9000403 	str	x3, [x0,#8]
    1628:	91006021 	add	x1, x1, #0x18
    162c:	91006000 	add	x0, x0, #0x18
    1630:	17fffff4 	b	1600 <__utee_from_attr+0x8>
/home/pedro/devel/optee/optee_os/lib/libutee/tee_api_objects.c:51
    1634:	f9400423 	ldr	x3, [x1,#8]
    1638:	f9000003 	str	x3, [x0]
/home/pedro/devel/optee/optee_os/lib/libutee/tee_api_objects.c:52
    163c:	b9401023 	ldr	w3, [x1,#16]
    1640:	17fffff9 	b	1624 <__utee_from_attr+0x2c>

0000000000001644 <TEE_GetObjectInfo>:
TEE_GetObjectInfo():
/home/pedro/devel/optee/optee_os/lib/libutee/tee_api_objects.c:65
    1644:	a9be7bfd 	stp	x29, x30, [sp,#-32]!
    1648:	910003fd 	mov	x29, sp
    164c:	f9000bf3 	str	x19, [sp,#16]
    1650:	aa0103f3 	mov	x19, x1
/home/pedro/devel/optee/optee_os/lib/libutee/tee_api_objects.c:68
    1654:	94000d14 	bl	4aa4 <utee_cryp_obj_get_info>
/home/pedro/devel/optee/optee_os/lib/libutee/tee_api_objects.c:70
    1658:	34000040 	cbz	w0, 1660 <TEE_GetObjectInfo+0x1c>
/home/pedro/devel/optee/optee_os/lib/libutee/tee_api_objects.c:71
    165c:	94000c17 	bl	46b8 <TEE_Panic>
/home/pedro/devel/optee/optee_os/lib/libutee/tee_api_objects.c:73
    1660:	b9400261 	ldr	w1, [x19]
    1664:	528017c0 	mov	w0, #0xbe                  	// #190
    1668:	72b40000 	movk	w0, #0xa000, lsl #16
    166c:	6b00003f 	cmp	w1, w0
    1670:	54000081 	b.ne	1680 <TEE_GetObjectInfo+0x3c>
/home/pedro/devel/optee/optee_os/lib/libutee/tee_api_objects.c:75
    1674:	2900fe7f 	stp	wzr, wzr, [x19,#4]
/home/pedro/devel/optee/optee_os/lib/libutee/tee_api_objects.c:77
    1678:	2901fe7f 	stp	wzr, wzr, [x19,#12]
/home/pedro/devel/optee/optee_os/lib/libutee/tee_api_objects.c:79
    167c:	2902fe7f 	stp	wzr, wzr, [x19,#20]
/home/pedro/devel/optee/optee_os/lib/libutee/tee_api_objects.c:81
    1680:	f9400bf3 	ldr	x19, [sp,#16]
    1684:	a8c27bfd 	ldp	x29, x30, [sp],#32
    1688:	d65f03c0 	ret

000000000000168c <TEE_GetObjectInfo1>:
TEE_GetObjectInfo1():
/home/pedro/devel/optee/optee_os/lib/libutee/tee_api_objects.c:84
    168c:	a9be7bfd 	stp	x29, x30, [sp,#-32]!
    1690:	910003fd 	mov	x29, sp
    1694:	f9000bf3 	str	x19, [sp,#16]
/home/pedro/devel/optee/optee_os/lib/libutee/tee_api_objects.c:87
    1698:	94000d03 	bl	4aa4 <utee_cryp_obj_get_info>
/home/pedro/devel/optee/optee_os/lib/libutee/tee_api_objects.c:90
    169c:	52800021 	mov	w1, #0x1                   	// #1
    16a0:	121e7802 	and	w2, w0, #0xfffffffd
    16a4:	7100001f 	cmp	w0, #0x0
    16a8:	72be0201 	movk	w1, #0xf010, lsl #16
/home/pedro/devel/optee/optee_os/lib/libutee/tee_api_objects.c:87
    16ac:	2a0003f3 	mov	w19, w0
/home/pedro/devel/optee/optee_os/lib/libutee/tee_api_objects.c:90
    16b0:	7a411044 	ccmp	w2, w1, #0x4, ne
    16b4:	54000040 	b.eq	16bc <TEE_GetObjectInfo1+0x30>
/home/pedro/devel/optee/optee_os/lib/libutee/tee_api_objects.c:92
    16b8:	94000c00 	bl	46b8 <TEE_Panic>
/home/pedro/devel/optee/optee_os/lib/libutee/tee_api_objects.c:95
    16bc:	2a1303e0 	mov	w0, w19
    16c0:	f9400bf3 	ldr	x19, [sp,#16]
    16c4:	a8c27bfd 	ldp	x29, x30, [sp],#32
    16c8:	d65f03c0 	ret

00000000000016cc <TEE_RestrictObjectUsage1>:
TEE_RestrictObjectUsage1():
/home/pedro/devel/optee/optee_os/lib/libutee/tee_api_objects.c:119
    16cc:	a9be7bfd 	stp	x29, x30, [sp,#-32]!
/home/pedro/devel/optee/optee_os/lib/libutee/tee_api_objects.c:122
    16d0:	2a0103e1 	mov	w1, w1
/home/pedro/devel/optee/optee_os/lib/libutee/tee_api_objects.c:119
    16d4:	910003fd 	mov	x29, sp
    16d8:	f9000bf3 	str	x19, [sp,#16]
/home/pedro/devel/optee/optee_os/lib/libutee/tee_api_objects.c:122
    16dc:	94000cf5 	bl	4ab0 <utee_cryp_obj_restrict_usage>
/home/pedro/devel/optee/optee_os/lib/libutee/tee_api_objects.c:125
    16e0:	52800021 	mov	w1, #0x1                   	// #1
    16e4:	121e7802 	and	w2, w0, #0xfffffffd
    16e8:	7100001f 	cmp	w0, #0x0
    16ec:	72be0201 	movk	w1, #0xf010, lsl #16
/home/pedro/devel/optee/optee_os/lib/libutee/tee_api_objects.c:122
    16f0:	2a0003f3 	mov	w19, w0
/home/pedro/devel/optee/optee_os/lib/libutee/tee_api_objects.c:125
    16f4:	7a411044 	ccmp	w2, w1, #0x4, ne
    16f8:	54000040 	b.eq	1700 <TEE_RestrictObjectUsage1+0x34>
/home/pedro/devel/optee/optee_os/lib/libutee/tee_api_objects.c:127
    16fc:	94000bef 	bl	46b8 <TEE_Panic>
/home/pedro/devel/optee/optee_os/lib/libutee/tee_api_objects.c:130
    1700:	2a1303e0 	mov	w0, w19
    1704:	f9400bf3 	ldr	x19, [sp,#16]
    1708:	a8c27bfd 	ldp	x29, x30, [sp],#32
    170c:	d65f03c0 	ret

0000000000001710 <TEE_RestrictObjectUsage>:
TEE_RestrictObjectUsage():
/home/pedro/devel/optee/optee_os/lib/libutee/tee_api_objects.c:104
    1710:	a9bc7bfd 	stp	x29, x30, [sp,#-64]!
    1714:	910003fd 	mov	x29, sp
    1718:	a90153f3 	stp	x19, x20, [sp,#16]
    171c:	aa0003f3 	mov	x19, x0
    1720:	2a0103f4 	mov	w20, w1
/home/pedro/devel/optee/optee_os/lib/libutee/tee_api_objects.c:108
    1724:	910083a1 	add	x1, x29, #0x20
    1728:	94000cdf 	bl	4aa4 <utee_cryp_obj_get_info>
/home/pedro/devel/optee/optee_os/lib/libutee/tee_api_objects.c:109
    172c:	b94023a1 	ldr	w1, [x29,#32]
    1730:	528017c0 	mov	w0, #0xbe                  	// #190
    1734:	72b40000 	movk	w0, #0xa000, lsl #16
    1738:	6b00003f 	cmp	w1, w0
    173c:	540000c0 	b.eq	1754 <TEE_RestrictObjectUsage+0x44>
/home/pedro/devel/optee/optee_os/lib/libutee/tee_api_objects.c:112
    1740:	2a1403e1 	mov	w1, w20
    1744:	aa1303e0 	mov	x0, x19
    1748:	97ffffe1 	bl	16cc <TEE_RestrictObjectUsage1>
/home/pedro/devel/optee/optee_os/lib/libutee/tee_api_objects.c:114
    174c:	34000040 	cbz	w0, 1754 <TEE_RestrictObjectUsage+0x44>
/home/pedro/devel/optee/optee_os/lib/libutee/tee_api_objects.c:115
    1750:	94000bda 	bl	46b8 <TEE_Panic>
/home/pedro/devel/optee/optee_os/lib/libutee/tee_api_objects.c:116
    1754:	a94153f3 	ldp	x19, x20, [sp,#16]
    1758:	a8c47bfd 	ldp	x29, x30, [sp],#64
    175c:	d65f03c0 	ret

0000000000001760 <TEE_GetObjectBufferAttribute>:
TEE_GetObjectBufferAttribute():
/home/pedro/devel/optee/optee_os/lib/libutee/tee_api_objects.c:135
    1760:	a9b97bfd 	stp	x29, x30, [sp,#-112]!
    1764:	910003fd 	mov	x29, sp
    1768:	a90153f3 	stp	x19, x20, [sp,#16]
    176c:	aa0303f4 	mov	x20, x3
    1770:	a9025bf5 	stp	x21, x22, [sp,#32]
    1774:	aa0003f6 	mov	x22, x0
    1778:	f9001bf7 	str	x23, [sp,#48]
    177c:	2a0103f5 	mov	w21, w1
    1780:	aa0203f7 	mov	x23, x2
/home/pedro/devel/optee/optee_os/lib/libutee/tee_api_objects.c:140
    1784:	910143a1 	add	x1, x29, #0x50
    1788:	94000cc7 	bl	4aa4 <utee_cryp_obj_get_info>
    178c:	2a0003f3 	mov	w19, w0
/home/pedro/devel/optee/optee_os/lib/libutee/tee_api_objects.c:141
    1790:	350001a0 	cbnz	w0, 17c4 <TEE_GetObjectBufferAttribute+0x64>
/home/pedro/devel/optee/optee_os/lib/libutee/tee_api_objects.c:146
    1794:	129fff33 	mov	w19, #0xffff0006            	// #-65530
/home/pedro/devel/optee/optee_os/lib/libutee/tee_api_objects.c:145
    1798:	37e80175 	tbnz	w21, #29, 17c4 <TEE_GetObjectBufferAttribute+0x64>
/home/pedro/devel/optee/optee_os/lib/libutee/tee_api_objects.c:150
    179c:	9101c3a3 	add	x3, x29, #0x70
    17a0:	b9400280 	ldr	w0, [x20]
/home/pedro/devel/optee/optee_os/lib/libutee/tee_api_objects.c:151
    17a4:	aa1703e2 	mov	x2, x23
    17a8:	2a1503e1 	mov	w1, w21
/home/pedro/devel/optee/optee_os/lib/libutee/tee_api_objects.c:150
    17ac:	f81d8c60 	str	x0, [x3,#-40]!
/home/pedro/devel/optee/optee_os/lib/libutee/tee_api_objects.c:151
    17b0:	aa1603e0 	mov	x0, x22
    17b4:	94000cc2 	bl	4abc <utee_cryp_obj_get_attr>
    17b8:	2a0003f3 	mov	w19, w0
/home/pedro/devel/optee/optee_os/lib/libutee/tee_api_objects.c:153
    17bc:	f94027a0 	ldr	x0, [x29,#72]
    17c0:	b9000280 	str	w0, [x20]
/home/pedro/devel/optee/optee_os/lib/libutee/tee_api_objects.c:157
    17c4:	529fff00 	mov	w0, #0xfff8                	// #65528
    17c8:	0b000260 	add	w0, w19, w0
/home/pedro/devel/optee/optee_os/lib/libutee/tee_api_objects.c:156
    17cc:	721c781f 	tst	w0, #0xfffffff7
    17d0:	7a401a64 	ccmp	w19, #0x0, #0x4, ne
    17d4:	54000100 	b.eq	17f4 <TEE_GetObjectBufferAttribute+0x94>
/home/pedro/devel/optee/optee_os/lib/libutee/tee_api_objects.c:159
    17d8:	121e7a61 	and	w1, w19, #0xfffffffd
    17dc:	52800020 	mov	w0, #0x1                   	// #1
    17e0:	72be0200 	movk	w0, #0xf010, lsl #16
    17e4:	6b00003f 	cmp	w1, w0
    17e8:	54000060 	b.eq	17f4 <TEE_GetObjectBufferAttribute+0x94>
/home/pedro/devel/optee/optee_os/lib/libutee/tee_api_objects.c:161
    17ec:	2a1303e0 	mov	w0, w19
    17f0:	94000bb2 	bl	46b8 <TEE_Panic>
/home/pedro/devel/optee/optee_os/lib/libutee/tee_api_objects.c:164
    17f4:	2a1303e0 	mov	w0, w19
    17f8:	f9401bf7 	ldr	x23, [sp,#48]
    17fc:	a94153f3 	ldp	x19, x20, [sp,#16]
    1800:	a9425bf5 	ldp	x21, x22, [sp,#32]
    1804:	a8c77bfd 	ldp	x29, x30, [sp],#112
    1808:	d65f03c0 	ret

000000000000180c <TEE_GetObjectValueAttribute>:
TEE_GetObjectValueAttribute():
/home/pedro/devel/optee/optee_os/lib/libutee/tee_api_objects.c:169
    180c:	a9b97bfd 	stp	x29, x30, [sp,#-112]!
    1810:	910003fd 	mov	x29, sp
    1814:	a9025bf5 	stp	x21, x22, [sp,#32]
    1818:	2a0103f6 	mov	w22, w1
/home/pedro/devel/optee/optee_os/lib/libutee/tee_api_objects.c:173
    181c:	d2800101 	mov	x1, #0x8                   	// #8
/home/pedro/devel/optee/optee_os/lib/libutee/tee_api_objects.c:169
    1820:	a90153f3 	stp	x19, x20, [sp,#16]
/home/pedro/devel/optee/optee_os/lib/libutee/tee_api_objects.c:173
    1824:	f90027a1 	str	x1, [x29,#72]
/home/pedro/devel/optee/optee_os/lib/libutee/tee_api_objects.c:169
    1828:	aa0203f5 	mov	x21, x2
    182c:	f9001bf7 	str	x23, [sp,#48]
    1830:	aa0303f4 	mov	x20, x3
/home/pedro/devel/optee/optee_os/lib/libutee/tee_api_objects.c:175
    1834:	910143a1 	add	x1, x29, #0x50
/home/pedro/devel/optee/optee_os/lib/libutee/tee_api_objects.c:169
    1838:	aa0003f7 	mov	x23, x0
/home/pedro/devel/optee/optee_os/lib/libutee/tee_api_objects.c:175
    183c:	94000c9a 	bl	4aa4 <utee_cryp_obj_get_info>
    1840:	2a0003f3 	mov	w19, w0
/home/pedro/devel/optee/optee_os/lib/libutee/tee_api_objects.c:176
    1844:	35000120 	cbnz	w0, 1868 <TEE_GetObjectValueAttribute+0x5c>
/home/pedro/devel/optee/optee_os/lib/libutee/tee_api_objects.c:181
    1848:	129fff33 	mov	w19, #0xffff0006            	// #-65530
/home/pedro/devel/optee/optee_os/lib/libutee/tee_api_objects.c:180
    184c:	36e800f6 	tbz	w22, #29, 1868 <TEE_GetObjectValueAttribute+0x5c>
/home/pedro/devel/optee/optee_os/lib/libutee/tee_api_objects.c:185
    1850:	910123a3 	add	x3, x29, #0x48
    1854:	910103a2 	add	x2, x29, #0x40
    1858:	2a1603e1 	mov	w1, w22
    185c:	aa1703e0 	mov	x0, x23
    1860:	94000c97 	bl	4abc <utee_cryp_obj_get_attr>
    1864:	2a0003f3 	mov	w19, w0
/home/pedro/devel/optee/optee_os/lib/libutee/tee_api_objects.c:189
    1868:	7100027f 	cmp	w19, #0x0
    186c:	129ffee0 	mov	w0, #0xffff0008            	// #-65528
    1870:	7a401264 	ccmp	w19, w0, #0x4, ne
    1874:	54000100 	b.eq	1894 <TEE_GetObjectValueAttribute+0x88>
/home/pedro/devel/optee/optee_os/lib/libutee/tee_api_objects.c:191
    1878:	121e7a61 	and	w1, w19, #0xfffffffd
    187c:	52800020 	mov	w0, #0x1                   	// #1
    1880:	72be0200 	movk	w0, #0xf010, lsl #16
    1884:	6b00003f 	cmp	w1, w0
    1888:	54000060 	b.eq	1894 <TEE_GetObjectValueAttribute+0x88>
/home/pedro/devel/optee/optee_os/lib/libutee/tee_api_objects.c:193
    188c:	2a1303e0 	mov	w0, w19
    1890:	94000b8a 	bl	46b8 <TEE_Panic>
/home/pedro/devel/optee/optee_os/lib/libutee/tee_api_objects.c:195
    1894:	f94027a0 	ldr	x0, [x29,#72]
    1898:	f100201f 	cmp	x0, #0x8
    189c:	54000060 	b.eq	18a8 <TEE_GetObjectValueAttribute+0x9c>
/home/pedro/devel/optee/optee_os/lib/libutee/tee_api_objects.c:196
    18a0:	52800000 	mov	w0, #0x0                   	// #0
    18a4:	94000b85 	bl	46b8 <TEE_Panic>
/home/pedro/devel/optee/optee_os/lib/libutee/tee_api_objects.c:198
    18a8:	350000f3 	cbnz	w19, 18c4 <TEE_GetObjectValueAttribute+0xb8>
/home/pedro/devel/optee/optee_os/lib/libutee/tee_api_objects.c:199
    18ac:	b4000075 	cbz	x21, 18b8 <TEE_GetObjectValueAttribute+0xac>
/home/pedro/devel/optee/optee_os/lib/libutee/tee_api_objects.c:200
    18b0:	b94043a0 	ldr	w0, [x29,#64]
    18b4:	b90002a0 	str	w0, [x21]
/home/pedro/devel/optee/optee_os/lib/libutee/tee_api_objects.c:201
    18b8:	b4000074 	cbz	x20, 18c4 <TEE_GetObjectValueAttribute+0xb8>
/home/pedro/devel/optee/optee_os/lib/libutee/tee_api_objects.c:202
    18bc:	b94047a0 	ldr	w0, [x29,#68]
    18c0:	b9000280 	str	w0, [x20]
/home/pedro/devel/optee/optee_os/lib/libutee/tee_api_objects.c:206
    18c4:	2a1303e0 	mov	w0, w19
    18c8:	f9401bf7 	ldr	x23, [sp,#48]
    18cc:	a94153f3 	ldp	x19, x20, [sp,#16]
    18d0:	a9425bf5 	ldp	x21, x22, [sp,#32]
    18d4:	a8c77bfd 	ldp	x29, x30, [sp],#112
    18d8:	d65f03c0 	ret

00000000000018dc <TEE_CloseObject>:
TEE_CloseObject():
/home/pedro/devel/optee/optee_os/lib/libutee/tee_api_objects.c:212
    18dc:	b4000120 	cbz	x0, 1900 <TEE_CloseObject+0x24>
/home/pedro/devel/optee/optee_os/lib/libutee/tee_api_objects.c:209
    18e0:	a9bf7bfd 	stp	x29, x30, [sp,#-16]!
    18e4:	910003fd 	mov	x29, sp
/home/pedro/devel/optee/optee_os/lib/libutee/tee_api_objects.c:215
    18e8:	94000c7b 	bl	4ad4 <utee_cryp_obj_close>
/home/pedro/devel/optee/optee_os/lib/libutee/tee_api_objects.c:216
    18ec:	34000060 	cbz	w0, 18f8 <TEE_CloseObject+0x1c>
/home/pedro/devel/optee/optee_os/lib/libutee/tee_api_objects.c:218
    18f0:	a8c17bfd 	ldp	x29, x30, [sp],#16
/home/pedro/devel/optee/optee_os/lib/libutee/tee_api_objects.c:217
    18f4:	14000b71 	b	46b8 <TEE_Panic>
/home/pedro/devel/optee/optee_os/lib/libutee/tee_api_objects.c:218
    18f8:	a8c17bfd 	ldp	x29, x30, [sp],#16
    18fc:	d65f03c0 	ret
    1900:	d65f03c0 	ret

0000000000001904 <TEE_AllocateTransientObject>:
TEE_AllocateTransientObject():
/home/pedro/devel/optee/optee_os/lib/libutee/tee_api_objects.c:225
    1904:	a9bd7bfd 	stp	x29, x30, [sp,#-48]!
/home/pedro/devel/optee/optee_os/lib/libutee/tee_api_objects.c:229
    1908:	2a0103e1 	mov	w1, w1
    190c:	2a0003e0 	mov	w0, w0
/home/pedro/devel/optee/optee_os/lib/libutee/tee_api_objects.c:225
    1910:	910003fd 	mov	x29, sp
    1914:	a90153f3 	stp	x19, x20, [sp,#16]
    1918:	aa0203f4 	mov	x20, x2
/home/pedro/devel/optee/optee_os/lib/libutee/tee_api_objects.c:229
    191c:	9100b3a2 	add	x2, x29, #0x2c
    1920:	94000c6a 	bl	4ac8 <utee_cryp_obj_alloc>
/home/pedro/devel/optee/optee_os/lib/libutee/tee_api_objects.c:231
    1924:	7100001f 	cmp	w0, #0x0
    1928:	129ffe61 	mov	w1, #0xffff000c            	// #-65524
/home/pedro/devel/optee/optee_os/lib/libutee/tee_api_objects.c:229
    192c:	2a0003f3 	mov	w19, w0
/home/pedro/devel/optee/optee_os/lib/libutee/tee_api_objects.c:231
    1930:	7a411004 	ccmp	w0, w1, #0x4, ne
    1934:	54000120 	b.eq	1958 <TEE_AllocateTransientObject+0x54>
/home/pedro/devel/optee/optee_os/lib/libutee/tee_api_objects.c:232
    1938:	129ffea1 	mov	w1, #0xffff000a            	// #-65526
    193c:	6b01001f 	cmp	w0, w1
    1940:	54000040 	b.eq	1948 <TEE_AllocateTransientObject+0x44>
/home/pedro/devel/optee/optee_os/lib/libutee/tee_api_objects.c:234
    1944:	94000b5d 	bl	46b8 <TEE_Panic>
/home/pedro/devel/optee/optee_os/lib/libutee/tee_api_objects.c:240
    1948:	2a1303e0 	mov	w0, w19
    194c:	a94153f3 	ldp	x19, x20, [sp,#16]
    1950:	a8c37bfd 	ldp	x29, x30, [sp],#48
    1954:	d65f03c0 	ret
/home/pedro/devel/optee/optee_os/lib/libutee/tee_api_objects.c:236
    1958:	35ffff80 	cbnz	w0, 1948 <TEE_AllocateTransientObject+0x44>
/home/pedro/devel/optee/optee_os/lib/libutee/tee_api_objects.c:237
    195c:	b9402fa0 	ldr	w0, [x29,#44]
    1960:	f9000280 	str	x0, [x20]
/home/pedro/devel/optee/optee_os/lib/libutee/tee_api_objects.c:239
    1964:	17fffff9 	b	1948 <TEE_AllocateTransientObject+0x44>

0000000000001968 <TEE_FreeTransientObject>:
TEE_FreeTransientObject():
/home/pedro/devel/optee/optee_os/lib/libutee/tee_api_objects.c:247
    1968:	b4000280 	cbz	x0, 19b8 <TEE_FreeTransientObject+0x50>
/home/pedro/devel/optee/optee_os/lib/libutee/tee_api_objects.c:243
    196c:	a9bc7bfd 	stp	x29, x30, [sp,#-64]!
    1970:	910003fd 	mov	x29, sp
    1974:	f9000bf3 	str	x19, [sp,#16]
/home/pedro/devel/optee/optee_os/lib/libutee/tee_api_objects.c:250
    1978:	910083a1 	add	x1, x29, #0x20
    197c:	aa0003f3 	mov	x19, x0
    1980:	94000c49 	bl	4aa4 <utee_cryp_obj_get_info>
/home/pedro/devel/optee/optee_os/lib/libutee/tee_api_objects.c:251
    1984:	34000040 	cbz	w0, 198c <TEE_FreeTransientObject+0x24>
/home/pedro/devel/optee/optee_os/lib/libutee/tee_api_objects.c:252
    1988:	94000b4c 	bl	46b8 <TEE_Panic>
/home/pedro/devel/optee/optee_os/lib/libutee/tee_api_objects.c:254
    198c:	b9403ba0 	ldr	w0, [x29,#56]
    1990:	36800060 	tbz	w0, #16, 199c <TEE_FreeTransientObject+0x34>
/home/pedro/devel/optee/optee_os/lib/libutee/tee_api_objects.c:255
    1994:	52800000 	mov	w0, #0x0                   	// #0
    1998:	94000b48 	bl	46b8 <TEE_Panic>
/home/pedro/devel/optee/optee_os/lib/libutee/tee_api_objects.c:257
    199c:	aa1303e0 	mov	x0, x19
    19a0:	94000c4d 	bl	4ad4 <utee_cryp_obj_close>
/home/pedro/devel/optee/optee_os/lib/libutee/tee_api_objects.c:258
    19a4:	34000040 	cbz	w0, 19ac <TEE_FreeTransientObject+0x44>
/home/pedro/devel/optee/optee_os/lib/libutee/tee_api_objects.c:259
    19a8:	94000b44 	bl	46b8 <TEE_Panic>
/home/pedro/devel/optee/optee_os/lib/libutee/tee_api_objects.c:260
    19ac:	f9400bf3 	ldr	x19, [sp,#16]
    19b0:	a8c47bfd 	ldp	x29, x30, [sp],#64
    19b4:	d65f03c0 	ret
    19b8:	d65f03c0 	ret

00000000000019bc <TEE_ResetTransientObject>:
TEE_ResetTransientObject():
/home/pedro/devel/optee/optee_os/lib/libutee/tee_api_objects.c:267
    19bc:	b4000280 	cbz	x0, 1a0c <TEE_ResetTransientObject+0x50>
/home/pedro/devel/optee/optee_os/lib/libutee/tee_api_objects.c:263
    19c0:	a9bc7bfd 	stp	x29, x30, [sp,#-64]!
    19c4:	910003fd 	mov	x29, sp
    19c8:	f9000bf3 	str	x19, [sp,#16]
/home/pedro/devel/optee/optee_os/lib/libutee/tee_api_objects.c:270
    19cc:	910083a1 	add	x1, x29, #0x20
    19d0:	aa0003f3 	mov	x19, x0
    19d4:	94000c34 	bl	4aa4 <utee_cryp_obj_get_info>
/home/pedro/devel/optee/optee_os/lib/libutee/tee_api_objects.c:271
    19d8:	34000040 	cbz	w0, 19e0 <TEE_ResetTransientObject+0x24>
/home/pedro/devel/optee/optee_os/lib/libutee/tee_api_objects.c:272
    19dc:	94000b37 	bl	46b8 <TEE_Panic>
/home/pedro/devel/optee/optee_os/lib/libutee/tee_api_objects.c:274
    19e0:	b9403ba0 	ldr	w0, [x29,#56]
    19e4:	36800060 	tbz	w0, #16, 19f0 <TEE_ResetTransientObject+0x34>
/home/pedro/devel/optee/optee_os/lib/libutee/tee_api_objects.c:275
    19e8:	52800000 	mov	w0, #0x0                   	// #0
    19ec:	94000b33 	bl	46b8 <TEE_Panic>
/home/pedro/devel/optee/optee_os/lib/libutee/tee_api_objects.c:277
    19f0:	aa1303e0 	mov	x0, x19
    19f4:	94000c3b 	bl	4ae0 <utee_cryp_obj_reset>
/home/pedro/devel/optee/optee_os/lib/libutee/tee_api_objects.c:278
    19f8:	34000040 	cbz	w0, 1a00 <TEE_ResetTransientObject+0x44>
/home/pedro/devel/optee/optee_os/lib/libutee/tee_api_objects.c:279
    19fc:	94000b2f 	bl	46b8 <TEE_Panic>
/home/pedro/devel/optee/optee_os/lib/libutee/tee_api_objects.c:280
    1a00:	f9400bf3 	ldr	x19, [sp,#16]
    1a04:	a8c47bfd 	ldp	x29, x30, [sp],#64
    1a08:	d65f03c0 	ret
    1a0c:	d65f03c0 	ret

0000000000001a10 <TEE_PopulateTransientObject>:
TEE_PopulateTransientObject():
/home/pedro/devel/optee/optee_os/lib/libutee/tee_api_objects.c:285
    1a10:	a9ba7bfd 	stp	x29, x30, [sp,#-96]!
    1a14:	910003fd 	mov	x29, sp
    1a18:	a9025bf5 	stp	x21, x22, [sp,#32]
    1a1c:	2a0203f6 	mov	w22, w2
    1a20:	f9001bf7 	str	x23, [sp,#48]
    1a24:	aa0103f7 	mov	x23, x1
/home/pedro/devel/optee/optee_os/lib/libutee/tee_api_objects.c:288
    1a28:	52800301 	mov	w1, #0x18                  	// #24
/home/pedro/devel/optee/optee_os/lib/libutee/tee_api_objects.c:285
    1a2c:	a90153f3 	stp	x19, x20, [sp,#16]
    1a30:	aa0003f5 	mov	x21, x0
    1a34:	aa1603f3 	mov	x19, x22
/home/pedro/devel/optee/optee_os/lib/libutee/tee_api_objects.c:288
    1a38:	9ba17ec1 	umull	x1, w22, w1
    1a3c:	91005821 	add	x1, x1, #0x16
    1a40:	927c8421 	and	x1, x1, #0x3ffffffff0
    1a44:	cb2163ff 	sub	sp, sp, x1
/home/pedro/devel/optee/optee_os/lib/libutee/tee_api_objects.c:290
    1a48:	910103a1 	add	x1, x29, #0x40
/home/pedro/devel/optee/optee_os/lib/libutee/tee_api_objects.c:288
    1a4c:	910003f4 	mov	x20, sp
/home/pedro/devel/optee/optee_os/lib/libutee/tee_api_objects.c:290
    1a50:	94000c15 	bl	4aa4 <utee_cryp_obj_get_info>
/home/pedro/devel/optee/optee_os/lib/libutee/tee_api_objects.c:291
    1a54:	34000040 	cbz	w0, 1a5c <TEE_PopulateTransientObject+0x4c>
/home/pedro/devel/optee/optee_os/lib/libutee/tee_api_objects.c:292
    1a58:	94000b18 	bl	46b8 <TEE_Panic>
/home/pedro/devel/optee/optee_os/lib/libutee/tee_api_objects.c:295
    1a5c:	b9405ba0 	ldr	w0, [x29,#88]
    1a60:	36800060 	tbz	w0, #16, 1a6c <TEE_PopulateTransientObject+0x5c>
/home/pedro/devel/optee/optee_os/lib/libutee/tee_api_objects.c:296
    1a64:	52800000 	mov	w0, #0x0                   	// #0
    1a68:	94000b14 	bl	46b8 <TEE_Panic>
/home/pedro/devel/optee/optee_os/lib/libutee/tee_api_objects.c:299
    1a6c:	b9405ba0 	ldr	w0, [x29,#88]
    1a70:	36880060 	tbz	w0, #17, 1a7c <TEE_PopulateTransientObject+0x6c>
/home/pedro/devel/optee/optee_os/lib/libutee/tee_api_objects.c:300
    1a74:	52800000 	mov	w0, #0x0                   	// #0
    1a78:	94000b10 	bl	46b8 <TEE_Panic>
/home/pedro/devel/optee/optee_os/lib/libutee/tee_api_objects.c:302
    1a7c:	2a1303e2 	mov	w2, w19
    1a80:	aa1703e1 	mov	x1, x23
    1a84:	aa1403e0 	mov	x0, x20
    1a88:	97fffedc 	bl	15f8 <__utee_from_attr>
/home/pedro/devel/optee/optee_os/lib/libutee/tee_api_objects.c:303
    1a8c:	aa1403e1 	mov	x1, x20
    1a90:	aa1603e2 	mov	x2, x22
    1a94:	aa1503e0 	mov	x0, x21
    1a98:	94000c15 	bl	4aec <utee_cryp_obj_populate>
/home/pedro/devel/optee/optee_os/lib/libutee/tee_api_objects.c:304
    1a9c:	7100001f 	cmp	w0, #0x0
    1aa0:	129fff21 	mov	w1, #0xffff0006            	// #-65530
/home/pedro/devel/optee/optee_os/lib/libutee/tee_api_objects.c:303
    1aa4:	2a0003f3 	mov	w19, w0
/home/pedro/devel/optee/optee_os/lib/libutee/tee_api_objects.c:304
    1aa8:	7a411004 	ccmp	w0, w1, #0x4, ne
    1aac:	54000040 	b.eq	1ab4 <TEE_PopulateTransientObject+0xa4>
/home/pedro/devel/optee/optee_os/lib/libutee/tee_api_objects.c:305
    1ab0:	94000b02 	bl	46b8 <TEE_Panic>
/home/pedro/devel/optee/optee_os/lib/libutee/tee_api_objects.c:307
    1ab4:	910003bf 	mov	sp, x29
    1ab8:	2a1303e0 	mov	w0, w19
    1abc:	f9401bf7 	ldr	x23, [sp,#48]
    1ac0:	a94153f3 	ldp	x19, x20, [sp,#16]
    1ac4:	a9425bf5 	ldp	x21, x22, [sp,#32]
    1ac8:	a8c67bfd 	ldp	x29, x30, [sp],#96
    1acc:	d65f03c0 	ret

0000000000001ad0 <TEE_InitRefAttribute>:
TEE_InitRefAttribute():
/home/pedro/devel/optee/optee_os/lib/libutee/tee_api_objects.c:311
    1ad0:	a9bd7bfd 	stp	x29, x30, [sp,#-48]!
    1ad4:	910003fd 	mov	x29, sp
    1ad8:	a90153f3 	stp	x19, x20, [sp,#16]
    1adc:	aa0003f3 	mov	x19, x0
    1ae0:	a9025bf5 	stp	x21, x22, [sp,#32]
    1ae4:	2a0103f4 	mov	w20, w1
    1ae8:	aa0203f6 	mov	x22, x2
    1aec:	2a0303f5 	mov	w21, w3
/home/pedro/devel/optee/optee_os/lib/libutee/tee_api_objects.c:312
    1af0:	b5000060 	cbnz	x0, 1afc <TEE_InitRefAttribute+0x2c>
/home/pedro/devel/optee/optee_os/lib/libutee/tee_api_objects.c:313
    1af4:	52800000 	mov	w0, #0x0                   	// #0
    1af8:	94000af0 	bl	46b8 <TEE_Panic>
/home/pedro/devel/optee/optee_os/lib/libutee/tee_api_objects.c:314
    1afc:	36e80074 	tbz	w20, #29, 1b08 <TEE_InitRefAttribute+0x38>
/home/pedro/devel/optee/optee_os/lib/libutee/tee_api_objects.c:315
    1b00:	52800000 	mov	w0, #0x0                   	// #0
    1b04:	94000aed 	bl	46b8 <TEE_Panic>
/home/pedro/devel/optee/optee_os/lib/libutee/tee_api_objects.c:317
    1b08:	f9000676 	str	x22, [x19,#8]
/home/pedro/devel/optee/optee_os/lib/libutee/tee_api_objects.c:318
    1b0c:	b9001275 	str	w21, [x19,#16]
/home/pedro/devel/optee/optee_os/lib/libutee/tee_api_objects.c:316
    1b10:	b9000274 	str	w20, [x19]
/home/pedro/devel/optee/optee_os/lib/libutee/tee_api_objects.c:319
    1b14:	a9425bf5 	ldp	x21, x22, [sp,#32]
    1b18:	a94153f3 	ldp	x19, x20, [sp,#16]
    1b1c:	a8c37bfd 	ldp	x29, x30, [sp],#48
    1b20:	d65f03c0 	ret

0000000000001b24 <TEE_InitValueAttribute>:
TEE_InitValueAttribute():
/home/pedro/devel/optee/optee_os/lib/libutee/tee_api_objects.c:323
    1b24:	a9bd7bfd 	stp	x29, x30, [sp,#-48]!
    1b28:	910003fd 	mov	x29, sp
    1b2c:	a90153f3 	stp	x19, x20, [sp,#16]
    1b30:	aa0003f3 	mov	x19, x0
    1b34:	a9025bf5 	stp	x21, x22, [sp,#32]
    1b38:	2a0103f4 	mov	w20, w1
    1b3c:	2a0203f6 	mov	w22, w2
    1b40:	2a0303f5 	mov	w21, w3
/home/pedro/devel/optee/optee_os/lib/libutee/tee_api_objects.c:324
    1b44:	b5000060 	cbnz	x0, 1b50 <TEE_InitValueAttribute+0x2c>
/home/pedro/devel/optee/optee_os/lib/libutee/tee_api_objects.c:325
    1b48:	52800000 	mov	w0, #0x0                   	// #0
    1b4c:	94000adb 	bl	46b8 <TEE_Panic>
/home/pedro/devel/optee/optee_os/lib/libutee/tee_api_objects.c:326
    1b50:	37e80074 	tbnz	w20, #29, 1b5c <TEE_InitValueAttribute+0x38>
/home/pedro/devel/optee/optee_os/lib/libutee/tee_api_objects.c:327
    1b54:	52800000 	mov	w0, #0x0                   	// #0
    1b58:	94000ad8 	bl	46b8 <TEE_Panic>
/home/pedro/devel/optee/optee_os/lib/libutee/tee_api_objects.c:330
    1b5c:	29015676 	stp	w22, w21, [x19,#8]
/home/pedro/devel/optee/optee_os/lib/libutee/tee_api_objects.c:328
    1b60:	b9000274 	str	w20, [x19]
/home/pedro/devel/optee/optee_os/lib/libutee/tee_api_objects.c:331
    1b64:	a9425bf5 	ldp	x21, x22, [sp,#32]
    1b68:	a94153f3 	ldp	x19, x20, [sp,#16]
    1b6c:	a8c37bfd 	ldp	x29, x30, [sp],#48
    1b70:	d65f03c0 	ret

0000000000001b74 <TEE_CopyObjectAttributes1>:
TEE_CopyObjectAttributes1():
/home/pedro/devel/optee/optee_os/lib/libutee/tee_api_objects.c:356
    1b74:	a9b97bfd 	stp	x29, x30, [sp,#-112]!
    1b78:	910003fd 	mov	x29, sp
    1b7c:	a90153f3 	stp	x19, x20, [sp,#16]
    1b80:	aa0103f4 	mov	x20, x1
    1b84:	f90013f5 	str	x21, [sp,#32]
/home/pedro/devel/optee/optee_os/lib/libutee/tee_api_objects.c:361
    1b88:	9100c3a1 	add	x1, x29, #0x30
/home/pedro/devel/optee/optee_os/lib/libutee/tee_api_objects.c:356
    1b8c:	aa0003f5 	mov	x21, x0
/home/pedro/devel/optee/optee_os/lib/libutee/tee_api_objects.c:361
    1b90:	94000bc5 	bl	4aa4 <utee_cryp_obj_get_info>
    1b94:	2a0003f3 	mov	w19, w0
/home/pedro/devel/optee/optee_os/lib/libutee/tee_api_objects.c:362
    1b98:	350002a0 	cbnz	w0, 1bec <TEE_CopyObjectAttributes1+0x78>
/home/pedro/devel/optee/optee_os/lib/libutee/tee_api_objects.c:365
    1b9c:	910143a1 	add	x1, x29, #0x50
    1ba0:	aa1403e0 	mov	x0, x20
    1ba4:	94000bc0 	bl	4aa4 <utee_cryp_obj_get_info>
    1ba8:	2a0003f3 	mov	w19, w0
/home/pedro/devel/optee/optee_os/lib/libutee/tee_api_objects.c:366
    1bac:	35000200 	cbnz	w0, 1bec <TEE_CopyObjectAttributes1+0x78>
/home/pedro/devel/optee/optee_os/lib/libutee/tee_api_objects.c:369
    1bb0:	b9406ba1 	ldr	w1, [x29,#104]
    1bb4:	37880041 	tbnz	w1, #17, 1bbc <TEE_CopyObjectAttributes1+0x48>
/home/pedro/devel/optee/optee_os/lib/libutee/tee_api_objects.c:370
    1bb8:	94000ac0 	bl	46b8 <TEE_Panic>
/home/pedro/devel/optee/optee_os/lib/libutee/tee_api_objects.c:372
    1bbc:	b9404ba0 	ldr	w0, [x29,#72]
    1bc0:	36800060 	tbz	w0, #16, 1bcc <TEE_CopyObjectAttributes1+0x58>
/home/pedro/devel/optee/optee_os/lib/libutee/tee_api_objects.c:373
    1bc4:	52800000 	mov	w0, #0x0                   	// #0
    1bc8:	94000abc 	bl	46b8 <TEE_Panic>
/home/pedro/devel/optee/optee_os/lib/libutee/tee_api_objects.c:375
    1bcc:	b9404ba0 	ldr	w0, [x29,#72]
    1bd0:	36880060 	tbz	w0, #17, 1bdc <TEE_CopyObjectAttributes1+0x68>
/home/pedro/devel/optee/optee_os/lib/libutee/tee_api_objects.c:376
    1bd4:	52800000 	mov	w0, #0x0                   	// #0
    1bd8:	94000ab8 	bl	46b8 <TEE_Panic>
/home/pedro/devel/optee/optee_os/lib/libutee/tee_api_objects.c:378
    1bdc:	aa1403e1 	mov	x1, x20
    1be0:	aa1503e0 	mov	x0, x21
    1be4:	94000bc5 	bl	4af8 <utee_cryp_obj_copy>
    1be8:	2a0003f3 	mov	w19, w0
/home/pedro/devel/optee/optee_os/lib/libutee/tee_api_objects.c:383
    1bec:	121e7a60 	and	w0, w19, #0xfffffffd
    1bf0:	7100027f 	cmp	w19, #0x0
    1bf4:	52800021 	mov	w1, #0x1                   	// #1
    1bf8:	72be0201 	movk	w1, #0xf010, lsl #16
    1bfc:	7a411004 	ccmp	w0, w1, #0x4, ne
    1c00:	54000060 	b.eq	1c0c <TEE_CopyObjectAttributes1+0x98>
/home/pedro/devel/optee/optee_os/lib/libutee/tee_api_objects.c:385
    1c04:	2a1303e0 	mov	w0, w19
    1c08:	94000aac 	bl	46b8 <TEE_Panic>
/home/pedro/devel/optee/optee_os/lib/libutee/tee_api_objects.c:388
    1c0c:	2a1303e0 	mov	w0, w19
    1c10:	f94013f5 	ldr	x21, [sp,#32]
    1c14:	a94153f3 	ldp	x19, x20, [sp,#16]
    1c18:	a8c77bfd 	ldp	x29, x30, [sp],#112
    1c1c:	d65f03c0 	ret

0000000000001c20 <TEE_CopyObjectAttributes>:
TEE_CopyObjectAttributes():
/home/pedro/devel/optee/optee_os/lib/libutee/tee_api_objects.c:341
    1c20:	a9bc7bfd 	stp	x29, x30, [sp,#-64]!
    1c24:	910003fd 	mov	x29, sp
    1c28:	a90153f3 	stp	x19, x20, [sp,#16]
    1c2c:	aa0103f3 	mov	x19, x1
    1c30:	aa0003f4 	mov	x20, x0
/home/pedro/devel/optee/optee_os/lib/libutee/tee_api_objects.c:345
    1c34:	910083a1 	add	x1, x29, #0x20
    1c38:	aa1303e0 	mov	x0, x19
    1c3c:	94000b9a 	bl	4aa4 <utee_cryp_obj_get_info>
/home/pedro/devel/optee/optee_os/lib/libutee/tee_api_objects.c:346
    1c40:	b94023a1 	ldr	w1, [x29,#32]
    1c44:	528017c0 	mov	w0, #0xbe                  	// #190
    1c48:	72b40000 	movk	w0, #0xa000, lsl #16
    1c4c:	6b00003f 	cmp	w1, w0
    1c50:	540000c0 	b.eq	1c68 <TEE_CopyObjectAttributes+0x48>
/home/pedro/devel/optee/optee_os/lib/libutee/tee_api_objects.c:349
    1c54:	aa1303e1 	mov	x1, x19
    1c58:	aa1403e0 	mov	x0, x20
    1c5c:	97ffffc6 	bl	1b74 <TEE_CopyObjectAttributes1>
/home/pedro/devel/optee/optee_os/lib/libutee/tee_api_objects.c:350
    1c60:	34000040 	cbz	w0, 1c68 <TEE_CopyObjectAttributes+0x48>
/home/pedro/devel/optee/optee_os/lib/libutee/tee_api_objects.c:351
    1c64:	94000a95 	bl	46b8 <TEE_Panic>
/home/pedro/devel/optee/optee_os/lib/libutee/tee_api_objects.c:352
    1c68:	a94153f3 	ldp	x19, x20, [sp,#16]
    1c6c:	a8c47bfd 	ldp	x29, x30, [sp],#64
    1c70:	d65f03c0 	ret

0000000000001c74 <TEE_GenerateKey>:
TEE_GenerateKey():
/home/pedro/devel/optee/optee_os/lib/libutee/tee_api_objects.c:392
    1c74:	a9bd7bfd 	stp	x29, x30, [sp,#-48]!
    1c78:	910003fd 	mov	x29, sp
    1c7c:	a9025bf5 	stp	x21, x22, [sp,#32]
    1c80:	aa0003f5 	mov	x21, x0
/home/pedro/devel/optee/optee_os/lib/libutee/tee_api_objects.c:394
    1c84:	52800300 	mov	w0, #0x18                  	// #24
/home/pedro/devel/optee/optee_os/lib/libutee/tee_api_objects.c:392
    1c88:	a90153f3 	stp	x19, x20, [sp,#16]
    1c8c:	2a0103f6 	mov	w22, w1
    1c90:	2a0303f3 	mov	w19, w3
/home/pedro/devel/optee/optee_os/lib/libutee/tee_api_objects.c:394
    1c94:	9ba07c60 	umull	x0, w3, w0
/home/pedro/devel/optee/optee_os/lib/libutee/tee_api_objects.c:392
    1c98:	aa0203e1 	mov	x1, x2
/home/pedro/devel/optee/optee_os/lib/libutee/tee_api_objects.c:396
    1c9c:	2a0303e2 	mov	w2, w3
/home/pedro/devel/optee/optee_os/lib/libutee/tee_api_objects.c:394
    1ca0:	91005800 	add	x0, x0, #0x16
    1ca4:	927c8400 	and	x0, x0, #0x3ffffffff0
    1ca8:	cb2063ff 	sub	sp, sp, x0
/home/pedro/devel/optee/optee_os/lib/libutee/tee_api_objects.c:396
    1cac:	910003e0 	mov	x0, sp
    1cb0:	97fffe52 	bl	15f8 <__utee_from_attr>
/home/pedro/devel/optee/optee_os/lib/libutee/tee_api_objects.c:397
    1cb4:	2a1303e3 	mov	w3, w19
    1cb8:	2a1603e1 	mov	w1, w22
    1cbc:	910003e2 	mov	x2, sp
    1cc0:	aa1503e0 	mov	x0, x21
    1cc4:	94000bd2 	bl	4c0c <utee_cryp_obj_generate_key>
/home/pedro/devel/optee/optee_os/lib/libutee/tee_api_objects.c:400
    1cc8:	7100001f 	cmp	w0, #0x0
    1ccc:	129fff21 	mov	w1, #0xffff0006            	// #-65530
/home/pedro/devel/optee/optee_os/lib/libutee/tee_api_objects.c:397
    1cd0:	2a0003f3 	mov	w19, w0
/home/pedro/devel/optee/optee_os/lib/libutee/tee_api_objects.c:400
    1cd4:	7a411004 	ccmp	w0, w1, #0x4, ne
    1cd8:	54000040 	b.eq	1ce0 <TEE_GenerateKey+0x6c>
/home/pedro/devel/optee/optee_os/lib/libutee/tee_api_objects.c:401
    1cdc:	94000a77 	bl	46b8 <TEE_Panic>
/home/pedro/devel/optee/optee_os/lib/libutee/tee_api_objects.c:404
    1ce0:	910003bf 	mov	sp, x29
    1ce4:	2a1303e0 	mov	w0, w19
    1ce8:	a94153f3 	ldp	x19, x20, [sp,#16]
    1cec:	a9425bf5 	ldp	x21, x22, [sp,#32]
    1cf0:	a8c37bfd 	ldp	x29, x30, [sp],#48
    1cf4:	d65f03c0 	ret

0000000000001cf8 <TEE_OpenPersistentObject>:
TEE_OpenPersistentObject():
/home/pedro/devel/optee/optee_os/lib/libutee/tee_api_objects.c:411
    1cf8:	a9bd7bfd 	stp	x29, x30, [sp,#-48]!
    1cfc:	910003fd 	mov	x29, sp
    1d00:	a90153f3 	stp	x19, x20, [sp,#16]
/home/pedro/devel/optee/optee_os/lib/libutee/tee_api_objects.c:416
    1d04:	129ffef3 	mov	w19, #0xffff0008            	// #-65528
/home/pedro/devel/optee/optee_os/lib/libutee/tee_api_objects.c:415
    1d08:	b40001e1 	cbz	x1, 1d44 <TEE_OpenPersistentObject+0x4c>
/home/pedro/devel/optee/optee_os/lib/libutee/tee_api_objects.c:425
    1d0c:	7101005f 	cmp	w2, #0x40
    1d10:	aa0403f4 	mov	x20, x4
/home/pedro/devel/optee/optee_os/lib/libutee/tee_api_objects.c:426
    1d14:	129fff33 	mov	w19, #0xffff0006            	// #-65530
/home/pedro/devel/optee/optee_os/lib/libutee/tee_api_objects.c:425
    1d18:	fa409884 	ccmp	x4, #0x0, #0x4, ls
    1d1c:	54000140 	b.eq	1d44 <TEE_OpenPersistentObject+0x4c>
/home/pedro/devel/optee/optee_os/lib/libutee/tee_api_objects.c:430
    1d20:	9100b3a4 	add	x4, x29, #0x2c
    1d24:	2a0303e3 	mov	w3, w3
    1d28:	2a0203e2 	mov	w2, w2
    1d2c:	2a0003e0 	mov	w0, w0
    1d30:	94000b90 	bl	4b70 <utee_storage_obj_open>
    1d34:	2a0003f3 	mov	w19, w0
/home/pedro/devel/optee/optee_os/lib/libutee/tee_api_objects.c:432
    1d38:	35000060 	cbnz	w0, 1d44 <TEE_OpenPersistentObject+0x4c>
/home/pedro/devel/optee/optee_os/lib/libutee/tee_api_objects.c:433
    1d3c:	b9402fa0 	ldr	w0, [x29,#44]
    1d40:	f9000280 	str	x0, [x20]
/home/pedro/devel/optee/optee_os/lib/libutee/tee_api_objects.c:437
    1d44:	121d7a60 	and	w0, w19, #0xfffffffb
/home/pedro/devel/optee/optee_os/lib/libutee/tee_api_objects.c:436
    1d48:	7100027f 	cmp	w19, #0x0
    1d4c:	129ffee1 	mov	w1, #0xffff0008            	// #-65528
    1d50:	7a411004 	ccmp	w0, w1, #0x4, ne
    1d54:	54000160 	b.eq	1d80 <TEE_OpenPersistentObject+0x88>
/home/pedro/devel/optee/optee_os/lib/libutee/tee_api_objects.c:438
    1d58:	129fff80 	mov	w0, #0xffff0003            	// #-65533
    1d5c:	6b00027f 	cmp	w19, w0
    1d60:	54000100 	b.eq	1d80 <TEE_OpenPersistentObject+0x88>
/home/pedro/devel/optee/optee_os/lib/libutee/tee_api_objects.c:440
    1d64:	121e7a61 	and	w1, w19, #0xfffffffd
    1d68:	52800020 	mov	w0, #0x1                   	// #1
    1d6c:	72be0200 	movk	w0, #0xf010, lsl #16
    1d70:	6b00003f 	cmp	w1, w0
    1d74:	54000060 	b.eq	1d80 <TEE_OpenPersistentObject+0x88>
/home/pedro/devel/optee/optee_os/lib/libutee/tee_api_objects.c:442
    1d78:	2a1303e0 	mov	w0, w19
    1d7c:	94000a4f 	bl	46b8 <TEE_Panic>
/home/pedro/devel/optee/optee_os/lib/libutee/tee_api_objects.c:445
    1d80:	2a1303e0 	mov	w0, w19
    1d84:	a94153f3 	ldp	x19, x20, [sp,#16]
    1d88:	a8c37bfd 	ldp	x29, x30, [sp],#48
    1d8c:	d65f03c0 	ret

0000000000001d90 <TEE_CreatePersistentObject>:
TEE_CreatePersistentObject():
/home/pedro/devel/optee/optee_os/lib/libutee/tee_api_objects.c:453
    1d90:	a9bd7bfd 	stp	x29, x30, [sp,#-48]!
    1d94:	910003fd 	mov	x29, sp
    1d98:	f9000bf3 	str	x19, [sp,#16]
    1d9c:	aa0703f3 	mov	x19, x7
/home/pedro/devel/optee/optee_os/lib/libutee/tee_api_objects.c:457
    1da0:	b4000501 	cbz	x1, 1e40 <TEE_CreatePersistentObject+0xb0>
/home/pedro/devel/optee/optee_os/lib/libutee/tee_api_objects.c:462
    1da4:	7101005f 	cmp	w2, #0x40
    1da8:	54000528 	b.hi	1e4c <TEE_CreatePersistentObject+0xbc>
/home/pedro/devel/optee/optee_os/lib/libutee/tee_api_objects.c:467
    1dac:	9100b3a7 	add	x7, x29, #0x2c
    1db0:	2a0603e6 	mov	w6, w6
    1db4:	2a0303e3 	mov	w3, w3
    1db8:	2a0203e2 	mov	w2, w2
    1dbc:	2a0003e0 	mov	w0, w0
    1dc0:	94000b6f 	bl	4b7c <utee_storage_obj_create>
/home/pedro/devel/optee/optee_os/lib/libutee/tee_api_objects.c:470
    1dc4:	35000380 	cbnz	w0, 1e34 <TEE_CreatePersistentObject+0xa4>
    1dc8:	b9402fa1 	ldr	w1, [x29,#44]
/home/pedro/devel/optee/optee_os/lib/libutee/tee_api_objects.c:471
    1dcc:	b40000b3 	cbz	x19, 1de0 <TEE_CreatePersistentObject+0x50>
/home/pedro/devel/optee/optee_os/lib/libutee/tee_api_objects.c:472
    1dd0:	f9000261 	str	x1, [x19]
/home/pedro/devel/optee/optee_os/lib/libutee/tee_api_objects.c:491
    1dd4:	f9400bf3 	ldr	x19, [sp,#16]
    1dd8:	a8c37bfd 	ldp	x29, x30, [sp],#48
    1ddc:	d65f03c0 	ret
/home/pedro/devel/optee/optee_os/lib/libutee/tee_api_objects.c:474
    1de0:	aa0103e0 	mov	x0, x1
    1de4:	94000b3c 	bl	4ad4 <utee_cryp_obj_close>
/home/pedro/devel/optee/optee_os/lib/libutee/tee_api_objects.c:475
    1de8:	34ffff60 	cbz	w0, 1dd4 <TEE_CreatePersistentObject+0x44>
/home/pedro/devel/optee/optee_os/lib/libutee/tee_api_objects.c:481
    1dec:	129ffee1 	mov	w1, #0xffff0008            	// #-65528
    1df0:	6b01001f 	cmp	w0, w1
    1df4:	129fff81 	mov	w1, #0xffff0003            	// #-65533
    1df8:	7a411004 	ccmp	w0, w1, #0x4, ne
    1dfc:	54fffec0 	b.eq	1dd4 <TEE_CreatePersistentObject+0x44>
/home/pedro/devel/optee/optee_os/lib/libutee/tee_api_objects.c:483
    1e00:	129ffe61 	mov	w1, #0xffff000c            	// #-65524
    1e04:	6b01001f 	cmp	w0, w1
    1e08:	1299f7c1 	mov	w1, #0xffff3041            	// #-53183
    1e0c:	7a411004 	ccmp	w0, w1, #0x4, ne
    1e10:	54fffe20 	b.eq	1dd4 <TEE_CreatePersistentObject+0x44>
/home/pedro/devel/optee/optee_os/lib/libutee/tee_api_objects.c:485
    1e14:	121e7802 	and	w2, w0, #0xfffffffd
    1e18:	52800021 	mov	w1, #0x1                   	// #1
    1e1c:	72be0201 	movk	w1, #0xf010, lsl #16
    1e20:	6b01005f 	cmp	w2, w1
    1e24:	54fffd80 	b.eq	1dd4 <TEE_CreatePersistentObject+0x44>
/home/pedro/devel/optee/optee_os/lib/libutee/tee_api_objects.c:488
    1e28:	94000a24 	bl	46b8 <TEE_Panic>
/home/pedro/devel/optee/optee_os/lib/libutee/tee_api_objects.c:490
    1e2c:	52800000 	mov	w0, #0x0                   	// #0
    1e30:	17ffffe9 	b	1dd4 <TEE_CreatePersistentObject+0x44>
/home/pedro/devel/optee/optee_os/lib/libutee/tee_api_objects.c:479
    1e34:	b4fffdd3 	cbz	x19, 1dec <TEE_CreatePersistentObject+0x5c>
/home/pedro/devel/optee/optee_os/lib/libutee/tee_api_objects.c:480
    1e38:	f900027f 	str	xzr, [x19]
    1e3c:	17ffffec 	b	1dec <TEE_CreatePersistentObject+0x5c>
/home/pedro/devel/optee/optee_os/lib/libutee/tee_api_objects.c:458
    1e40:	129ffee0 	mov	w0, #0xffff0008            	// #-65528
/home/pedro/devel/optee/optee_os/lib/libutee/tee_api_objects.c:479
    1e44:	b5ffffa7 	cbnz	x7, 1e38 <TEE_CreatePersistentObject+0xa8>
    1e48:	17ffffe3 	b	1dd4 <TEE_CreatePersistentObject+0x44>
/home/pedro/devel/optee/optee_os/lib/libutee/tee_api_objects.c:463
    1e4c:	129fff20 	mov	w0, #0xffff0006            	// #-65530
/home/pedro/devel/optee/optee_os/lib/libutee/tee_api_objects.c:479
    1e50:	b5ffff47 	cbnz	x7, 1e38 <TEE_CreatePersistentObject+0xa8>
    1e54:	17ffffeb 	b	1e00 <TEE_CreatePersistentObject+0x70>

0000000000001e58 <TEE_CloseAndDeletePersistentObject1>:
TEE_CloseAndDeletePersistentObject1():
/home/pedro/devel/optee/optee_os/lib/libutee/tee_api_objects.c:513
    1e58:	a9be7bfd 	stp	x29, x30, [sp,#-32]!
    1e5c:	910003fd 	mov	x29, sp
    1e60:	a90153f3 	stp	x19, x20, [sp,#16]
    1e64:	52800074 	mov	w20, #0x3                   	// #3
    1e68:	72be0214 	movk	w20, #0xf010, lsl #16
/home/pedro/devel/optee/optee_os/lib/libutee/tee_api_objects.c:517
    1e6c:	2a1403f3 	mov	w19, w20
/home/pedro/devel/optee/optee_os/lib/libutee/tee_api_objects.c:516
    1e70:	b40000e0 	cbz	x0, 1e8c <TEE_CloseAndDeletePersistentObject1+0x34>
/home/pedro/devel/optee/optee_os/lib/libutee/tee_api_objects.c:519
    1e74:	94000b45 	bl	4b88 <utee_storage_obj_del>
/home/pedro/devel/optee/optee_os/lib/libutee/tee_api_objects.c:521
    1e78:	7100001f 	cmp	w0, #0x0
/home/pedro/devel/optee/optee_os/lib/libutee/tee_api_objects.c:519
    1e7c:	2a0003f3 	mov	w19, w0
/home/pedro/devel/optee/optee_os/lib/libutee/tee_api_objects.c:521
    1e80:	7a541004 	ccmp	w0, w20, #0x4, ne
    1e84:	54000040 	b.eq	1e8c <TEE_CloseAndDeletePersistentObject1+0x34>
/home/pedro/devel/optee/optee_os/lib/libutee/tee_api_objects.c:522
    1e88:	94000a0c 	bl	46b8 <TEE_Panic>
/home/pedro/devel/optee/optee_os/lib/libutee/tee_api_objects.c:525
    1e8c:	2a1303e0 	mov	w0, w19
    1e90:	a94153f3 	ldp	x19, x20, [sp,#16]
    1e94:	a8c27bfd 	ldp	x29, x30, [sp],#32
    1e98:	d65f03c0 	ret

0000000000001e9c <TEE_CloseAndDeletePersistentObject>:
TEE_CloseAndDeletePersistentObject():
/home/pedro/devel/optee/optee_os/lib/libutee/tee_api_objects.c:503
    1e9c:	b4000140 	cbz	x0, 1ec4 <TEE_CloseAndDeletePersistentObject+0x28>
/home/pedro/devel/optee/optee_os/lib/libutee/tee_api_objects.c:500
    1ea0:	a9bf7bfd 	stp	x29, x30, [sp,#-16]!
    1ea4:	910003fd 	mov	x29, sp
/home/pedro/devel/optee/optee_os/lib/libutee/tee_api_objects.c:506
    1ea8:	97ffffec 	bl	1e58 <TEE_CloseAndDeletePersistentObject1>
/home/pedro/devel/optee/optee_os/lib/libutee/tee_api_objects.c:508
    1eac:	34000080 	cbz	w0, 1ebc <TEE_CloseAndDeletePersistentObject+0x20>
/home/pedro/devel/optee/optee_os/lib/libutee/tee_api_objects.c:510
    1eb0:	a8c17bfd 	ldp	x29, x30, [sp],#16
/home/pedro/devel/optee/optee_os/lib/libutee/tee_api_objects.c:509
    1eb4:	52800000 	mov	w0, #0x0                   	// #0
    1eb8:	14000a00 	b	46b8 <TEE_Panic>
/home/pedro/devel/optee/optee_os/lib/libutee/tee_api_objects.c:510
    1ebc:	a8c17bfd 	ldp	x29, x30, [sp],#16
    1ec0:	d65f03c0 	ret
    1ec4:	d65f03c0 	ret

0000000000001ec8 <TEE_RenamePersistentObject>:
TEE_RenamePersistentObject():
/home/pedro/devel/optee/optee_os/lib/libutee/tee_api_objects.c:531
    1ec8:	a9be7bfd 	stp	x29, x30, [sp,#-32]!
    1ecc:	910003fd 	mov	x29, sp
    1ed0:	f9000bf3 	str	x19, [sp,#16]
/home/pedro/devel/optee/optee_os/lib/libutee/tee_api_objects.c:535
    1ed4:	129ffef3 	mov	w19, #0xffff0008            	// #-65528
/home/pedro/devel/optee/optee_os/lib/libutee/tee_api_objects.c:534
    1ed8:	b4000100 	cbz	x0, 1ef8 <TEE_RenamePersistentObject+0x30>
/home/pedro/devel/optee/optee_os/lib/libutee/tee_api_objects.c:544
    1edc:	7101005f 	cmp	w2, #0x40
/home/pedro/devel/optee/optee_os/lib/libutee/tee_api_objects.c:545
    1ee0:	129fff33 	mov	w19, #0xffff0006            	// #-65530
/home/pedro/devel/optee/optee_os/lib/libutee/tee_api_objects.c:544
    1ee4:	fa409824 	ccmp	x1, #0x0, #0x4, ls
    1ee8:	54000080 	b.eq	1ef8 <TEE_RenamePersistentObject+0x30>
/home/pedro/devel/optee/optee_os/lib/libutee/tee_api_objects.c:549
    1eec:	2a0203e2 	mov	w2, w2
    1ef0:	94000b29 	bl	4b94 <utee_storage_obj_rename>
    1ef4:	2a0003f3 	mov	w19, w0
/home/pedro/devel/optee/optee_os/lib/libutee/tee_api_objects.c:553
    1ef8:	7100027f 	cmp	w19, #0x0
    1efc:	129fff80 	mov	w0, #0xffff0003            	// #-65533
    1f00:	7a401264 	ccmp	w19, w0, #0x4, ne
    1f04:	54000100 	b.eq	1f24 <TEE_RenamePersistentObject+0x5c>
/home/pedro/devel/optee/optee_os/lib/libutee/tee_api_objects.c:555
    1f08:	121e7a61 	and	w1, w19, #0xfffffffd
    1f0c:	52800020 	mov	w0, #0x1                   	// #1
    1f10:	72be0200 	movk	w0, #0xf010, lsl #16
    1f14:	6b00003f 	cmp	w1, w0
    1f18:	54000060 	b.eq	1f24 <TEE_RenamePersistentObject+0x5c>
/home/pedro/devel/optee/optee_os/lib/libutee/tee_api_objects.c:557
    1f1c:	2a1303e0 	mov	w0, w19
    1f20:	940009e6 	bl	46b8 <TEE_Panic>
/home/pedro/devel/optee/optee_os/lib/libutee/tee_api_objects.c:560
    1f24:	2a1303e0 	mov	w0, w19
    1f28:	f9400bf3 	ldr	x19, [sp,#16]
    1f2c:	a8c27bfd 	ldp	x29, x30, [sp],#32
    1f30:	d65f03c0 	ret

0000000000001f34 <TEE_AllocatePersistentObjectEnumerator>:
TEE_AllocatePersistentObjectEnumerator():
/home/pedro/devel/optee/optee_os/lib/libutee/tee_api_objects.c:564
    1f34:	a9bd7bfd 	stp	x29, x30, [sp,#-48]!
    1f38:	910003fd 	mov	x29, sp
    1f3c:	a90153f3 	stp	x19, x20, [sp,#16]
/home/pedro/devel/optee/optee_os/lib/libutee/tee_api_objects.c:569
    1f40:	129fff33 	mov	w19, #0xffff0006            	// #-65530
/home/pedro/devel/optee/optee_os/lib/libutee/tee_api_objects.c:568
    1f44:	b40001e0 	cbz	x0, 1f80 <TEE_AllocatePersistentObjectEnumerator+0x4c>
    1f48:	aa0003f4 	mov	x20, x0
/home/pedro/devel/optee/optee_os/lib/libutee/tee_api_objects.c:571
    1f4c:	9100b3a0 	add	x0, x29, #0x2c
    1f50:	94000b14 	bl	4ba0 <utee_storage_alloc_enum>
    1f54:	2a0003f3 	mov	w19, w0
/home/pedro/devel/optee/optee_os/lib/libutee/tee_api_objects.c:573
    1f58:	34000040 	cbz	w0, 1f60 <TEE_AllocatePersistentObjectEnumerator+0x2c>
/home/pedro/devel/optee/optee_os/lib/libutee/tee_api_objects.c:574
    1f5c:	b9002fbf 	str	wzr, [x29,#44]
/home/pedro/devel/optee/optee_os/lib/libutee/tee_api_objects.c:576
    1f60:	b9402fa0 	ldr	w0, [x29,#44]
/home/pedro/devel/optee/optee_os/lib/libutee/tee_api_objects.c:578
    1f64:	7100027f 	cmp	w19, #0x0
/home/pedro/devel/optee/optee_os/lib/libutee/tee_api_objects.c:576
    1f68:	f9000280 	str	x0, [x20]
/home/pedro/devel/optee/optee_os/lib/libutee/tee_api_objects.c:578
    1f6c:	129fff80 	mov	w0, #0xffff0003            	// #-65533
    1f70:	7a401264 	ccmp	w19, w0, #0x4, ne
    1f74:	54000060 	b.eq	1f80 <TEE_AllocatePersistentObjectEnumerator+0x4c>
/home/pedro/devel/optee/optee_os/lib/libutee/tee_api_objects.c:580
    1f78:	2a1303e0 	mov	w0, w19
    1f7c:	940009cf 	bl	46b8 <TEE_Panic>
/home/pedro/devel/optee/optee_os/lib/libutee/tee_api_objects.c:583
    1f80:	2a1303e0 	mov	w0, w19
    1f84:	a94153f3 	ldp	x19, x20, [sp,#16]
    1f88:	a8c37bfd 	ldp	x29, x30, [sp],#48
    1f8c:	d65f03c0 	ret

0000000000001f90 <TEE_FreePersistentObjectEnumerator>:
TEE_FreePersistentObjectEnumerator():
/home/pedro/devel/optee/optee_os/lib/libutee/tee_api_objects.c:589
    1f90:	b4000120 	cbz	x0, 1fb4 <TEE_FreePersistentObjectEnumerator+0x24>
/home/pedro/devel/optee/optee_os/lib/libutee/tee_api_objects.c:586
    1f94:	a9bf7bfd 	stp	x29, x30, [sp,#-16]!
    1f98:	910003fd 	mov	x29, sp
/home/pedro/devel/optee/optee_os/lib/libutee/tee_api_objects.c:592
    1f9c:	94000b04 	bl	4bac <utee_storage_free_enum>
/home/pedro/devel/optee/optee_os/lib/libutee/tee_api_objects.c:594
    1fa0:	34000060 	cbz	w0, 1fac <TEE_FreePersistentObjectEnumerator+0x1c>
/home/pedro/devel/optee/optee_os/lib/libutee/tee_api_objects.c:596
    1fa4:	a8c17bfd 	ldp	x29, x30, [sp],#16
/home/pedro/devel/optee/optee_os/lib/libutee/tee_api_objects.c:595
    1fa8:	140009c4 	b	46b8 <TEE_Panic>
/home/pedro/devel/optee/optee_os/lib/libutee/tee_api_objects.c:596
    1fac:	a8c17bfd 	ldp	x29, x30, [sp],#16
    1fb0:	d65f03c0 	ret
    1fb4:	d65f03c0 	ret

0000000000001fb8 <TEE_ResetPersistentObjectEnumerator>:
TEE_ResetPersistentObjectEnumerator():
/home/pedro/devel/optee/optee_os/lib/libutee/tee_api_objects.c:602
    1fb8:	b4000120 	cbz	x0, 1fdc <TEE_ResetPersistentObjectEnumerator+0x24>
/home/pedro/devel/optee/optee_os/lib/libutee/tee_api_objects.c:599
    1fbc:	a9bf7bfd 	stp	x29, x30, [sp,#-16]!
    1fc0:	910003fd 	mov	x29, sp
/home/pedro/devel/optee/optee_os/lib/libutee/tee_api_objects.c:605
    1fc4:	94000afd 	bl	4bb8 <utee_storage_reset_enum>
/home/pedro/devel/optee/optee_os/lib/libutee/tee_api_objects.c:607
    1fc8:	34000060 	cbz	w0, 1fd4 <TEE_ResetPersistentObjectEnumerator+0x1c>
/home/pedro/devel/optee/optee_os/lib/libutee/tee_api_objects.c:609
    1fcc:	a8c17bfd 	ldp	x29, x30, [sp],#16
/home/pedro/devel/optee/optee_os/lib/libutee/tee_api_objects.c:608
    1fd0:	140009ba 	b	46b8 <TEE_Panic>
/home/pedro/devel/optee/optee_os/lib/libutee/tee_api_objects.c:609
    1fd4:	a8c17bfd 	ldp	x29, x30, [sp],#16
    1fd8:	d65f03c0 	ret
    1fdc:	d65f03c0 	ret

0000000000001fe0 <TEE_StartPersistentObjectEnumerator>:
TEE_StartPersistentObjectEnumerator():
/home/pedro/devel/optee/optee_os/lib/libutee/tee_api_objects.c:614
    1fe0:	a9be7bfd 	stp	x29, x30, [sp,#-32]!
/home/pedro/devel/optee/optee_os/lib/libutee/tee_api_objects.c:617
    1fe4:	2a0103e1 	mov	w1, w1
/home/pedro/devel/optee/optee_os/lib/libutee/tee_api_objects.c:614
    1fe8:	910003fd 	mov	x29, sp
    1fec:	f9000bf3 	str	x19, [sp,#16]
/home/pedro/devel/optee/optee_os/lib/libutee/tee_api_objects.c:617
    1ff0:	94000af5 	bl	4bc4 <utee_storage_start_enum>
/home/pedro/devel/optee/optee_os/lib/libutee/tee_api_objects.c:620
    1ff4:	7100001f 	cmp	w0, #0x0
    1ff8:	129ffee1 	mov	w1, #0xffff0008            	// #-65528
/home/pedro/devel/optee/optee_os/lib/libutee/tee_api_objects.c:617
    1ffc:	2a0003f3 	mov	w19, w0
/home/pedro/devel/optee/optee_os/lib/libutee/tee_api_objects.c:620
    2000:	7a411004 	ccmp	w0, w1, #0x4, ne
    2004:	540000e0 	b.eq	2020 <TEE_StartPersistentObjectEnumerator+0x40>
/home/pedro/devel/optee/optee_os/lib/libutee/tee_api_objects.c:622
    2008:	121e7802 	and	w2, w0, #0xfffffffd
    200c:	52800021 	mov	w1, #0x1                   	// #1
    2010:	72be0201 	movk	w1, #0xf010, lsl #16
    2014:	6b01005f 	cmp	w2, w1
    2018:	54000040 	b.eq	2020 <TEE_StartPersistentObjectEnumerator+0x40>
/home/pedro/devel/optee/optee_os/lib/libutee/tee_api_objects.c:624
    201c:	940009a7 	bl	46b8 <TEE_Panic>
/home/pedro/devel/optee/optee_os/lib/libutee/tee_api_objects.c:627
    2020:	2a1303e0 	mov	w0, w19
    2024:	f9400bf3 	ldr	x19, [sp,#16]
    2028:	a8c27bfd 	ldp	x29, x30, [sp],#32
    202c:	d65f03c0 	ret

0000000000002030 <TEE_GetNextPersistentObject>:
TEE_GetNextPersistentObject():
/home/pedro/devel/optee/optee_os/lib/libutee/tee_api_objects.c:632
    2030:	a9bb7bfd 	stp	x29, x30, [sp,#-80]!
/home/pedro/devel/optee/optee_os/lib/libutee/tee_api_objects.c:643
    2034:	f100005f 	cmp	x2, #0x0
    2038:	fa401864 	ccmp	x3, #0x0, #0x4, ne
/home/pedro/devel/optee/optee_os/lib/libutee/tee_api_objects.c:632
    203c:	910003fd 	mov	x29, sp
    2040:	a90153f3 	stp	x19, x20, [sp,#16]
    2044:	129fff33 	mov	w19, #0xffff0006            	// #-65530
/home/pedro/devel/optee/optee_os/lib/libutee/tee_api_objects.c:643
    2048:	54000180 	b.eq	2078 <TEE_GetNextPersistentObject+0x48>
    204c:	aa0303f4 	mov	x20, x3
/home/pedro/devel/optee/optee_os/lib/libutee/tee_api_objects.c:652
    2050:	910143a3 	add	x3, x29, #0x50
/home/pedro/devel/optee/optee_os/lib/libutee/tee_api_objects.c:651
    2054:	f100003f 	cmp	x1, #0x0
/home/pedro/devel/optee/optee_os/lib/libutee/tee_api_objects.c:652
    2058:	b9400284 	ldr	w4, [x20]
    205c:	f81d8c64 	str	x4, [x3,#-40]!
/home/pedro/devel/optee/optee_os/lib/libutee/tee_api_objects.c:653
    2060:	9100c3a4 	add	x4, x29, #0x30
    2064:	9a810081 	csel	x1, x4, x1, eq
    2068:	94000ada 	bl	4bd0 <utee_storage_next_enum>
    206c:	2a0003f3 	mov	w19, w0
/home/pedro/devel/optee/optee_os/lib/libutee/tee_api_objects.c:655
    2070:	f94017a0 	ldr	x0, [x29,#40]
    2074:	b9000280 	str	w0, [x20]
/home/pedro/devel/optee/optee_os/lib/libutee/tee_api_objects.c:658
    2078:	7100027f 	cmp	w19, #0x0
    207c:	129ffee0 	mov	w0, #0xffff0008            	// #-65528
    2080:	7a401264 	ccmp	w19, w0, #0x4, ne
    2084:	54000100 	b.eq	20a4 <TEE_GetNextPersistentObject+0x74>
/home/pedro/devel/optee/optee_os/lib/libutee/tee_api_objects.c:660
    2088:	121e7a61 	and	w1, w19, #0xfffffffd
    208c:	52800020 	mov	w0, #0x1                   	// #1
    2090:	72be0200 	movk	w0, #0xf010, lsl #16
    2094:	6b00003f 	cmp	w1, w0
    2098:	54000060 	b.eq	20a4 <TEE_GetNextPersistentObject+0x74>
/home/pedro/devel/optee/optee_os/lib/libutee/tee_api_objects.c:662
    209c:	2a1303e0 	mov	w0, w19
    20a0:	94000986 	bl	46b8 <TEE_Panic>
/home/pedro/devel/optee/optee_os/lib/libutee/tee_api_objects.c:665
    20a4:	2a1303e0 	mov	w0, w19
    20a8:	a94153f3 	ldp	x19, x20, [sp,#16]
    20ac:	a8c57bfd 	ldp	x29, x30, [sp],#80
    20b0:	d65f03c0 	ret

00000000000020b4 <TEE_ReadObjectData>:
TEE_ReadObjectData():
/home/pedro/devel/optee/optee_os/lib/libutee/tee_api_objects.c:671
    20b4:	a9bd7bfd 	stp	x29, x30, [sp,#-48]!
    20b8:	910003fd 	mov	x29, sp
    20bc:	a90153f3 	stp	x19, x20, [sp,#16]
    20c0:	129fff33 	mov	w19, #0xffff0006            	// #-65530
/home/pedro/devel/optee/optee_os/lib/libutee/tee_api_objects.c:675
    20c4:	b4000140 	cbz	x0, 20ec <TEE_ReadObjectData+0x38>
    20c8:	aa0303f4 	mov	x20, x3
/home/pedro/devel/optee/optee_os/lib/libutee/tee_api_objects.c:680
    20cc:	9100c3a3 	add	x3, x29, #0x30
/home/pedro/devel/optee/optee_os/lib/libutee/tee_api_objects.c:681
    20d0:	2a0203e2 	mov	w2, w2
/home/pedro/devel/optee/optee_os/lib/libutee/tee_api_objects.c:680
    20d4:	b9400284 	ldr	w4, [x20]
    20d8:	f81f8c64 	str	x4, [x3,#-8]!
/home/pedro/devel/optee/optee_os/lib/libutee/tee_api_objects.c:681
    20dc:	94000ac0 	bl	4bdc <utee_storage_obj_read>
    20e0:	2a0003f3 	mov	w19, w0
/home/pedro/devel/optee/optee_os/lib/libutee/tee_api_objects.c:683
    20e4:	f94017a0 	ldr	x0, [x29,#40]
    20e8:	b9000280 	str	w0, [x20]
/home/pedro/devel/optee/optee_os/lib/libutee/tee_api_objects.c:687
    20ec:	121e7a60 	and	w0, w19, #0xfffffffd
    20f0:	7100027f 	cmp	w19, #0x0
    20f4:	52800021 	mov	w1, #0x1                   	// #1
    20f8:	72be0201 	movk	w1, #0xf010, lsl #16
    20fc:	7a411004 	ccmp	w0, w1, #0x4, ne
    2100:	54000060 	b.eq	210c <TEE_ReadObjectData+0x58>
/home/pedro/devel/optee/optee_os/lib/libutee/tee_api_objects.c:689
    2104:	2a1303e0 	mov	w0, w19
    2108:	9400096c 	bl	46b8 <TEE_Panic>
/home/pedro/devel/optee/optee_os/lib/libutee/tee_api_objects.c:692
    210c:	2a1303e0 	mov	w0, w19
    2110:	a94153f3 	ldp	x19, x20, [sp,#16]
    2114:	a8c37bfd 	ldp	x29, x30, [sp],#48
    2118:	d65f03c0 	ret

000000000000211c <TEE_WriteObjectData>:
TEE_WriteObjectData():
/home/pedro/devel/optee/optee_os/lib/libutee/tee_api_objects.c:696
    211c:	a9be7bfd 	stp	x29, x30, [sp,#-32]!
    2120:	910003fd 	mov	x29, sp
    2124:	f9000bf3 	str	x19, [sp,#16]
    2128:	129fff33 	mov	w19, #0xffff0006            	// #-65530
/home/pedro/devel/optee/optee_os/lib/libutee/tee_api_objects.c:699
    212c:	b4000080 	cbz	x0, 213c <TEE_WriteObjectData+0x20>
/home/pedro/devel/optee/optee_os/lib/libutee/tee_api_objects.c:709
    2130:	2a0203e2 	mov	w2, w2
    2134:	94000aad 	bl	4be8 <utee_storage_obj_write>
    2138:	2a0003f3 	mov	w19, w0
/home/pedro/devel/optee/optee_os/lib/libutee/tee_api_objects.c:712
    213c:	7100027f 	cmp	w19, #0x0
    2140:	1299f7c0 	mov	w0, #0xffff3041            	// #-53183
    2144:	7a401264 	ccmp	w19, w0, #0x4, ne
    2148:	54000140 	b.eq	2170 <TEE_WriteObjectData+0x54>
/home/pedro/devel/optee/optee_os/lib/libutee/tee_api_objects.c:715
    214c:	121e7a61 	and	w1, w19, #0xfffffffd
    2150:	52800020 	mov	w0, #0x1                   	// #1
    2154:	72be0200 	movk	w0, #0xf010, lsl #16
    2158:	6b00003f 	cmp	w1, w0
    215c:	1299fe00 	mov	w0, #0xffff300f            	// #-53233
    2160:	7a401264 	ccmp	w19, w0, #0x4, ne
    2164:	54000060 	b.eq	2170 <TEE_WriteObjectData+0x54>
/home/pedro/devel/optee/optee_os/lib/libutee/tee_api_objects.c:717
    2168:	2a1303e0 	mov	w0, w19
    216c:	94000953 	bl	46b8 <TEE_Panic>
/home/pedro/devel/optee/optee_os/lib/libutee/tee_api_objects.c:720
    2170:	2a1303e0 	mov	w0, w19
    2174:	f9400bf3 	ldr	x19, [sp,#16]
    2178:	a8c27bfd 	ldp	x29, x30, [sp],#32
    217c:	d65f03c0 	ret

0000000000002180 <TEE_TruncateObjectData>:
TEE_TruncateObjectData():
/home/pedro/devel/optee/optee_os/lib/libutee/tee_api_objects.c:723
    2180:	a9be7bfd 	stp	x29, x30, [sp,#-32]!
    2184:	910003fd 	mov	x29, sp
    2188:	f9000bf3 	str	x19, [sp,#16]
    218c:	129fff33 	mov	w19, #0xffff0006            	// #-65530
/home/pedro/devel/optee/optee_os/lib/libutee/tee_api_objects.c:726
    2190:	b4000080 	cbz	x0, 21a0 <TEE_TruncateObjectData+0x20>
/home/pedro/devel/optee/optee_os/lib/libutee/tee_api_objects.c:731
    2194:	2a0103e1 	mov	w1, w1
    2198:	94000a97 	bl	4bf4 <utee_storage_obj_trunc>
    219c:	2a0003f3 	mov	w19, w0
/home/pedro/devel/optee/optee_os/lib/libutee/tee_api_objects.c:734
    21a0:	7100027f 	cmp	w19, #0x0
    21a4:	1299f7c0 	mov	w0, #0xffff3041            	// #-53183
    21a8:	7a401264 	ccmp	w19, w0, #0x4, ne
    21ac:	54000100 	b.eq	21cc <TEE_TruncateObjectData+0x4c>
/home/pedro/devel/optee/optee_os/lib/libutee/tee_api_objects.c:736
    21b0:	121e7a61 	and	w1, w19, #0xfffffffd
    21b4:	52800020 	mov	w0, #0x1                   	// #1
    21b8:	72be0200 	movk	w0, #0xf010, lsl #16
    21bc:	6b00003f 	cmp	w1, w0
    21c0:	54000060 	b.eq	21cc <TEE_TruncateObjectData+0x4c>
/home/pedro/devel/optee/optee_os/lib/libutee/tee_api_objects.c:738
    21c4:	2a1303e0 	mov	w0, w19
    21c8:	9400093c 	bl	46b8 <TEE_Panic>
/home/pedro/devel/optee/optee_os/lib/libutee/tee_api_objects.c:741
    21cc:	2a1303e0 	mov	w0, w19
    21d0:	f9400bf3 	ldr	x19, [sp,#16]
    21d4:	a8c27bfd 	ldp	x29, x30, [sp],#32
    21d8:	d65f03c0 	ret

00000000000021dc <TEE_SeekObjectData>:
TEE_SeekObjectData():
/home/pedro/devel/optee/optee_os/lib/libutee/tee_api_objects.c:745
    21dc:	a9bb7bfd 	stp	x29, x30, [sp,#-80]!
    21e0:	910003fd 	mov	x29, sp
    21e4:	a90153f3 	stp	x19, x20, [sp,#16]
/home/pedro/devel/optee/optee_os/lib/libutee/tee_api_objects.c:750
    21e8:	129fff33 	mov	w19, #0xffff0006            	// #-65530
/home/pedro/devel/optee/optee_os/lib/libutee/tee_api_objects.c:745
    21ec:	a9025bf5 	stp	x21, x22, [sp,#32]
/home/pedro/devel/optee/optee_os/lib/libutee/tee_api_objects.c:749
    21f0:	b40003e0 	cbz	x0, 226c <TEE_SeekObjectData+0x90>
    21f4:	aa0003f6 	mov	x22, x0
    21f8:	2a0103f4 	mov	w20, w1
    21fc:	2a0203f5 	mov	w21, w2
/home/pedro/devel/optee/optee_os/lib/libutee/tee_api_objects.c:754
    2200:	9100c3a1 	add	x1, x29, #0x30
    2204:	94000a28 	bl	4aa4 <utee_cryp_obj_get_info>
    2208:	2a0003f3 	mov	w19, w0
/home/pedro/devel/optee/optee_os/lib/libutee/tee_api_objects.c:755
    220c:	35000300 	cbnz	w0, 226c <TEE_SeekObjectData+0x90>
/home/pedro/devel/optee/optee_os/lib/libutee/tee_api_objects.c:758
    2210:	710006bf 	cmp	w21, #0x1
    2214:	540000c0 	b.eq	222c <TEE_SeekObjectData+0x50>
    2218:	34000115 	cbz	w21, 2238 <TEE_SeekObjectData+0x5c>
    221c:	71000abf 	cmp	w21, #0x2
    2220:	54000180 	b.eq	2250 <TEE_SeekObjectData+0x74>
/home/pedro/devel/optee/optee_os/lib/libutee/tee_api_objects.c:784
    2224:	129ffef3 	mov	w19, #0xffff0008            	// #-65528
    2228:	14000011 	b	226c <TEE_SeekObjectData+0x90>
/home/pedro/devel/optee/optee_os/lib/libutee/tee_api_objects.c:769
    222c:	b94047a0 	ldr	w0, [x29,#68]
/home/pedro/devel/optee/optee_os/lib/libutee/tee_api_objects.c:766
    2230:	7100029f 	cmp	w20, #0x0
    2234:	5400014c 	b.gt	225c <TEE_SeekObjectData+0x80>
/home/pedro/devel/optee/optee_os/lib/libutee/tee_api_objects.c:788
    2238:	2a1503e2 	mov	w2, w21
    223c:	2a1403e1 	mov	w1, w20
    2240:	aa1603e0 	mov	x0, x22
    2244:	94000a6f 	bl	4c00 <utee_storage_obj_seek>
    2248:	2a0003f3 	mov	w19, w0
    224c:	14000008 	b	226c <TEE_SeekObjectData+0x90>
/home/pedro/devel/optee/optee_os/lib/libutee/tee_api_objects.c:776
    2250:	7100029f 	cmp	w20, #0x0
    2254:	54ffff2d 	b.le	2238 <TEE_SeekObjectData+0x5c>
/home/pedro/devel/optee/optee_os/lib/libutee/tee_api_objects.c:778 (discriminator 1)
    2258:	b94043a0 	ldr	w0, [x29,#64]
    225c:	0b000281 	add	w1, w20, w0
/home/pedro/devel/optee/optee_os/lib/libutee/tee_api_objects.c:771 (discriminator 1)
    2260:	1299fe13 	mov	w19, #0xffff300f            	// #-53233
/home/pedro/devel/optee/optee_os/lib/libutee/tee_api_objects.c:776 (discriminator 1)
    2264:	6b01001f 	cmp	w0, w1
    2268:	54fffe89 	b.ls	2238 <TEE_SeekObjectData+0x5c>
/home/pedro/devel/optee/optee_os/lib/libutee/tee_api_objects.c:791
    226c:	7100027f 	cmp	w19, #0x0
    2270:	1299fe00 	mov	w0, #0xffff300f            	// #-53233
    2274:	7a401264 	ccmp	w19, w0, #0x4, ne
    2278:	54000100 	b.eq	2298 <TEE_SeekObjectData+0xbc>
/home/pedro/devel/optee/optee_os/lib/libutee/tee_api_objects.c:793
    227c:	121e7a61 	and	w1, w19, #0xfffffffd
    2280:	52800020 	mov	w0, #0x1                   	// #1
    2284:	72be0200 	movk	w0, #0xf010, lsl #16
    2288:	6b00003f 	cmp	w1, w0
    228c:	54000060 	b.eq	2298 <TEE_SeekObjectData+0xbc>
/home/pedro/devel/optee/optee_os/lib/libutee/tee_api_objects.c:795
    2290:	2a1303e0 	mov	w0, w19
    2294:	94000909 	bl	46b8 <TEE_Panic>
/home/pedro/devel/optee/optee_os/lib/libutee/tee_api_objects.c:798
    2298:	2a1303e0 	mov	w0, w19
    229c:	a94153f3 	ldp	x19, x20, [sp,#16]
    22a0:	a9425bf5 	ldp	x21, x22, [sp,#32]
    22a4:	a8c57bfd 	ldp	x29, x30, [sp],#80
    22a8:	d65f03c0 	ret

00000000000022ac <TEE_FreeOperation>:
TEE_FreeOperation():
/home/pedro/devel/optee/optee_os/lib/libutee/tee_api_operations.c:367
    22ac:	a9be7bfd 	stp	x29, x30, [sp,#-32]!
    22b0:	910003fd 	mov	x29, sp
    22b4:	f9000bf3 	str	x19, [sp,#16]
    22b8:	aa0003f3 	mov	x19, x0
/home/pedro/devel/optee/optee_os/lib/libutee/tee_api_operations.c:370
    22bc:	b5000060 	cbnz	x0, 22c8 <TEE_FreeOperation+0x1c>
/home/pedro/devel/optee/optee_os/lib/libutee/tee_api_operations.c:371
    22c0:	52800000 	mov	w0, #0x0                   	// #0
    22c4:	940008fd 	bl	46b8 <TEE_Panic>
/home/pedro/devel/optee/optee_os/lib/libutee/tee_api_operations.c:378
    22c8:	b9405a60 	ldr	w0, [x19,#88]
    22cc:	940009e1 	bl	4a50 <utee_cryp_state_free>
/home/pedro/devel/optee/optee_os/lib/libutee/tee_api_operations.c:379
    22d0:	34000040 	cbz	w0, 22d8 <TEE_FreeOperation+0x2c>
/home/pedro/devel/optee/optee_os/lib/libutee/tee_api_operations.c:380
    22d4:	940008f9 	bl	46b8 <TEE_Panic>
/home/pedro/devel/optee/optee_os/lib/libutee/tee_api_operations.c:382
    22d8:	f9401e60 	ldr	x0, [x19,#56]
    22dc:	97fffcc0 	bl	15dc <TEE_Free>
/home/pedro/devel/optee/optee_os/lib/libutee/tee_api_operations.c:383
    22e0:	aa1303e0 	mov	x0, x19
/home/pedro/devel/optee/optee_os/lib/libutee/tee_api_operations.c:384
    22e4:	f9400bf3 	ldr	x19, [sp,#16]
    22e8:	a8c27bfd 	ldp	x29, x30, [sp],#32
/home/pedro/devel/optee/optee_os/lib/libutee/tee_api_operations.c:383
    22ec:	17fffcbc 	b	15dc <TEE_Free>

00000000000022f0 <TEE_AllocateOperation>:
TEE_AllocateOperation():
/home/pedro/devel/optee/optee_os/lib/libutee/tee_api_operations.c:60
    22f0:	a9b97bfd 	stp	x29, x30, [sp,#-112]!
    22f4:	910003fd 	mov	x29, sp
    22f8:	a90363f7 	stp	x23, x24, [sp,#48]
    22fc:	2a0203f8 	mov	w24, w2
    2300:	a90153f3 	stp	x19, x20, [sp,#16]
    2304:	2a0303f7 	mov	w23, w3
    2308:	a9025bf5 	stp	x21, x22, [sp,#32]
    230c:	2a0103f3 	mov	w19, w1
    2310:	a9046bf9 	stp	x25, x26, [sp,#64]
    2314:	a90573fb 	stp	x27, x28, [sp,#80]
    2318:	f90037a0 	str	x0, [x29,#104]
/home/pedro/devel/optee/optee_os/lib/libutee/tee_api_operations.c:69
    231c:	b5000040 	cbnz	x0, 2324 <TEE_AllocateOperation+0x34>
/home/pedro/devel/optee/optee_os/lib/libutee/tee_api_operations.c:70
    2320:	940008e6 	bl	46b8 <TEE_Panic>
/home/pedro/devel/optee/optee_os/lib/libutee/tee_api_operations.c:72
    2324:	52808200 	mov	w0, #0x410                 	// #1040
    2328:	72a20000 	movk	w0, #0x1000, lsl #16
    232c:	6b00027f 	cmp	w19, w0
    2330:	54002cc0 	b.eq	28c8 <TEE_AllocateOperation+0x5d8>
/home/pedro/devel/optee/optee_os/lib/libutee/tee_api_operations.c:76
    2334:	52882620 	mov	w0, #0x4131                	// #16689
    2338:	72ae0000 	movk	w0, #0x7000, lsl #16
    233c:	6b00027f 	cmp	w19, w0
    2340:	54000e60 	b.eq	250c <TEE_AllocateOperation+0x21c>
    2344:	540007c8 	b.hi	243c <TEE_AllocateOperation+0x14c>
    2348:	52842620 	mov	w0, #0x2131                	// #8497
    234c:	72ae0000 	movk	w0, #0x7000, lsl #16
    2350:	6b00027f 	cmp	w19, w0
    2354:	54000aa0 	b.eq	24a8 <TEE_AllocateOperation+0x1b8>
    2358:	54000568 	b.hi	2404 <TEE_AllocateOperation+0x114>
    235c:	52820820 	mov	w0, #0x1041                	// #4161
    2360:	72ae0000 	movk	w0, #0x7000, lsl #16
    2364:	6b00027f 	cmp	w19, w0
    2368:	54000840 	b.eq	2470 <TEE_AllocateOperation+0x180>
    236c:	11400400 	add	w0, w0, #0x1, lsl #12
    2370:	6b00027f 	cmp	w19, w0
    2374:	54000d40 	b.eq	251c <TEE_AllocateOperation+0x22c>
/home/pedro/devel/optee/optee_os/lib/libutee/tee_api_operations.c:131
    2378:	52842620 	mov	w0, #0x2131                	// #8497
    237c:	72ae0000 	movk	w0, #0x7000, lsl #16
    2380:	6b00027f 	cmp	w19, w0
    2384:	540009e0 	b.eq	24c0 <TEE_AllocateOperation+0x1d0>
    2388:	54001ae8 	b.hi	26e4 <TEE_AllocateOperation+0x3f4>
    238c:	5280a260 	mov	w0, #0x513                 	// #1299
    2390:	72a60000 	movk	w0, #0x3000, lsl #16
    2394:	6b00027f 	cmp	w19, w0
    2398:	54001000 	b.eq	2598 <TEE_AllocateOperation+0x2a8>
    239c:	54001208 	b.hi	25dc <TEE_AllocateOperation+0x2ec>
    23a0:	52806200 	mov	w0, #0x310                 	// #784
    23a4:	72a20000 	movk	w0, #0x1000, lsl #16
    23a8:	6b00027f 	cmp	w19, w0
    23ac:	54002a80 	b.eq	28fc <TEE_AllocateOperation+0x60c>
    23b0:	52802220 	mov	w0, #0x111                 	// #273
    23b4:	54000dc8 	b.hi	256c <TEE_AllocateOperation+0x27c>
    23b8:	72a20000 	movk	w0, #0x1000, lsl #16
    23bc:	6b00027f 	cmp	w19, w0
    23c0:	54000c08 	b.hi	2540 <TEE_AllocateOperation+0x250>
    23c4:	52802200 	mov	w0, #0x110                 	// #272
    23c8:	72a20000 	movk	w0, #0x1000, lsl #16
    23cc:	6b00027f 	cmp	w19, w0
    23d0:	540029a2 	b.cs	2904 <TEE_AllocateOperation+0x614>
    23d4:	52800200 	mov	w0, #0x10                  	// #16
    23d8:	72a20000 	movk	w0, #0x1000, lsl #16
    23dc:	6b00027f 	cmp	w19, w0
    23e0:	540000e3 	b.cc	23fc <TEE_AllocateOperation+0x10c>
    23e4:	11000400 	add	w0, w0, #0x1
    23e8:	6b00027f 	cmp	w19, w0
    23ec:	540028c9 	b.ls	2904 <TEE_AllocateOperation+0x614>
    23f0:	11000800 	add	w0, w0, #0x2
    23f4:	6b00027f 	cmp	w19, w0
    23f8:	54002860 	b.eq	2904 <TEE_AllocateOperation+0x614>
/home/pedro/devel/optee/optee_os/lib/libutee/tee_api_operations.c:270
    23fc:	129ffeb4 	mov	w20, #0xffff000a            	// #-65526
    2400:	1400003b 	b	24ec <TEE_AllocateOperation+0x1fc>
/home/pedro/devel/optee/optee_os/lib/libutee/tee_api_operations.c:76
    2404:	52862620 	mov	w0, #0x3131                	// #12593
    2408:	72ae0000 	movk	w0, #0x7000, lsl #16
    240c:	6b00027f 	cmp	w19, w0
    2410:	54000680 	b.eq	24e0 <TEE_AllocateOperation+0x1f0>
    2414:	113c4000 	add	w0, w0, #0xf10
    2418:	6b00027f 	cmp	w19, w0
    241c:	54000860 	b.eq	2528 <TEE_AllocateOperation+0x238>
    2420:	52860820 	mov	w0, #0x3041                	// #12353
    2424:	72ae0000 	movk	w0, #0x7000, lsl #16
    2428:	6b00027f 	cmp	w19, w0
    242c:	54fffa61 	b.ne	2378 <TEE_AllocateOperation+0x88>
/home/pedro/devel/optee/optee_os/lib/libutee/tee_api_operations.c:81
    2430:	129ffeb4 	mov	w20, #0xffff000a            	// #-65526
/home/pedro/devel/optee/optee_os/lib/libutee/tee_api_operations.c:110
    2434:	710402ff 	cmp	w23, #0x100
    2438:	14000010 	b	2478 <TEE_AllocateOperation+0x188>
/home/pedro/devel/optee/optee_os/lib/libutee/tee_api_operations.c:76
    243c:	52840840 	mov	w0, #0x2042                	// #8258
    2440:	72b00000 	movk	w0, #0x8000, lsl #16
    2444:	6b00027f 	cmp	w19, w0
    2448:	540006a0 	b.eq	251c <TEE_AllocateOperation+0x22c>
    244c:	540001a8 	b.hi	2480 <TEE_AllocateOperation+0x190>
    2450:	528a0820 	mov	w0, #0x5041                	// #20545
    2454:	72ae0000 	movk	w0, #0x7000, lsl #16
    2458:	6b00027f 	cmp	w19, w0
    245c:	540006c0 	b.eq	2534 <TEE_AllocateOperation+0x244>
    2460:	52820840 	mov	w0, #0x1042                	// #4162
    2464:	72b00000 	movk	w0, #0x8000, lsl #16
    2468:	6b00027f 	cmp	w19, w0
    246c:	54fff861 	b.ne	2378 <TEE_AllocateOperation+0x88>
/home/pedro/devel/optee/optee_os/lib/libutee/tee_api_operations.c:98
    2470:	710302ff 	cmp	w23, #0xc0
/home/pedro/devel/optee/optee_os/lib/libutee/tee_api_operations.c:81
    2474:	129ffeb4 	mov	w20, #0xffff000a            	// #-65526
/home/pedro/devel/optee/optee_os/lib/libutee/tee_api_operations.c:122
    2478:	540003a1 	b.ne	24ec <TEE_AllocateOperation+0x1fc>
    247c:	17ffffbf 	b	2378 <TEE_AllocateOperation+0x88>
/home/pedro/devel/optee/optee_os/lib/libutee/tee_api_operations.c:76
    2480:	52880840 	mov	w0, #0x4042                	// #16450
    2484:	72b00000 	movk	w0, #0x8000, lsl #16
    2488:	6b00027f 	cmp	w19, w0
    248c:	540004e0 	b.eq	2528 <TEE_AllocateOperation+0x238>
    2490:	11400400 	add	w0, w0, #0x1, lsl #12
    2494:	6b00027f 	cmp	w19, w0
    2498:	540004e0 	b.eq	2534 <TEE_AllocateOperation+0x244>
    249c:	52860840 	mov	w0, #0x3042                	// #12354
    24a0:	72b00000 	movk	w0, #0x8000, lsl #16
    24a4:	17ffffe1 	b	2428 <TEE_AllocateOperation+0x138>
/home/pedro/devel/optee/optee_os/lib/libutee/tee_api_operations.c:80
    24a8:	510802e0 	sub	w0, w23, #0x200
/home/pedro/devel/optee/optee_os/lib/libutee/tee_api_operations.c:81
    24ac:	129ffeb4 	mov	w20, #0xffff000a            	// #-65526
/home/pedro/devel/optee/optee_os/lib/libutee/tee_api_operations.c:80
    24b0:	7108001f 	cmp	w0, #0x200
    24b4:	540001c8 	b.hi	24ec <TEE_AllocateOperation+0x1fc>
/home/pedro/devel/optee/optee_os/lib/libutee/tee_api_operations.c:82
    24b8:	f24016ff 	tst	x23, #0x3f
    24bc:	54000181 	b.ne	24ec <TEE_AllocateOperation+0x1fc>
/home/pedro/devel/optee/optee_os/lib/libutee/tee_api_operations.c:177
    24c0:	71000b1f 	cmp	w24, #0x2
    24c4:	540029c0 	b.eq	29fc <TEE_AllocateOperation+0x70c>
/home/pedro/devel/optee/optee_os/lib/libutee/tee_api_operations.c:180
    24c8:	71000f1f 	cmp	w24, #0x3
    24cc:	54fff981 	b.ne	23fc <TEE_AllocateOperation+0x10c>
/home/pedro/devel/optee/optee_os/lib/libutee/tee_api_operations.c:67
    24d0:	52800019 	mov	w25, #0x0                   	// #0
/home/pedro/devel/optee/optee_os/lib/libutee/tee_api_operations.c:66
    24d4:	5280001a 	mov	w26, #0x0                   	// #0
/home/pedro/devel/optee/optee_os/lib/libutee/tee_api_operations.c:181
    24d8:	52800403 	mov	w3, #0x20                  	// #32
    24dc:	140000d6 	b	2834 <TEE_AllocateOperation+0x544>
/home/pedro/devel/optee/optee_os/lib/libutee/tee_api_operations.c:87
    24e0:	712002ff 	cmp	w23, #0x800
/home/pedro/devel/optee/optee_os/lib/libutee/tee_api_operations.c:81
    24e4:	129ffeb4 	mov	w20, #0xffff000a            	// #-65526
/home/pedro/devel/optee/optee_os/lib/libutee/tee_api_operations.c:92
    24e8:	54fffec0 	b.eq	24c0 <TEE_AllocateOperation+0x1d0>
/home/pedro/devel/optee/optee_os/lib/libutee/tee_api_operations.c:364
    24ec:	2a1403e0 	mov	w0, w20
    24f0:	a94153f3 	ldp	x19, x20, [sp,#16]
    24f4:	a9425bf5 	ldp	x21, x22, [sp,#32]
    24f8:	a94363f7 	ldp	x23, x24, [sp,#48]
    24fc:	a9446bf9 	ldp	x25, x26, [sp,#64]
    2500:	a94573fb 	ldp	x27, x28, [sp,#80]
    2504:	a8c77bfd 	ldp	x29, x30, [sp],#112
    2508:	d65f03c0 	ret
/home/pedro/devel/optee/optee_os/lib/libutee/tee_api_operations.c:92
    250c:	12157ae0 	and	w0, w23, #0xfffffbff
/home/pedro/devel/optee/optee_os/lib/libutee/tee_api_operations.c:81
    2510:	129ffeb4 	mov	w20, #0xffff000a            	// #-65526
/home/pedro/devel/optee/optee_os/lib/libutee/tee_api_operations.c:92
    2514:	7120001f 	cmp	w0, #0x800
    2518:	17fffff4 	b	24e8 <TEE_AllocateOperation+0x1f8>
/home/pedro/devel/optee/optee_os/lib/libutee/tee_api_operations.c:81
    251c:	129ffeb4 	mov	w20, #0xffff000a            	// #-65526
/home/pedro/devel/optee/optee_os/lib/libutee/tee_api_operations.c:104
    2520:	710382ff 	cmp	w23, #0xe0
    2524:	17ffffd5 	b	2478 <TEE_AllocateOperation+0x188>
/home/pedro/devel/optee/optee_os/lib/libutee/tee_api_operations.c:81
    2528:	129ffeb4 	mov	w20, #0xffff000a            	// #-65526
/home/pedro/devel/optee/optee_os/lib/libutee/tee_api_operations.c:116
    252c:	710602ff 	cmp	w23, #0x180
    2530:	17ffffd2 	b	2478 <TEE_AllocateOperation+0x188>
/home/pedro/devel/optee/optee_os/lib/libutee/tee_api_operations.c:81
    2534:	129ffeb4 	mov	w20, #0xffff000a            	// #-65526
/home/pedro/devel/optee/optee_os/lib/libutee/tee_api_operations.c:122
    2538:	710826ff 	cmp	w23, #0x209
    253c:	17ffffcf 	b	2478 <TEE_AllocateOperation+0x188>
/home/pedro/devel/optee/optee_os/lib/libutee/tee_api_operations.c:131
    2540:	52802260 	mov	w0, #0x113                 	// #275
    2544:	72a20000 	movk	w0, #0x1000, lsl #16
    2548:	6b00027f 	cmp	w19, w0
    254c:	54001dc0 	b.eq	2904 <TEE_AllocateOperation+0x614>
    2550:	1103f400 	add	w0, w0, #0xfd
    2554:	6b00027f 	cmp	w19, w0
    2558:	54fff521 	b.ne	23fc <TEE_AllocateOperation+0x10c>
    255c:	5280001c 	mov	w28, #0x0                   	// #0
/home/pedro/devel/optee/optee_os/lib/libutee/tee_api_operations.c:67
    2560:	52800019 	mov	w25, #0x0                   	// #0
/home/pedro/devel/optee/optee_os/lib/libutee/tee_api_operations.c:64
    2564:	d2800036 	mov	x22, #0x1                   	// #1
    2568:	140000df 	b	28e4 <TEE_AllocateOperation+0x5f4>
/home/pedro/devel/optee/optee_os/lib/libutee/tee_api_operations.c:131
    256c:	72a60000 	movk	w0, #0x3000, lsl #16
    2570:	6b00027f 	cmp	w19, w0
    2574:	54000208 	b.hi	25b4 <TEE_AllocateOperation+0x2c4>
    2578:	52802200 	mov	w0, #0x110                 	// #272
    257c:	72a60000 	movk	w0, #0x3000, lsl #16
    2580:	6b00027f 	cmp	w19, w0
    2584:	540000a2 	b.cs	2598 <TEE_AllocateOperation+0x2a8>
    2588:	12a60000 	mov	w0, #0xcfffffff            	// #-805306369
    258c:	0b000260 	add	w0, w19, w0
    2590:	7100141f 	cmp	w0, #0x5
    2594:	54fff348 	b.hi	23fc <TEE_AllocateOperation+0x10c>
/home/pedro/devel/optee/optee_os/lib/libutee/tee_api_operations.c:81
    2598:	129ffeb4 	mov	w20, #0xffff000a            	// #-65526
/home/pedro/devel/optee/optee_os/lib/libutee/tee_api_operations.c:264
    259c:	7100131f 	cmp	w24, #0x4
    25a0:	54fffa61 	b.ne	24ec <TEE_AllocateOperation+0x1fc>
/home/pedro/devel/optee/optee_os/lib/libutee/tee_api_operations.c:67
    25a4:	52800019 	mov	w25, #0x0                   	// #0
/home/pedro/devel/optee/optee_os/lib/libutee/tee_api_operations.c:66
    25a8:	5280001a 	mov	w26, #0x0                   	// #0
/home/pedro/devel/optee/optee_os/lib/libutee/tee_api_operations.c:266
    25ac:	52800103 	mov	w3, #0x8                   	// #8
    25b0:	140000a1 	b	2834 <TEE_AllocateOperation+0x544>
/home/pedro/devel/optee/optee_os/lib/libutee/tee_api_operations.c:131
    25b4:	52802260 	mov	w0, #0x113                 	// #275
    25b8:	72a60000 	movk	w0, #0x3000, lsl #16
    25bc:	6b00027f 	cmp	w19, w0
    25c0:	54fffec0 	b.eq	2598 <TEE_AllocateOperation+0x2a8>
    25c4:	54fff1c3 	b.cc	23fc <TEE_AllocateOperation+0x10c>
    25c8:	529f5e00 	mov	w0, #0xfaf0                	// #64240
    25cc:	72b9ffe0 	movk	w0, #0xcfff, lsl #16
    25d0:	0b000260 	add	w0, w19, w0
    25d4:	7100041f 	cmp	w0, #0x1
    25d8:	17ffffef 	b	2594 <TEE_AllocateOperation+0x2a4>
    25dc:	52804600 	mov	w0, #0x230                 	// #560
    25e0:	72ac0420 	movk	w0, #0x6021, lsl #16
    25e4:	6b00027f 	cmp	w19, w0
    25e8:	540003a0 	b.eq	265c <TEE_AllocateOperation+0x36c>
    25ec:	54000468 	b.hi	2678 <TEE_AllocateOperation+0x388>
    25f0:	528000c0 	mov	w0, #0x6                   	// #6
    25f4:	72aa0000 	movk	w0, #0x5000, lsl #16
    25f8:	6b00027f 	cmp	w19, w0
    25fc:	54000228 	b.hi	2640 <TEE_AllocateOperation+0x350>
    2600:	52800020 	mov	w0, #0x1                   	// #1
    2604:	72aa0000 	movk	w0, #0x5000, lsl #16
    2608:	6b00027f 	cmp	w19, w0
    260c:	54001902 	b.cs	292c <TEE_AllocateOperation+0x63c>
    2610:	5280e200 	mov	w0, #0x710                 	// #1808
    2614:	72a80000 	movk	w0, #0x4000, lsl #16
    2618:	6b00027f 	cmp	w19, w0
    261c:	54001740 	b.eq	2904 <TEE_AllocateOperation+0x614>
    2620:	11040000 	add	w0, w0, #0x100
    2624:	6b00027f 	cmp	w19, w0
    2628:	54fff9a0 	b.eq	255c <TEE_AllocateOperation+0x26c>
    262c:	5280c200 	mov	w0, #0x610                 	// #1552
    2630:	72a60000 	movk	w0, #0x3000, lsl #16
    2634:	6b00027f 	cmp	w19, w0
    2638:	54ffee21 	b.ne	23fc <TEE_AllocateOperation+0x10c>
    263c:	17ffffd7 	b	2598 <TEE_AllocateOperation+0x2a8>
    2640:	52800600 	mov	w0, #0x30                  	// #48
    2644:	72ac0000 	movk	w0, #0x6000, lsl #16
    2648:	6b00027f 	cmp	w19, w0
    264c:	54001620 	b.eq	2910 <TEE_AllocateOperation+0x620>
    2650:	11040000 	add	w0, w0, #0x100
    2654:	6b00027f 	cmp	w19, w0
    2658:	54ffed21 	b.ne	23fc <TEE_AllocateOperation+0x10c>
/home/pedro/devel/optee/optee_os/lib/libutee/tee_api_operations.c:193
    265c:	34001d98 	cbz	w24, 2a0c <TEE_AllocateOperation+0x71c>
/home/pedro/devel/optee/optee_os/lib/libutee/tee_api_operations.c:195
    2660:	7100071f 	cmp	w24, #0x1
    2664:	54ffecc1 	b.ne	23fc <TEE_AllocateOperation+0x10c>
/home/pedro/devel/optee/optee_os/lib/libutee/tee_api_operations.c:67
    2668:	52800019 	mov	w25, #0x0                   	// #0
/home/pedro/devel/optee/optee_os/lib/libutee/tee_api_operations.c:196
    266c:	2a1803fa 	mov	w26, w24
/home/pedro/devel/optee/optee_os/lib/libutee/tee_api_operations.c:197
    2670:	52800083 	mov	w3, #0x4                   	// #4
    2674:	14000070 	b	2834 <TEE_AllocateOperation+0x544>
/home/pedro/devel/optee/optee_os/lib/libutee/tee_api_operations.c:131
    2678:	52804600 	mov	w0, #0x230                 	// #560
    267c:	72ac0c20 	movk	w0, #0x6061, lsl #16
    2680:	6b00027f 	cmp	w19, w0
    2684:	54fffec0 	b.eq	265c <TEE_AllocateOperation+0x36c>
    2688:	54000168 	b.hi	26b4 <TEE_AllocateOperation+0x3c4>
    268c:	52804600 	mov	w0, #0x230                 	// #560
    2690:	72ac0820 	movk	w0, #0x6041, lsl #16
    2694:	6b00027f 	cmp	w19, w0
    2698:	54fffe20 	b.eq	265c <TEE_AllocateOperation+0x36c>
    269c:	11440000 	add	w0, w0, #0x100, lsl #12
    26a0:	6b00027f 	cmp	w19, w0
    26a4:	54fffdc0 	b.eq	265c <TEE_AllocateOperation+0x36c>
    26a8:	52804600 	mov	w0, #0x230                 	// #560
    26ac:	72ac0620 	movk	w0, #0x6031, lsl #16
    26b0:	17ffffe9 	b	2654 <TEE_AllocateOperation+0x364>
    26b4:	52830600 	mov	w0, #0x1830                	// #6192
    26b8:	72ae0000 	movk	w0, #0x7000, lsl #16
    26bc:	6b00027f 	cmp	w19, w0
    26c0:	54fff000 	b.eq	24c0 <TEE_AllocateOperation+0x1d0>
    26c4:	11204400 	add	w0, w0, #0x811
    26c8:	6b00027f 	cmp	w19, w0
    26cc:	54ffefa0 	b.eq	24c0 <TEE_AllocateOperation+0x1d0>
    26d0:	52820820 	mov	w0, #0x1041                	// #4161
    26d4:	72ae0000 	movk	w0, #0x7000, lsl #16
    26d8:	6b00027f 	cmp	w19, w0
    26dc:	54ffe901 	b.ne	23fc <TEE_AllocateOperation+0x10c>
    26e0:	17ffff78 	b	24c0 <TEE_AllocateOperation+0x1d0>
    26e4:	52800640 	mov	w0, #0x32                  	// #50
    26e8:	72b00000 	movk	w0, #0x8000, lsl #16
    26ec:	6b00027f 	cmp	w19, w0
    26f0:	54000960 	b.eq	281c <TEE_AllocateOperation+0x52c>
    26f4:	540006c8 	b.hi	27cc <TEE_AllocateOperation+0x4dc>
    26f8:	528a0820 	mov	w0, #0x5041                	// #20545
    26fc:	72ae0000 	movk	w0, #0x7000, lsl #16
    2700:	6b00027f 	cmp	w19, w0
    2704:	54ffede0 	b.eq	24c0 <TEE_AllocateOperation+0x1d0>
    2708:	54000308 	b.hi	2768 <TEE_AllocateOperation+0x478>
    270c:	52870600 	mov	w0, #0x3830                	// #14384
    2710:	72ae0000 	movk	w0, #0x7000, lsl #16
    2714:	6b00027f 	cmp	w19, w0
    2718:	54ffed40 	b.eq	24c0 <TEE_AllocateOperation+0x1d0>
    271c:	54000148 	b.hi	2744 <TEE_AllocateOperation+0x454>
    2720:	52860820 	mov	w0, #0x3041                	// #12353
    2724:	72ae0000 	movk	w0, #0x7000, lsl #16
    2728:	6b00027f 	cmp	w19, w0
    272c:	54ffeca0 	b.eq	24c0 <TEE_AllocateOperation+0x1d0>
    2730:	1103c000 	add	w0, w0, #0xf0
    2734:	6b00027f 	cmp	w19, w0
    2738:	54ffec40 	b.eq	24c0 <TEE_AllocateOperation+0x1d0>
    273c:	52850600 	mov	w0, #0x2830                	// #10288
    2740:	17ffffe5 	b	26d4 <TEE_AllocateOperation+0x3e4>
    2744:	52882620 	mov	w0, #0x4131                	// #16689
    2748:	72ae0000 	movk	w0, #0x7000, lsl #16
    274c:	6b00027f 	cmp	w19, w0
    2750:	54ffeb80 	b.eq	24c0 <TEE_AllocateOperation+0x1d0>
    2754:	111bfc00 	add	w0, w0, #0x6ff
    2758:	6b00027f 	cmp	w19, w0
    275c:	54ffeb20 	b.eq	24c0 <TEE_AllocateOperation+0x1d0>
    2760:	52880820 	mov	w0, #0x4041                	// #16449
    2764:	17ffffdc 	b	26d4 <TEE_AllocateOperation+0x3e4>
    2768:	52872600 	mov	w0, #0x3930                	// #14640
    276c:	72ae0620 	movk	w0, #0x7031, lsl #16
    2770:	6b00027f 	cmp	w19, w0
    2774:	54ffea60 	b.eq	24c0 <TEE_AllocateOperation+0x1d0>
    2778:	54000168 	b.hi	27a4 <TEE_AllocateOperation+0x4b4>
    277c:	528d0600 	mov	w0, #0x6830                	// #26672
    2780:	72ae0000 	movk	w0, #0x7000, lsl #16
    2784:	6b00027f 	cmp	w19, w0
    2788:	54ffe9c0 	b.eq	24c0 <TEE_AllocateOperation+0x1d0>
    278c:	52852600 	mov	w0, #0x2930                	// #10544
    2790:	72ae0420 	movk	w0, #0x7021, lsl #16
    2794:	6b00027f 	cmp	w19, w0
    2798:	54ffe940 	b.eq	24c0 <TEE_AllocateOperation+0x1d0>
    279c:	528b0600 	mov	w0, #0x5830                	// #22576
    27a0:	17ffffcd 	b	26d4 <TEE_AllocateOperation+0x3e4>
    27a4:	528b2600 	mov	w0, #0x5930                	// #22832
    27a8:	72ae0a20 	movk	w0, #0x7051, lsl #16
    27ac:	6b00027f 	cmp	w19, w0
    27b0:	54ffe880 	b.eq	24c0 <TEE_AllocateOperation+0x1d0>
    27b4:	11440400 	add	w0, w0, #0x101, lsl #12
    27b8:	6b00027f 	cmp	w19, w0
    27bc:	54ffe820 	b.eq	24c0 <TEE_AllocateOperation+0x1d0>
    27c0:	52892600 	mov	w0, #0x4930                	// #18736
    27c4:	72ae0820 	movk	w0, #0x7041, lsl #16
    27c8:	17ffffc4 	b	26d8 <TEE_AllocateOperation+0x3e8>
    27cc:	52861820 	mov	w0, #0x30c1                	// #12481
    27d0:	72b00000 	movk	w0, #0x8000, lsl #16
    27d4:	6b00027f 	cmp	w19, w0
    27d8:	54000468 	b.hi	2864 <TEE_AllocateOperation+0x574>
    27dc:	52861800 	mov	w0, #0x30c0                	// #12480
    27e0:	72b00000 	movk	w0, #0x8000, lsl #16
    27e4:	6b00027f 	cmp	w19, w0
    27e8:	540001a2 	b.cs	281c <TEE_AllocateOperation+0x52c>
    27ec:	52840840 	mov	w0, #0x2042                	// #8258
    27f0:	72b00000 	movk	w0, #0x8000, lsl #16
    27f4:	6b00027f 	cmp	w19, w0
    27f8:	54000120 	b.eq	281c <TEE_AllocateOperation+0x52c>
    27fc:	54000228 	b.hi	2840 <TEE_AllocateOperation+0x550>
    2800:	52820840 	mov	w0, #0x1042                	// #4162
    2804:	72b00000 	movk	w0, #0x8000, lsl #16
    2808:	6b00027f 	cmp	w19, w0
    280c:	54000080 	b.eq	281c <TEE_AllocateOperation+0x52c>
    2810:	1101f800 	add	w0, w0, #0x7e
    2814:	6b00027f 	cmp	w19, w0
    2818:	54ffdf21 	b.ne	23fc <TEE_AllocateOperation+0x10c>
/home/pedro/devel/optee/optee_os/lib/libutee/tee_api_operations.c:81
    281c:	129ffeb4 	mov	w20, #0xffff000a            	// #-65526
/home/pedro/devel/optee/optee_os/lib/libutee/tee_api_operations.c:232
    2820:	71001b1f 	cmp	w24, #0x6
    2824:	54ffe641 	b.ne	24ec <TEE_AllocateOperation+0x1fc>
/home/pedro/devel/optee/optee_os/lib/libutee/tee_api_operations.c:67
    2828:	52800019 	mov	w25, #0x0                   	// #0
/home/pedro/devel/optee/optee_os/lib/libutee/tee_api_operations.c:234
    282c:	5280003a 	mov	w26, #0x1                   	// #1
/home/pedro/devel/optee/optee_os/lib/libutee/tee_api_operations.c:235
    2830:	52800803 	mov	w3, #0x40                  	// #64
/home/pedro/devel/optee/optee_os/lib/libutee/tee_api_operations.c:64
    2834:	d2800036 	mov	x22, #0x1                   	// #1
    2838:	5280001c 	mov	w28, #0x0                   	// #0
    283c:	14000044 	b	294c <TEE_AllocateOperation+0x65c>
/home/pedro/devel/optee/optee_os/lib/libutee/tee_api_operations.c:131
    2840:	52841800 	mov	w0, #0x20c0                	// #8384
    2844:	72b00000 	movk	w0, #0x8000, lsl #16
    2848:	6b00027f 	cmp	w19, w0
    284c:	54ffdd83 	b.cc	23fc <TEE_AllocateOperation+0x10c>
    2850:	11000800 	add	w0, w0, #0x2
    2854:	6b00027f 	cmp	w19, w0
    2858:	54fffe29 	b.ls	281c <TEE_AllocateOperation+0x52c>
    285c:	113e0000 	add	w0, w0, #0xf80
    2860:	17ffffed 	b	2814 <TEE_AllocateOperation+0x524>
    2864:	528a0840 	mov	w0, #0x5042                	// #20546
    2868:	72b00000 	movk	w0, #0x8000, lsl #16
    286c:	6b00027f 	cmp	w19, w0
    2870:	54fffd60 	b.eq	281c <TEE_AllocateOperation+0x52c>
    2874:	54000188 	b.hi	28a4 <TEE_AllocateOperation+0x5b4>
    2878:	52880840 	mov	w0, #0x4042                	// #16450
    287c:	72b00000 	movk	w0, #0x8000, lsl #16
    2880:	6b00027f 	cmp	w19, w0
    2884:	54fffcc0 	b.eq	281c <TEE_AllocateOperation+0x52c>
    2888:	5297e800 	mov	w0, #0xbf40                	// #48960
    288c:	54ffdb83 	b.cc	23fc <TEE_AllocateOperation+0x10c>
    2890:	72afffe0 	movk	w0, #0x7fff, lsl #16
    2894:	0b000260 	add	w0, w19, w0
    2898:	7100041f 	cmp	w0, #0x1
    289c:	54fffc09 	b.ls	281c <TEE_AllocateOperation+0x52c>
    28a0:	17fffed7 	b	23fc <TEE_AllocateOperation+0x10c>
    28a4:	528a1800 	mov	w0, #0x50c0                	// #20672
    28a8:	72b00000 	movk	w0, #0x8000, lsl #16
    28ac:	6b00027f 	cmp	w19, w0
    28b0:	54ffda63 	b.cc	23fc <TEE_AllocateOperation+0x10c>
    28b4:	11000400 	add	w0, w0, #0x1
    28b8:	6b00027f 	cmp	w19, w0
    28bc:	54fffb09 	b.ls	281c <TEE_AllocateOperation+0x52c>
    28c0:	5293e800 	mov	w0, #0x9f40                	// #40768
    28c4:	17fffff3 	b	2890 <TEE_AllocateOperation+0x5a0>
/home/pedro/devel/optee/optee_os/lib/libutee/tee_api_operations.c:73
    28c8:	52a0011c 	mov	w28, #0x80000               	// #524288
/home/pedro/devel/optee/optee_os/lib/libutee/tee_api_operations.c:134
    28cc:	52800039 	mov	w25, #0x1                   	// #1
/home/pedro/devel/optee/optee_os/lib/libutee/tee_api_operations.c:143
    28d0:	12001e60 	and	w0, w19, #0xff
/home/pedro/devel/optee/optee_os/lib/libutee/tee_api_operations.c:146
    28d4:	d2800216 	mov	x22, #0x10                  	// #16
    28d8:	7100401f 	cmp	w0, #0x10
    28dc:	d2800100 	mov	x0, #0x8                   	// #8
    28e0:	9a8002d6 	csel	x22, x22, x0, eq
/home/pedro/devel/optee/optee_os/lib/libutee/tee_api_operations.c:150
    28e4:	34000878 	cbz	w24, 29f0 <TEE_AllocateOperation+0x700>
/home/pedro/devel/optee/optee_os/lib/libutee/tee_api_operations.c:152
    28e8:	7100071f 	cmp	w24, #0x1
    28ec:	54ffd881 	b.ne	23fc <TEE_AllocateOperation+0x10c>
/home/pedro/devel/optee/optee_os/lib/libutee/tee_api_operations.c:66
    28f0:	5280001a 	mov	w26, #0x0                   	// #0
/home/pedro/devel/optee/optee_os/lib/libutee/tee_api_operations.c:153
    28f4:	52800083 	mov	w3, #0x4                   	// #4
    28f8:	14000015 	b	294c <TEE_AllocateOperation+0x65c>
/home/pedro/devel/optee/optee_os/lib/libutee/tee_api_operations.c:131
    28fc:	5280001c 	mov	w28, #0x0                   	// #0
    2900:	17fffff3 	b	28cc <TEE_AllocateOperation+0x5dc>
    2904:	5280001c 	mov	w28, #0x0                   	// #0
/home/pedro/devel/optee/optee_os/lib/libutee/tee_api_operations.c:67
    2908:	52800019 	mov	w25, #0x0                   	// #0
    290c:	17fffff1 	b	28d0 <TEE_AllocateOperation+0x5e0>
/home/pedro/devel/optee/optee_os/lib/libutee/tee_api_operations.c:204
    2910:	340008b8 	cbz	w24, 2a24 <TEE_AllocateOperation+0x734>
/home/pedro/devel/optee/optee_os/lib/libutee/tee_api_operations.c:206
    2914:	7100071f 	cmp	w24, #0x1
    2918:	54ffd721 	b.ne	23fc <TEE_AllocateOperation+0x10c>
/home/pedro/devel/optee/optee_os/lib/libutee/tee_api_operations.c:67
    291c:	52800019 	mov	w25, #0x0                   	// #0
/home/pedro/devel/optee/optee_os/lib/libutee/tee_api_operations.c:207
    2920:	5280003a 	mov	w26, #0x1                   	// #1
/home/pedro/devel/optee/optee_os/lib/libutee/tee_api_operations.c:208
    2924:	52800283 	mov	w3, #0x14                  	// #20
    2928:	17ffffc3 	b	2834 <TEE_AllocateOperation+0x544>
/home/pedro/devel/optee/optee_os/lib/libutee/tee_api_operations.c:81
    292c:	129ffeb4 	mov	w20, #0xffff000a            	// #-65526
/home/pedro/devel/optee/optee_os/lib/libutee/tee_api_operations.c:244
    2930:	7100171f 	cmp	w24, #0x5
    2934:	54ffddc1 	b.ne	24ec <TEE_AllocateOperation+0x1fc>
/home/pedro/devel/optee/optee_os/lib/libutee/tee_api_operations.c:67
    2938:	52800019 	mov	w25, #0x0                   	// #0
/home/pedro/devel/optee/optee_os/lib/libutee/tee_api_operations.c:66
    293c:	5280001a 	mov	w26, #0x0                   	// #0
/home/pedro/devel/optee/optee_os/lib/libutee/tee_api_operations.c:248
    2940:	52800003 	mov	w3, #0x0                   	// #0
/home/pedro/devel/optee/optee_os/lib/libutee/tee_api_operations.c:64
    2944:	d2800036 	mov	x22, #0x1                   	// #1
/home/pedro/devel/optee/optee_os/lib/libutee/tee_api_operations.c:247
    2948:	52a0009c 	mov	w28, #0x40000               	// #262144
/home/pedro/devel/optee/optee_os/lib/libutee/tee_api_operations.c:273
    294c:	52800001 	mov	w1, #0x0                   	// #0
    2950:	52800c00 	mov	w0, #0x60                  	// #96
    2954:	b90067a3 	str	w3, [x29,#100]
/home/pedro/devel/optee/optee_os/lib/libutee/tee_api_operations.c:275
    2958:	129ffe74 	mov	w20, #0xffff000c            	// #-65524
/home/pedro/devel/optee/optee_os/lib/libutee/tee_api_operations.c:273
    295c:	97fffb1c 	bl	15cc <TEE_Malloc>
    2960:	aa0003f5 	mov	x21, x0
/home/pedro/devel/optee/optee_os/lib/libutee/tee_api_operations.c:274
    2964:	b4ffdc40 	cbz	x0, 24ec <TEE_AllocateOperation+0x1fc>
/home/pedro/devel/optee/optee_os/lib/libutee/tee_api_operations.c:281
    2968:	b94067a3 	ldr	w3, [x29,#100]
/home/pedro/devel/optee/optee_os/lib/libutee/tee_api_operations.c:278
    296c:	531c7e7b 	lsr	w27, w19, #28
/home/pedro/devel/optee/optee_os/lib/libutee/tee_api_operations.c:279
    2970:	b9000818 	str	w24, [x0,#8]
/home/pedro/devel/optee/optee_os/lib/libutee/tee_api_operations.c:284
    2974:	f10006df 	cmp	x22, #0x1
/home/pedro/devel/optee/optee_os/lib/libutee/tee_api_operations.c:278
    2978:	29006c13 	stp	w19, w27, [x0]
/home/pedro/devel/optee/optee_os/lib/libutee/tee_api_operations.c:280
    297c:	b9001017 	str	w23, [x0,#16]
/home/pedro/devel/optee/optee_os/lib/libutee/tee_api_operations.c:282
    2980:	29037003 	stp	w3, w28, [x0,#24]
/home/pedro/devel/optee/optee_os/lib/libutee/tee_api_operations.c:284
    2984:	540005a1 	b.ne	2a38 <TEE_AllocateOperation+0x748>
/home/pedro/devel/optee/optee_os/lib/libutee/tee_api_operations.c:298
    2988:	390102b9 	strb	w25, [x21,#64]
/home/pedro/devel/optee/optee_os/lib/libutee/tee_api_operations.c:300
    298c:	7100177f 	cmp	w27, #0x5
/home/pedro/devel/optee/optee_os/lib/libutee/tee_api_operations.c:297
    2990:	f90026b6 	str	x22, [x21,#72]
/home/pedro/devel/optee/optee_os/lib/libutee/tee_api_operations.c:300
    2994:	54000641 	b.ne	2a5c <TEE_AllocateOperation+0x76c>
/home/pedro/devel/optee/optee_os/lib/libutee/tee_api_operations.c:324
    2998:	a9420ea2 	ldp	x2, x3, [x21,#32]
    299c:	910162a4 	add	x4, x21, #0x58
    29a0:	2a1803e1 	mov	w1, w24
    29a4:	2a1303e0 	mov	w0, w19
    29a8:	94000824 	bl	4a38 <utee_cryp_state_alloc>
/home/pedro/devel/optee/optee_os/lib/libutee/tee_api_operations.c:326
    29ac:	35000b00 	cbnz	w0, 2b0c <TEE_AllocateOperation+0x81c>
/home/pedro/devel/optee/optee_os/lib/libutee/tee_api_operations.c:334
    29b0:	7100177f 	cmp	w27, #0x5
    29b4:	54000141 	b.ne	29dc <TEE_AllocateOperation+0x6ec>
/home/pedro/devel/optee/optee_os/lib/libutee/tee_api_operations.c:335
    29b8:	b9405aa0 	ldr	w0, [x21,#88]
    29bc:	d2800002 	mov	x2, #0x0                   	// #0
    29c0:	d2800001 	mov	x1, #0x0                   	// #0
    29c4:	94000826 	bl	4a5c <utee_hash_init>
    29c8:	2a0003f4 	mov	w20, w0
/home/pedro/devel/optee/optee_os/lib/libutee/tee_api_operations.c:336
    29cc:	35000780 	cbnz	w0, 2abc <TEE_AllocateOperation+0x7cc>
/home/pedro/devel/optee/optee_os/lib/libutee/tee_api_operations.c:339
    29d0:	b9401ea0 	ldr	w0, [x21,#28]
    29d4:	320f0000 	orr	w0, w0, #0x20000
    29d8:	b9001ea0 	str	w0, [x21,#28]
/home/pedro/devel/optee/optee_os/lib/libutee/tee_api_operations.c:344
    29dc:	f94037a0 	ldr	x0, [x29,#104]
    29e0:	52800014 	mov	w20, #0x0                   	// #0
/home/pedro/devel/optee/optee_os/lib/libutee/tee_api_operations.c:342
    29e4:	b90032bf 	str	wzr, [x21,#48]
/home/pedro/devel/optee/optee_os/lib/libutee/tee_api_operations.c:344
    29e8:	f9000015 	str	x21, [x0]
    29ec:	17fffec0 	b	24ec <TEE_AllocateOperation+0x1fc>
/home/pedro/devel/optee/optee_os/lib/libutee/tee_api_operations.c:66
    29f0:	5280001a 	mov	w26, #0x0                   	// #0
/home/pedro/devel/optee/optee_os/lib/libutee/tee_api_operations.c:151
    29f4:	52800043 	mov	w3, #0x2                   	// #2
    29f8:	17ffffd5 	b	294c <TEE_AllocateOperation+0x65c>
/home/pedro/devel/optee/optee_os/lib/libutee/tee_api_operations.c:67
    29fc:	52800019 	mov	w25, #0x0                   	// #0
/home/pedro/devel/optee/optee_os/lib/libutee/tee_api_operations.c:178
    2a00:	5280003a 	mov	w26, #0x1                   	// #1
/home/pedro/devel/optee/optee_os/lib/libutee/tee_api_operations.c:179
    2a04:	52800203 	mov	w3, #0x10                  	// #16
    2a08:	17ffff8b 	b	2834 <TEE_AllocateOperation+0x544>
    2a0c:	5280001c 	mov	w28, #0x0                   	// #0
/home/pedro/devel/optee/optee_os/lib/libutee/tee_api_operations.c:67
    2a10:	52800019 	mov	w25, #0x0                   	// #0
/home/pedro/devel/optee/optee_os/lib/libutee/tee_api_operations.c:66
    2a14:	5280001a 	mov	w26, #0x0                   	// #0
/home/pedro/devel/optee/optee_os/lib/libutee/tee_api_operations.c:194
    2a18:	52800043 	mov	w3, #0x2                   	// #2
/home/pedro/devel/optee/optee_os/lib/libutee/tee_api_operations.c:64
    2a1c:	d2800036 	mov	x22, #0x1                   	// #1
    2a20:	17ffffcb 	b	294c <TEE_AllocateOperation+0x65c>
    2a24:	5280001c 	mov	w28, #0x0                   	// #0
/home/pedro/devel/optee/optee_os/lib/libutee/tee_api_operations.c:67
    2a28:	52800019 	mov	w25, #0x0                   	// #0
/home/pedro/devel/optee/optee_os/lib/libutee/tee_api_operations.c:66
    2a2c:	5280001a 	mov	w26, #0x0                   	// #0
/home/pedro/devel/optee/optee_os/lib/libutee/tee_api_operations.c:205
    2a30:	52800443 	mov	w3, #0x22                  	// #34
    2a34:	17fffffa 	b	2a1c <TEE_AllocateOperation+0x72c>
/home/pedro/devel/optee/optee_os/lib/libutee/tee_api_operations.c:288
    2a38:	7100033f 	cmp	w25, #0x0
    2a3c:	d37ffac0 	lsl	x0, x22, #1
/home/pedro/devel/optee/optee_os/lib/libutee/tee_api_operations.c:290
    2a40:	52b00001 	mov	w1, #0x80000000            	// #-2147483648
    2a44:	9a961000 	csel	x0, x0, x22, ne
    2a48:	97fffae1 	bl	15cc <TEE_Malloc>
    2a4c:	f9001ea0 	str	x0, [x21,#56]
/home/pedro/devel/optee/optee_os/lib/libutee/tee_api_operations.c:292
    2a50:	b5fff9c0 	cbnz	x0, 2988 <TEE_AllocateOperation+0x698>
/home/pedro/devel/optee/optee_os/lib/libutee/tee_api_operations.c:293
    2a54:	129ffe74 	mov	w20, #0xffff000c            	// #-65524
    2a58:	14000019 	b	2abc <TEE_AllocateOperation+0x7cc>
/home/pedro/devel/optee/optee_os/lib/libutee/tee_api_operations.c:302
    2a5c:	7100035f 	cmp	w26, #0x0
    2a60:	52b40001 	mov	w1, #0xa0000000            	// #-1610612736
    2a64:	52b42000 	mov	w0, #0xa1000000            	// #-1593835520
    2a68:	1a811000 	csel	w0, w0, w1, ne
/home/pedro/devel/optee/optee_os/lib/libutee/tee_api_operations.c:309
    2a6c:	b9401ea1 	ldr	w1, [x21,#28]
/home/pedro/devel/optee/optee_os/lib/libutee/tee_api_operations.c:302
    2a70:	12001e76 	and	w22, w19, #0xff
    2a74:	2a160016 	orr	w22, w0, w22
/home/pedro/devel/optee/optee_os/lib/libutee/tee_api_operations.c:310
    2a78:	53017ee0 	lsr	w0, w23, #1
/home/pedro/devel/optee/optee_os/lib/libutee/tee_api_operations.c:312
    2a7c:	910082a2 	add	x2, x21, #0x20
/home/pedro/devel/optee/optee_os/lib/libutee/tee_api_operations.c:310
    2a80:	f26d003f 	tst	x1, #0x80000
    2a84:	1a971017 	csel	w23, w0, w23, ne
/home/pedro/devel/optee/optee_os/lib/libutee/tee_api_operations.c:312
    2a88:	2a1603e0 	mov	w0, w22
    2a8c:	2a1703e1 	mov	w1, w23
    2a90:	97fffb9d 	bl	1904 <TEE_AllocateTransientObject>
    2a94:	2a0003f4 	mov	w20, w0
/home/pedro/devel/optee/optee_os/lib/libutee/tee_api_operations.c:313
    2a98:	35000120 	cbnz	w0, 2abc <TEE_AllocateOperation+0x7cc>
/home/pedro/devel/optee/optee_os/lib/libutee/tee_api_operations.c:316
    2a9c:	b9401ea0 	ldr	w0, [x21,#28]
    2aa0:	369ff7c0 	tbz	w0, #19, 2998 <TEE_AllocateOperation+0x6a8>
/home/pedro/devel/optee/optee_os/lib/libutee/tee_api_operations.c:317
    2aa4:	9100a2a2 	add	x2, x21, #0x28
    2aa8:	2a1703e1 	mov	w1, w23
    2aac:	2a1603e0 	mov	w0, w22
    2ab0:	97fffb95 	bl	1904 <TEE_AllocateTransientObject>
    2ab4:	2a0003f4 	mov	w20, w0
/home/pedro/devel/optee/optee_os/lib/libutee/tee_api_operations.c:319
    2ab8:	34fff700 	cbz	w0, 2998 <TEE_AllocateOperation+0x6a8>
/home/pedro/devel/optee/optee_os/lib/libutee/tee_api_operations.c:349
    2abc:	529ffec0 	mov	w0, #0xfff6                	// #65526
    2ac0:	0b000280 	add	w0, w20, w0
/home/pedro/devel/optee/optee_os/lib/libutee/tee_api_operations.c:348
    2ac4:	721e781f 	tst	w0, #0xfffffffd
    2ac8:	54000060 	b.eq	2ad4 <TEE_AllocateOperation+0x7e4>
/home/pedro/devel/optee/optee_os/lib/libutee/tee_api_operations.c:350
    2acc:	2a1403e0 	mov	w0, w20
    2ad0:	940006fa 	bl	46b8 <TEE_Panic>
/home/pedro/devel/optee/optee_os/lib/libutee/tee_api_operations.c:352
    2ad4:	b9405aa0 	ldr	w0, [x21,#88]
    2ad8:	34000080 	cbz	w0, 2ae8 <TEE_AllocateOperation+0x7f8>
/home/pedro/devel/optee/optee_os/lib/libutee/tee_api_operations.c:353
    2adc:	aa1503e0 	mov	x0, x21
    2ae0:	97fffdf3 	bl	22ac <TEE_FreeOperation>
    2ae4:	17fffe82 	b	24ec <TEE_AllocateOperation+0x1fc>
/home/pedro/devel/optee/optee_os/lib/libutee/tee_api_operations.c:355
    2ae8:	f9401ea0 	ldr	x0, [x21,#56]
    2aec:	97fffabc 	bl	15dc <TEE_Free>
/home/pedro/devel/optee/optee_os/lib/libutee/tee_api_operations.c:356
    2af0:	f94012a0 	ldr	x0, [x21,#32]
    2af4:	97fffb9d 	bl	1968 <TEE_FreeTransientObject>
/home/pedro/devel/optee/optee_os/lib/libutee/tee_api_operations.c:357
    2af8:	f94016a0 	ldr	x0, [x21,#40]
    2afc:	97fffb9b 	bl	1968 <TEE_FreeTransientObject>
/home/pedro/devel/optee/optee_os/lib/libutee/tee_api_operations.c:358
    2b00:	aa1503e0 	mov	x0, x21
    2b04:	97fffab6 	bl	15dc <TEE_Free>
    2b08:	17fffe79 	b	24ec <TEE_AllocateOperation+0x1fc>
    2b0c:	2a0003f4 	mov	w20, w0
    2b10:	17ffffeb 	b	2abc <TEE_AllocateOperation+0x7cc>

0000000000002b14 <TEE_GetOperationInfo>:
TEE_GetOperationInfo():
/home/pedro/devel/optee/optee_os/lib/libutee/tee_api_operations.c:388
    2b14:	a9be7bfd 	stp	x29, x30, [sp,#-32]!
    2b18:	910003fd 	mov	x29, sp
    2b1c:	a90153f3 	stp	x19, x20, [sp,#16]
    2b20:	aa0003f4 	mov	x20, x0
    2b24:	aa0103f3 	mov	x19, x1
/home/pedro/devel/optee/optee_os/lib/libutee/tee_api_operations.c:389
    2b28:	b5000060 	cbnz	x0, 2b34 <TEE_GetOperationInfo+0x20>
/home/pedro/devel/optee/optee_os/lib/libutee/tee_api_operations.c:390
    2b2c:	52800000 	mov	w0, #0x0                   	// #0
    2b30:	940006e2 	bl	46b8 <TEE_Panic>
/home/pedro/devel/optee/optee_os/lib/libutee/tee_api_operations.c:392
    2b34:	b5000073 	cbnz	x19, 2b40 <TEE_GetOperationInfo+0x2c>
/home/pedro/devel/optee/optee_os/lib/libutee/tee_api_operations.c:393
    2b38:	52800000 	mov	w0, #0x0                   	// #0
    2b3c:	940006df 	bl	46b8 <TEE_Panic>
/home/pedro/devel/optee/optee_os/lib/libutee/tee_api_operations.c:395
    2b40:	aa1403e1 	mov	x1, x20
    2b44:	d2800402 	mov	x2, #0x20                  	// #32
    2b48:	aa1303e0 	mov	x0, x19
    2b4c:	94001046 	bl	6c64 <memcpy>
/home/pedro/devel/optee/optee_os/lib/libutee/tee_api_operations.c:396
    2b50:	a94153f3 	ldp	x19, x20, [sp,#16]
    2b54:	a8c27bfd 	ldp	x29, x30, [sp],#32
    2b58:	d65f03c0 	ret

0000000000002b5c <TEE_GetOperationInfoMultiple>:
TEE_GetOperationInfoMultiple():
/home/pedro/devel/optee/optee_os/lib/libutee/tee_api_operations.c:401
    2b5c:	a9b97bfd 	stp	x29, x30, [sp,#-112]!
/home/pedro/devel/optee/optee_os/lib/libutee/tee_api_operations.c:418
    2b60:	f100005f 	cmp	x2, #0x0
    2b64:	fa401824 	ccmp	x1, #0x0, #0x4, ne
/home/pedro/devel/optee/optee_os/lib/libutee/tee_api_operations.c:401
    2b68:	910003fd 	mov	x29, sp
    2b6c:	a9025bf5 	stp	x21, x22, [sp,#32]
/home/pedro/devel/optee/optee_os/lib/libutee/tee_api_operations.c:418
    2b70:	fa401804 	ccmp	x0, #0x0, #0x4, ne
/home/pedro/devel/optee/optee_os/lib/libutee/tee_api_operations.c:401
    2b74:	a90153f3 	stp	x19, x20, [sp,#16]
/home/pedro/devel/optee/optee_os/lib/libutee/tee_api_operations.c:419
    2b78:	129fff35 	mov	w21, #0xffff0006            	// #-65530
/home/pedro/devel/optee/optee_os/lib/libutee/tee_api_operations.c:418
    2b7c:	540004a0 	b.eq	2c10 <TEE_GetOperationInfoMultiple+0xb4>
/home/pedro/devel/optee/optee_os/lib/libutee/tee_api_operations.c:423
    2b80:	b9400056 	ldr	w22, [x2]
    2b84:	d10082d6 	sub	x22, x22, #0x20
    2b88:	d343fed6 	lsr	x22, x22, #3
/home/pedro/devel/optee/optee_os/lib/libutee/tee_api_operations.c:426
    2b8c:	71000adf 	cmp	w22, #0x2
    2b90:	54000408 	b.hi	2c10 <TEE_GetOperationInfoMultiple+0xb4>
    2b94:	aa0003f4 	mov	x20, x0
/home/pedro/devel/optee/optee_os/lib/libutee/tee_api_operations.c:432
    2b98:	b9401c00 	ldr	w0, [x0,#28]
/home/pedro/devel/optee/optee_os/lib/libutee/tee_api_operations.c:435
    2b9c:	129ffdf5 	mov	w21, #0xffff0010            	// #-65520
/home/pedro/devel/optee/optee_os/lib/libutee/tee_api_operations.c:433
    2ba0:	f26d001f 	tst	x0, #0x80000
    2ba4:	7a421ac4 	ccmp	w22, #0x2, #0x4, ne
    2ba8:	54000341 	b.ne	2c10 <TEE_GetOperationInfoMultiple+0xb4>
/home/pedro/devel/optee/optee_os/lib/libutee/tee_api_operations.c:440
    2bac:	92407ec2 	and	x2, x22, #0xffffffff
    2bb0:	aa0103f3 	mov	x19, x1
    2bb4:	91008020 	add	x0, x1, #0x20
/home/pedro/devel/optee/optee_os/lib/libutee/tee_api_operations.c:433
    2bb8:	d2800001 	mov	x1, #0x0                   	// #0
/home/pedro/devel/optee/optee_os/lib/libutee/tee_api_operations.c:440 (discriminator 1)
    2bbc:	eb02003f 	cmp	x1, x2
    2bc0:	540003e3 	b.cc	2c3c <TEE_GetOperationInfoMultiple+0xe0>
/home/pedro/devel/optee/optee_os/lib/libutee/tee_api_operations.c:445
    2bc4:	71000adf 	cmp	w22, #0x2
    2bc8:	54000421 	b.ne	2c4c <TEE_GetOperationInfoMultiple+0xf0>
/home/pedro/devel/optee/optee_os/lib/libutee/tee_api_operations.c:446
    2bcc:	f9401680 	ldr	x0, [x20,#40]
    2bd0:	910143a1 	add	x1, x29, #0x50
    2bd4:	97fffaae 	bl	168c <TEE_GetObjectInfo1>
    2bd8:	2a0003f5 	mov	w21, w0
/home/pedro/devel/optee/optee_os/lib/libutee/tee_api_operations.c:448
    2bdc:	350001a0 	cbnz	w0, 2c10 <TEE_GetOperationInfoMultiple+0xb4>
/home/pedro/devel/optee/optee_os/lib/libutee/tee_api_operations.c:451
    2be0:	b94057a0 	ldr	w0, [x29,#84]
    2be4:	b9002a60 	str	w0, [x19,#40]
/home/pedro/devel/optee/optee_os/lib/libutee/tee_api_operations.c:453
    2be8:	b9401a80 	ldr	w0, [x20,#24]
    2bec:	b9002e60 	str	w0, [x19,#44]
/home/pedro/devel/optee/optee_os/lib/libutee/tee_api_operations.c:458
    2bf0:	f9401280 	ldr	x0, [x20,#32]
    2bf4:	9100c3a1 	add	x1, x29, #0x30
    2bf8:	97fffaa5 	bl	168c <TEE_GetObjectInfo1>
    2bfc:	2a0003f5 	mov	w21, w0
/home/pedro/devel/optee/optee_os/lib/libutee/tee_api_operations.c:460
    2c00:	34000480 	cbz	w0, 2c90 <TEE_GetOperationInfoMultiple+0x134>
/home/pedro/devel/optee/optee_os/lib/libutee/tee_api_operations.c:461
    2c04:	71000adf 	cmp	w22, #0x2
    2c08:	54000041 	b.ne	2c10 <TEE_GetOperationInfoMultiple+0xb4>
/home/pedro/devel/optee/optee_os/lib/libutee/tee_api_operations.c:465
    2c0c:	29057e7f 	stp	wzr, wzr, [x19,#40]
/home/pedro/devel/optee/optee_os/lib/libutee/tee_api_operations.c:487
    2c10:	710002bf 	cmp	w21, #0x0
    2c14:	129ffde0 	mov	w0, #0xffff0010            	// #-65520
    2c18:	7a4012a4 	ccmp	w21, w0, #0x4, ne
    2c1c:	54000060 	b.eq	2c28 <TEE_GetOperationInfoMultiple+0xcc>
/home/pedro/devel/optee/optee_os/lib/libutee/tee_api_operations.c:489
    2c20:	2a1503e0 	mov	w0, w21
    2c24:	940006a5 	bl	46b8 <TEE_Panic>
/home/pedro/devel/optee/optee_os/lib/libutee/tee_api_operations.c:492
    2c28:	2a1503e0 	mov	w0, w21
    2c2c:	a94153f3 	ldp	x19, x20, [sp,#16]
    2c30:	a9425bf5 	ldp	x21, x22, [sp,#32]
    2c34:	a8c77bfd 	ldp	x29, x30, [sp],#112
    2c38:	d65f03c0 	ret
/home/pedro/devel/optee/optee_os/lib/libutee/tee_api_operations.c:442 (discriminator 3)
    2c3c:	29007c1f 	stp	wzr, wzr, [x0]
/home/pedro/devel/optee/optee_os/lib/libutee/tee_api_operations.c:440 (discriminator 3)
    2c40:	91000421 	add	x1, x1, #0x1
    2c44:	91002000 	add	x0, x0, #0x8
    2c48:	17ffffdd 	b	2bbc <TEE_GetOperationInfoMultiple+0x60>
/home/pedro/devel/optee/optee_os/lib/libutee/tee_api_operations.c:457
    2c4c:	35fffd36 	cbnz	w22, 2bf0 <TEE_GetOperationInfoMultiple+0x94>
/home/pedro/devel/optee/optee_os/lib/libutee/tee_api_operations.c:477
    2c50:	b9400280 	ldr	w0, [x20]
/home/pedro/devel/optee/optee_os/lib/libutee/tee_api_operations.c:484
    2c54:	52800015 	mov	w21, #0x0                   	// #0
/home/pedro/devel/optee/optee_os/lib/libutee/tee_api_operations.c:477
    2c58:	b9000260 	str	w0, [x19]
/home/pedro/devel/optee/optee_os/lib/libutee/tee_api_operations.c:478
    2c5c:	b9400680 	ldr	w0, [x20,#4]
    2c60:	b9000660 	str	w0, [x19,#4]
/home/pedro/devel/optee/optee_os/lib/libutee/tee_api_operations.c:479
    2c64:	b9400a80 	ldr	w0, [x20,#8]
    2c68:	b9000a60 	str	w0, [x19,#8]
/home/pedro/devel/optee/optee_os/lib/libutee/tee_api_operations.c:480
    2c6c:	b9400e80 	ldr	w0, [x20,#12]
    2c70:	b9000e60 	str	w0, [x19,#12]
/home/pedro/devel/optee/optee_os/lib/libutee/tee_api_operations.c:481
    2c74:	b9401280 	ldr	w0, [x20,#16]
    2c78:	b9001260 	str	w0, [x19,#16]
/home/pedro/devel/optee/optee_os/lib/libutee/tee_api_operations.c:482
    2c7c:	b9401e80 	ldr	w0, [x20,#28]
    2c80:	b9001660 	str	w0, [x19,#20]
/home/pedro/devel/optee/optee_os/lib/libutee/tee_api_operations.c:483
    2c84:	b9403280 	ldr	w0, [x20,#48]
/home/pedro/devel/optee/optee_os/lib/libutee/tee_api_operations.c:484
    2c88:	29035a60 	stp	w0, w22, [x19,#24]
    2c8c:	17ffffe1 	b	2c10 <TEE_GetOperationInfoMultiple+0xb4>
/home/pedro/devel/optee/optee_os/lib/libutee/tee_api_operations.c:470
    2c90:	b94037a0 	ldr	w0, [x29,#52]
    2c94:	b9002260 	str	w0, [x19,#32]
/home/pedro/devel/optee/optee_os/lib/libutee/tee_api_operations.c:472
    2c98:	b9401a80 	ldr	w0, [x20,#24]
    2c9c:	b9002660 	str	w0, [x19,#36]
    2ca0:	17ffffec 	b	2c50 <TEE_GetOperationInfoMultiple+0xf4>

0000000000002ca4 <TEE_ResetOperation>:
TEE_ResetOperation():
/home/pedro/devel/optee/optee_os/lib/libutee/tee_api_operations.c:495
    2ca4:	a9be7bfd 	stp	x29, x30, [sp,#-32]!
    2ca8:	910003fd 	mov	x29, sp
    2cac:	f9000bf3 	str	x19, [sp,#16]
    2cb0:	aa0003f3 	mov	x19, x0
/home/pedro/devel/optee/optee_os/lib/libutee/tee_api_operations.c:498
    2cb4:	b5000060 	cbnz	x0, 2cc0 <TEE_ResetOperation+0x1c>
/home/pedro/devel/optee/optee_os/lib/libutee/tee_api_operations.c:499
    2cb8:	52800000 	mov	w0, #0x0                   	// #0
    2cbc:	9400067f 	bl	46b8 <TEE_Panic>
/home/pedro/devel/optee/optee_os/lib/libutee/tee_api_operations.c:501
    2cc0:	b9401e60 	ldr	w0, [x19,#28]
    2cc4:	37900060 	tbnz	w0, #18, 2cd0 <TEE_ResetOperation+0x2c>
/home/pedro/devel/optee/optee_os/lib/libutee/tee_api_operations.c:502
    2cc8:	52800000 	mov	w0, #0x0                   	// #0
    2ccc:	9400067b 	bl	46b8 <TEE_Panic>
/home/pedro/devel/optee/optee_os/lib/libutee/tee_api_operations.c:506
    2cd0:	b9400660 	ldr	w0, [x19,#4]
/home/pedro/devel/optee/optee_os/lib/libutee/tee_api_operations.c:504
    2cd4:	b900327f 	str	wzr, [x19,#48]
/home/pedro/devel/optee/optee_os/lib/libutee/tee_api_operations.c:506
    2cd8:	7100141f 	cmp	w0, #0x5
    2cdc:	540001a1 	b.ne	2d10 <TEE_ResetOperation+0x6c>
/home/pedro/devel/optee/optee_os/lib/libutee/tee_api_operations.c:507
    2ce0:	b9405a60 	ldr	w0, [x19,#88]
    2ce4:	d2800002 	mov	x2, #0x0                   	// #0
    2ce8:	d2800001 	mov	x1, #0x0                   	// #0
    2cec:	9400075c 	bl	4a5c <utee_hash_init>
/home/pedro/devel/optee/optee_os/lib/libutee/tee_api_operations.c:508
    2cf0:	34000040 	cbz	w0, 2cf8 <TEE_ResetOperation+0x54>
/home/pedro/devel/optee/optee_os/lib/libutee/tee_api_operations.c:509
    2cf4:	94000671 	bl	46b8 <TEE_Panic>
/home/pedro/devel/optee/optee_os/lib/libutee/tee_api_operations.c:510
    2cf8:	b9401e60 	ldr	w0, [x19,#28]
    2cfc:	320f0000 	orr	w0, w0, #0x20000
/home/pedro/devel/optee/optee_os/lib/libutee/tee_api_operations.c:512
    2d00:	b9001e60 	str	w0, [x19,#28]
/home/pedro/devel/optee/optee_os/lib/libutee/tee_api_operations.c:514
    2d04:	f9400bf3 	ldr	x19, [sp,#16]
    2d08:	a8c27bfd 	ldp	x29, x30, [sp],#32
    2d0c:	d65f03c0 	ret
/home/pedro/devel/optee/optee_os/lib/libutee/tee_api_operations.c:512
    2d10:	b9401e60 	ldr	w0, [x19,#28]
    2d14:	120e7800 	and	w0, w0, #0xfffdffff
    2d18:	17fffffa 	b	2d00 <TEE_ResetOperation+0x5c>

0000000000002d1c <TEE_SetOperationKey>:
TEE_SetOperationKey():
/home/pedro/devel/optee/optee_os/lib/libutee/tee_api_operations.c:518
    2d1c:	a9bb7bfd 	stp	x29, x30, [sp,#-80]!
    2d20:	910003fd 	mov	x29, sp
    2d24:	a90153f3 	stp	x19, x20, [sp,#16]
    2d28:	a9025bf5 	stp	x21, x22, [sp,#32]
/home/pedro/devel/optee/optee_os/lib/libutee/tee_api_operations.c:523
    2d2c:	b50001e0 	cbnz	x0, 2d68 <TEE_SetOperationKey+0x4c>
/home/pedro/devel/optee/optee_os/lib/libutee/tee_api_operations.c:536
    2d30:	129fff34 	mov	w20, #0xffff0006            	// #-65530
/home/pedro/devel/optee/optee_os/lib/libutee/tee_api_operations.c:585
    2d34:	121e7a80 	and	w0, w20, #0xfffffffd
    2d38:	7100029f 	cmp	w20, #0x0
    2d3c:	52800021 	mov	w1, #0x1                   	// #1
    2d40:	72be0201 	movk	w1, #0xf010, lsl #16
    2d44:	7a411004 	ccmp	w0, w1, #0x4, ne
    2d48:	54000060 	b.eq	2d54 <TEE_SetOperationKey+0x38>
/home/pedro/devel/optee/optee_os/lib/libutee/tee_api_operations.c:587
    2d4c:	2a1403e0 	mov	w0, w20
    2d50:	9400065a 	bl	46b8 <TEE_Panic>
/home/pedro/devel/optee/optee_os/lib/libutee/tee_api_operations.c:590
    2d54:	2a1403e0 	mov	w0, w20
    2d58:	a94153f3 	ldp	x19, x20, [sp,#16]
    2d5c:	a9425bf5 	ldp	x21, x22, [sp,#32]
    2d60:	a8c57bfd 	ldp	x29, x30, [sp],#80
    2d64:	d65f03c0 	ret
    2d68:	aa0003f3 	mov	x19, x0
/home/pedro/devel/optee/optee_os/lib/libutee/tee_api_operations.c:528
    2d6c:	b9403000 	ldr	w0, [x0,#48]
    2d70:	35fffe00 	cbnz	w0, 2d30 <TEE_SetOperationKey+0x14>
    2d74:	aa0103f5 	mov	x21, x1
/home/pedro/devel/optee/optee_os/lib/libutee/tee_api_operations.c:533
    2d78:	b5000081 	cbnz	x1, 2d88 <TEE_SetOperationKey+0x6c>
/home/pedro/devel/optee/optee_os/lib/libutee/tee_api_operations.c:535
    2d7c:	f9401260 	ldr	x0, [x19,#32]
    2d80:	97fffb0f 	bl	19bc <TEE_ResetTransientObject>
    2d84:	17ffffeb 	b	2d30 <TEE_SetOperationKey+0x14>
/home/pedro/devel/optee/optee_os/lib/libutee/tee_api_operations.c:541
    2d88:	b9400660 	ldr	w0, [x19,#4]
    2d8c:	7100141f 	cmp	w0, #0x5
    2d90:	54fffd00 	b.eq	2d30 <TEE_SetOperationKey+0x14>
/home/pedro/devel/optee/optee_os/lib/libutee/tee_api_operations.c:547
    2d94:	b9401e60 	ldr	w0, [x19,#28]
    2d98:	379ffcc0 	tbnz	w0, #19, 2d30 <TEE_SetOperationKey+0x14>
/home/pedro/devel/optee/optee_os/lib/libutee/tee_api_operations.c:553
    2d9c:	9100c3a1 	add	x1, x29, #0x30
    2da0:	aa1503e0 	mov	x0, x21
    2da4:	97fffa3a 	bl	168c <TEE_GetObjectInfo1>
    2da8:	2a0003f4 	mov	w20, w0
/home/pedro/devel/optee/optee_os/lib/libutee/tee_api_operations.c:555
    2dac:	35fffc40 	cbnz	w0, 2d34 <TEE_SetOperationKey+0x18>
/home/pedro/devel/optee/optee_os/lib/libutee/tee_api_operations.c:559
    2db0:	b9401a60 	ldr	w0, [x19,#24]
    2db4:	b9403fa1 	ldr	w1, [x29,#60]
    2db8:	6a21001f 	bics	wzr, w0, w1
    2dbc:	54fffba1 	b.ne	2d30 <TEE_SetOperationKey+0x14>
/home/pedro/devel/optee/optee_os/lib/libutee/tee_api_operations.c:565
    2dc0:	b9401260 	ldr	w0, [x19,#16]
    2dc4:	b94037b6 	ldr	w22, [x29,#52]
    2dc8:	6b16001f 	cmp	w0, w22
    2dcc:	54fffb23 	b.cc	2d30 <TEE_SetOperationKey+0x14>
/home/pedro/devel/optee/optee_os/lib/libutee/tee_api_operations.c:572
    2dd0:	f9401260 	ldr	x0, [x19,#32]
    2dd4:	97fffafa 	bl	19bc <TEE_ResetTransientObject>
/home/pedro/devel/optee/optee_os/lib/libutee/tee_api_operations.c:573
    2dd8:	b9401e60 	ldr	w0, [x19,#28]
/home/pedro/devel/optee/optee_os/lib/libutee/tee_api_operations.c:575
    2ddc:	aa1503e1 	mov	x1, x21
/home/pedro/devel/optee/optee_os/lib/libutee/tee_api_operations.c:573
    2de0:	120d7800 	and	w0, w0, #0xfffbffff
    2de4:	b9001e60 	str	w0, [x19,#28]
/home/pedro/devel/optee/optee_os/lib/libutee/tee_api_operations.c:575
    2de8:	f9401260 	ldr	x0, [x19,#32]
    2dec:	97fffb62 	bl	1b74 <TEE_CopyObjectAttributes1>
    2df0:	2a0003f4 	mov	w20, w0
/home/pedro/devel/optee/optee_os/lib/libutee/tee_api_operations.c:576
    2df4:	35fffa00 	cbnz	w0, 2d34 <TEE_SetOperationKey+0x18>
/home/pedro/devel/optee/optee_os/lib/libutee/tee_api_operations.c:579
    2df8:	b9401e60 	ldr	w0, [x19,#28]
/home/pedro/devel/optee/optee_os/lib/libutee/tee_api_operations.c:581
    2dfc:	b9001676 	str	w22, [x19,#20]
/home/pedro/devel/optee/optee_os/lib/libutee/tee_api_operations.c:579
    2e00:	320e0000 	orr	w0, w0, #0x40000
    2e04:	b9001e60 	str	w0, [x19,#28]
    2e08:	17ffffcb 	b	2d34 <TEE_SetOperationKey+0x18>

0000000000002e0c <TEE_SetOperationKey2>:
TEE_SetOperationKey2():
/home/pedro/devel/optee/optee_os/lib/libutee/tee_api_operations.c:594
    2e0c:	a9b87bfd 	stp	x29, x30, [sp,#-128]!
    2e10:	910003fd 	mov	x29, sp
    2e14:	a90153f3 	stp	x19, x20, [sp,#16]
    2e18:	a9025bf5 	stp	x21, x22, [sp,#32]
    2e1c:	f9001bf7 	str	x23, [sp,#48]
/home/pedro/devel/optee/optee_os/lib/libutee/tee_api_operations.c:600
    2e20:	b50001e0 	cbnz	x0, 2e5c <TEE_SetOperationKey2+0x50>
/home/pedro/devel/optee/optee_os/lib/libutee/tee_api_operations.c:621
    2e24:	129fff34 	mov	w20, #0xffff0006            	// #-65530
/home/pedro/devel/optee/optee_os/lib/libutee/tee_api_operations.c:708
    2e28:	12be0200 	mov	w0, #0xfefffff             	// #267386879
/home/pedro/devel/optee/optee_os/lib/libutee/tee_api_operations.c:707
    2e2c:	7100029f 	cmp	w20, #0x0
/home/pedro/devel/optee/optee_os/lib/libutee/tee_api_operations.c:708
    2e30:	0b000280 	add	w0, w20, w0
/home/pedro/devel/optee/optee_os/lib/libutee/tee_api_operations.c:707
    2e34:	7a431800 	ccmp	w0, #0x3, #0x0, ne
    2e38:	54000069 	b.ls	2e44 <TEE_SetOperationKey2+0x38>
/home/pedro/devel/optee/optee_os/lib/libutee/tee_api_operations.c:712
    2e3c:	2a1403e0 	mov	w0, w20
    2e40:	9400061e 	bl	46b8 <TEE_Panic>
/home/pedro/devel/optee/optee_os/lib/libutee/tee_api_operations.c:715
    2e44:	2a1403e0 	mov	w0, w20
    2e48:	f9401bf7 	ldr	x23, [sp,#48]
    2e4c:	a94153f3 	ldp	x19, x20, [sp,#16]
    2e50:	a9425bf5 	ldp	x21, x22, [sp,#32]
    2e54:	a8c87bfd 	ldp	x29, x30, [sp],#128
    2e58:	d65f03c0 	ret
    2e5c:	aa0003f3 	mov	x19, x0
/home/pedro/devel/optee/optee_os/lib/libutee/tee_api_operations.c:605
    2e60:	b9403000 	ldr	w0, [x0,#48]
    2e64:	35fffe00 	cbnz	w0, 2e24 <TEE_SetOperationKey2+0x18>
/home/pedro/devel/optee/optee_os/lib/libutee/tee_api_operations.c:614
    2e68:	f100003f 	cmp	x1, #0x0
    2e6c:	aa0103f6 	mov	x22, x1
    2e70:	aa0203f5 	mov	x21, x2
    2e74:	fa401844 	ccmp	x2, #0x0, #0x4, ne
    2e78:	54000121 	b.ne	2e9c <TEE_SetOperationKey2+0x90>
/home/pedro/devel/optee/optee_os/lib/libutee/tee_api_operations.c:616
    2e7c:	b4000081 	cbz	x1, 2e8c <TEE_SetOperationKey2+0x80>
/home/pedro/devel/optee/optee_os/lib/libutee/tee_api_operations.c:620
    2e80:	f9401660 	ldr	x0, [x19,#40]
    2e84:	97ffface 	bl	19bc <TEE_ResetTransientObject>
    2e88:	17ffffe7 	b	2e24 <TEE_SetOperationKey2+0x18>
/home/pedro/devel/optee/optee_os/lib/libutee/tee_api_operations.c:617
    2e8c:	f9401260 	ldr	x0, [x19,#32]
    2e90:	97fffacb 	bl	19bc <TEE_ResetTransientObject>
/home/pedro/devel/optee/optee_os/lib/libutee/tee_api_operations.c:619
    2e94:	b5fffc95 	cbnz	x21, 2e24 <TEE_SetOperationKey2+0x18>
    2e98:	17fffffa 	b	2e80 <TEE_SetOperationKey2+0x74>
